ARM GAS  /tmp/ccBqI1NG.s 			page 1


   1              		.cpu cortex-m7
   2              		.arch armv7e-m
   3              		.fpu fpv5-d16
   4              		.eabi_attribute 28, 1
   5              		.eabi_attribute 20, 1
   6              		.eabi_attribute 21, 1
   7              		.eabi_attribute 23, 3
   8              		.eabi_attribute 24, 1
   9              		.eabi_attribute 25, 1
  10              		.eabi_attribute 26, 1
  11              		.eabi_attribute 30, 1
  12              		.eabi_attribute 34, 1
  13              		.eabi_attribute 18, 4
  14              		.file	"port.c"
  15              		.text
  16              	.Ltext0:
  17              		.cfi_sections	.debug_frame
  18              		.file 1 "Middlewares/Third_Party/FreeRTOS/Source/portable/GCC/ARM_CM4F/port.c"
  19              		.section	.text.prvTaskExitError,"ax",%progbits
  20              		.align	1
  21              		.syntax unified
  22              		.thumb
  23              		.thumb_func
  25              	prvTaskExitError:
  26              	.LFB5:
   1:Middlewares/Third_Party/FreeRTOS/Source/portable/GCC/ARM_CM4F/port.c **** /*
   2:Middlewares/Third_Party/FreeRTOS/Source/portable/GCC/ARM_CM4F/port.c ****  * FreeRTOS Kernel V10.6.2
   3:Middlewares/Third_Party/FreeRTOS/Source/portable/GCC/ARM_CM4F/port.c ****  * Copyright (C) 2021 Amazon.com, Inc. or its affiliates.  All Rights Reserved.
   4:Middlewares/Third_Party/FreeRTOS/Source/portable/GCC/ARM_CM4F/port.c ****  *
   5:Middlewares/Third_Party/FreeRTOS/Source/portable/GCC/ARM_CM4F/port.c ****  * SPDX-License-Identifier: MIT
   6:Middlewares/Third_Party/FreeRTOS/Source/portable/GCC/ARM_CM4F/port.c ****  *
   7:Middlewares/Third_Party/FreeRTOS/Source/portable/GCC/ARM_CM4F/port.c ****  * Permission is hereby granted, free of charge, to any person obtaining a copy of
   8:Middlewares/Third_Party/FreeRTOS/Source/portable/GCC/ARM_CM4F/port.c ****  * this software and associated documentation files (the "Software"), to deal in
   9:Middlewares/Third_Party/FreeRTOS/Source/portable/GCC/ARM_CM4F/port.c ****  * the Software without restriction, including without limitation the rights to
  10:Middlewares/Third_Party/FreeRTOS/Source/portable/GCC/ARM_CM4F/port.c ****  * use, copy, modify, merge, publish, distribute, sublicense, and/or sell copies of
  11:Middlewares/Third_Party/FreeRTOS/Source/portable/GCC/ARM_CM4F/port.c ****  * the Software, and to permit persons to whom the Software is furnished to do so,
  12:Middlewares/Third_Party/FreeRTOS/Source/portable/GCC/ARM_CM4F/port.c ****  * subject to the following conditions:
  13:Middlewares/Third_Party/FreeRTOS/Source/portable/GCC/ARM_CM4F/port.c ****  *
  14:Middlewares/Third_Party/FreeRTOS/Source/portable/GCC/ARM_CM4F/port.c ****  * The above copyright notice and this permission notice shall be included in all
  15:Middlewares/Third_Party/FreeRTOS/Source/portable/GCC/ARM_CM4F/port.c ****  * copies or substantial portions of the Software.
  16:Middlewares/Third_Party/FreeRTOS/Source/portable/GCC/ARM_CM4F/port.c ****  *
  17:Middlewares/Third_Party/FreeRTOS/Source/portable/GCC/ARM_CM4F/port.c ****  * THE SOFTWARE IS PROVIDED "AS IS", WITHOUT WARRANTY OF ANY KIND, EXPRESS OR
  18:Middlewares/Third_Party/FreeRTOS/Source/portable/GCC/ARM_CM4F/port.c ****  * IMPLIED, INCLUDING BUT NOT LIMITED TO THE WARRANTIES OF MERCHANTABILITY, FITNESS
  19:Middlewares/Third_Party/FreeRTOS/Source/portable/GCC/ARM_CM4F/port.c ****  * FOR A PARTICULAR PURPOSE AND NONINFRINGEMENT. IN NO EVENT SHALL THE AUTHORS OR
  20:Middlewares/Third_Party/FreeRTOS/Source/portable/GCC/ARM_CM4F/port.c ****  * COPYRIGHT HOLDERS BE LIABLE FOR ANY CLAIM, DAMAGES OR OTHER LIABILITY, WHETHER
  21:Middlewares/Third_Party/FreeRTOS/Source/portable/GCC/ARM_CM4F/port.c ****  * IN AN ACTION OF CONTRACT, TORT OR OTHERWISE, ARISING FROM, OUT OF OR IN
  22:Middlewares/Third_Party/FreeRTOS/Source/portable/GCC/ARM_CM4F/port.c ****  * CONNECTION WITH THE SOFTWARE OR THE USE OR OTHER DEALINGS IN THE SOFTWARE.
  23:Middlewares/Third_Party/FreeRTOS/Source/portable/GCC/ARM_CM4F/port.c ****  *
  24:Middlewares/Third_Party/FreeRTOS/Source/portable/GCC/ARM_CM4F/port.c ****  * https://www.FreeRTOS.org
  25:Middlewares/Third_Party/FreeRTOS/Source/portable/GCC/ARM_CM4F/port.c ****  * https://github.com/FreeRTOS
  26:Middlewares/Third_Party/FreeRTOS/Source/portable/GCC/ARM_CM4F/port.c ****  *
  27:Middlewares/Third_Party/FreeRTOS/Source/portable/GCC/ARM_CM4F/port.c ****  */
  28:Middlewares/Third_Party/FreeRTOS/Source/portable/GCC/ARM_CM4F/port.c **** 
  29:Middlewares/Third_Party/FreeRTOS/Source/portable/GCC/ARM_CM4F/port.c **** /*-----------------------------------------------------------
  30:Middlewares/Third_Party/FreeRTOS/Source/portable/GCC/ARM_CM4F/port.c **** * Implementation of functions defined in portable.h for the ARM CM4F port.
  31:Middlewares/Third_Party/FreeRTOS/Source/portable/GCC/ARM_CM4F/port.c **** *----------------------------------------------------------*/
  32:Middlewares/Third_Party/FreeRTOS/Source/portable/GCC/ARM_CM4F/port.c **** 
ARM GAS  /tmp/ccBqI1NG.s 			page 2


  33:Middlewares/Third_Party/FreeRTOS/Source/portable/GCC/ARM_CM4F/port.c **** /* Scheduler includes. */
  34:Middlewares/Third_Party/FreeRTOS/Source/portable/GCC/ARM_CM4F/port.c **** #include "FreeRTOS.h"
  35:Middlewares/Third_Party/FreeRTOS/Source/portable/GCC/ARM_CM4F/port.c **** #include "task.h"
  36:Middlewares/Third_Party/FreeRTOS/Source/portable/GCC/ARM_CM4F/port.c **** 
  37:Middlewares/Third_Party/FreeRTOS/Source/portable/GCC/ARM_CM4F/port.c **** #ifndef __VFP_FP__
  38:Middlewares/Third_Party/FreeRTOS/Source/portable/GCC/ARM_CM4F/port.c ****     #error This port can only be used when the project options are configured to enable hardware fl
  39:Middlewares/Third_Party/FreeRTOS/Source/portable/GCC/ARM_CM4F/port.c **** #endif
  40:Middlewares/Third_Party/FreeRTOS/Source/portable/GCC/ARM_CM4F/port.c **** 
  41:Middlewares/Third_Party/FreeRTOS/Source/portable/GCC/ARM_CM4F/port.c **** /* Constants required to manipulate the core.  Registers first... */
  42:Middlewares/Third_Party/FreeRTOS/Source/portable/GCC/ARM_CM4F/port.c **** #define portNVIC_SYSTICK_CTRL_REG             ( *( ( volatile uint32_t * ) 0xe000e010 ) )
  43:Middlewares/Third_Party/FreeRTOS/Source/portable/GCC/ARM_CM4F/port.c **** #define portNVIC_SYSTICK_LOAD_REG             ( *( ( volatile uint32_t * ) 0xe000e014 ) )
  44:Middlewares/Third_Party/FreeRTOS/Source/portable/GCC/ARM_CM4F/port.c **** #define portNVIC_SYSTICK_CURRENT_VALUE_REG    ( *( ( volatile uint32_t * ) 0xe000e018 ) )
  45:Middlewares/Third_Party/FreeRTOS/Source/portable/GCC/ARM_CM4F/port.c **** #define portNVIC_SHPR3_REG                    ( *( ( volatile uint32_t * ) 0xe000ed20 ) )
  46:Middlewares/Third_Party/FreeRTOS/Source/portable/GCC/ARM_CM4F/port.c **** /* ...then bits in the registers. */
  47:Middlewares/Third_Party/FreeRTOS/Source/portable/GCC/ARM_CM4F/port.c **** #define portNVIC_SYSTICK_CLK_BIT              ( 1UL << 2UL )
  48:Middlewares/Third_Party/FreeRTOS/Source/portable/GCC/ARM_CM4F/port.c **** #define portNVIC_SYSTICK_INT_BIT              ( 1UL << 1UL )
  49:Middlewares/Third_Party/FreeRTOS/Source/portable/GCC/ARM_CM4F/port.c **** #define portNVIC_SYSTICK_ENABLE_BIT           ( 1UL << 0UL )
  50:Middlewares/Third_Party/FreeRTOS/Source/portable/GCC/ARM_CM4F/port.c **** #define portNVIC_SYSTICK_COUNT_FLAG_BIT       ( 1UL << 16UL )
  51:Middlewares/Third_Party/FreeRTOS/Source/portable/GCC/ARM_CM4F/port.c **** #define portNVIC_PENDSVCLEAR_BIT              ( 1UL << 27UL )
  52:Middlewares/Third_Party/FreeRTOS/Source/portable/GCC/ARM_CM4F/port.c **** #define portNVIC_PEND_SYSTICK_SET_BIT         ( 1UL << 26UL )
  53:Middlewares/Third_Party/FreeRTOS/Source/portable/GCC/ARM_CM4F/port.c **** #define portNVIC_PEND_SYSTICK_CLEAR_BIT       ( 1UL << 25UL )
  54:Middlewares/Third_Party/FreeRTOS/Source/portable/GCC/ARM_CM4F/port.c **** 
  55:Middlewares/Third_Party/FreeRTOS/Source/portable/GCC/ARM_CM4F/port.c **** /* Constants used to detect a Cortex-M7 r0p1 core, which should use the ARM_CM7
  56:Middlewares/Third_Party/FreeRTOS/Source/portable/GCC/ARM_CM4F/port.c ****  * r0p1 port. */
  57:Middlewares/Third_Party/FreeRTOS/Source/portable/GCC/ARM_CM4F/port.c **** #define portCPUID                             ( *( ( volatile uint32_t * ) 0xE000ed00 ) )
  58:Middlewares/Third_Party/FreeRTOS/Source/portable/GCC/ARM_CM4F/port.c **** #define portCORTEX_M7_r0p1_ID                 ( 0x410FC271UL )
  59:Middlewares/Third_Party/FreeRTOS/Source/portable/GCC/ARM_CM4F/port.c **** #define portCORTEX_M7_r0p0_ID                 ( 0x410FC270UL )
  60:Middlewares/Third_Party/FreeRTOS/Source/portable/GCC/ARM_CM4F/port.c **** 
  61:Middlewares/Third_Party/FreeRTOS/Source/portable/GCC/ARM_CM4F/port.c **** #define portMIN_INTERRUPT_PRIORITY            ( 255UL )
  62:Middlewares/Third_Party/FreeRTOS/Source/portable/GCC/ARM_CM4F/port.c **** #define portNVIC_PENDSV_PRI                   ( ( ( uint32_t ) portMIN_INTERRUPT_PRIORITY ) << 16UL
  63:Middlewares/Third_Party/FreeRTOS/Source/portable/GCC/ARM_CM4F/port.c **** #define portNVIC_SYSTICK_PRI                  ( ( ( uint32_t ) portMIN_INTERRUPT_PRIORITY ) << 24UL
  64:Middlewares/Third_Party/FreeRTOS/Source/portable/GCC/ARM_CM4F/port.c **** 
  65:Middlewares/Third_Party/FreeRTOS/Source/portable/GCC/ARM_CM4F/port.c **** /* Constants required to check the validity of an interrupt priority. */
  66:Middlewares/Third_Party/FreeRTOS/Source/portable/GCC/ARM_CM4F/port.c **** #define portFIRST_USER_INTERRUPT_NUMBER       ( 16 )
  67:Middlewares/Third_Party/FreeRTOS/Source/portable/GCC/ARM_CM4F/port.c **** #define portNVIC_IP_REGISTERS_OFFSET_16       ( 0xE000E3F0 )
  68:Middlewares/Third_Party/FreeRTOS/Source/portable/GCC/ARM_CM4F/port.c **** #define portAIRCR_REG                         ( *( ( volatile uint32_t * ) 0xE000ED0C ) )
  69:Middlewares/Third_Party/FreeRTOS/Source/portable/GCC/ARM_CM4F/port.c **** #define portMAX_8_BIT_VALUE                   ( ( uint8_t ) 0xff )
  70:Middlewares/Third_Party/FreeRTOS/Source/portable/GCC/ARM_CM4F/port.c **** #define portTOP_BIT_OF_BYTE                   ( ( uint8_t ) 0x80 )
  71:Middlewares/Third_Party/FreeRTOS/Source/portable/GCC/ARM_CM4F/port.c **** #define portMAX_PRIGROUP_BITS                 ( ( uint8_t ) 7 )
  72:Middlewares/Third_Party/FreeRTOS/Source/portable/GCC/ARM_CM4F/port.c **** #define portPRIORITY_GROUP_MASK               ( 0x07UL << 8UL )
  73:Middlewares/Third_Party/FreeRTOS/Source/portable/GCC/ARM_CM4F/port.c **** #define portPRIGROUP_SHIFT                    ( 8UL )
  74:Middlewares/Third_Party/FreeRTOS/Source/portable/GCC/ARM_CM4F/port.c **** 
  75:Middlewares/Third_Party/FreeRTOS/Source/portable/GCC/ARM_CM4F/port.c **** /* Masks off all bits but the VECTACTIVE bits in the ICSR register. */
  76:Middlewares/Third_Party/FreeRTOS/Source/portable/GCC/ARM_CM4F/port.c **** #define portVECTACTIVE_MASK                   ( 0xFFUL )
  77:Middlewares/Third_Party/FreeRTOS/Source/portable/GCC/ARM_CM4F/port.c **** 
  78:Middlewares/Third_Party/FreeRTOS/Source/portable/GCC/ARM_CM4F/port.c **** /* Constants required to manipulate the VFP. */
  79:Middlewares/Third_Party/FreeRTOS/Source/portable/GCC/ARM_CM4F/port.c **** #define portFPCCR                             ( ( volatile uint32_t * ) 0xe000ef34 ) /* Floating po
  80:Middlewares/Third_Party/FreeRTOS/Source/portable/GCC/ARM_CM4F/port.c **** #define portASPEN_AND_LSPEN_BITS              ( 0x3UL << 30UL )
  81:Middlewares/Third_Party/FreeRTOS/Source/portable/GCC/ARM_CM4F/port.c **** 
  82:Middlewares/Third_Party/FreeRTOS/Source/portable/GCC/ARM_CM4F/port.c **** /* Constants required to set up the initial stack. */
  83:Middlewares/Third_Party/FreeRTOS/Source/portable/GCC/ARM_CM4F/port.c **** #define portINITIAL_XPSR                      ( 0x01000000 )
  84:Middlewares/Third_Party/FreeRTOS/Source/portable/GCC/ARM_CM4F/port.c **** #define portINITIAL_EXC_RETURN                ( 0xfffffffd )
  85:Middlewares/Third_Party/FreeRTOS/Source/portable/GCC/ARM_CM4F/port.c **** 
  86:Middlewares/Third_Party/FreeRTOS/Source/portable/GCC/ARM_CM4F/port.c **** /* The systick is a 24-bit counter. */
  87:Middlewares/Third_Party/FreeRTOS/Source/portable/GCC/ARM_CM4F/port.c **** #define portMAX_24_BIT_NUMBER                 ( 0xffffffUL )
  88:Middlewares/Third_Party/FreeRTOS/Source/portable/GCC/ARM_CM4F/port.c **** 
  89:Middlewares/Third_Party/FreeRTOS/Source/portable/GCC/ARM_CM4F/port.c **** /* For strict compliance with the Cortex-M spec the task start address should
ARM GAS  /tmp/ccBqI1NG.s 			page 3


  90:Middlewares/Third_Party/FreeRTOS/Source/portable/GCC/ARM_CM4F/port.c ****  * have bit-0 clear, as it is loaded into the PC on exit from an ISR. */
  91:Middlewares/Third_Party/FreeRTOS/Source/portable/GCC/ARM_CM4F/port.c **** #define portSTART_ADDRESS_MASK                ( ( StackType_t ) 0xfffffffeUL )
  92:Middlewares/Third_Party/FreeRTOS/Source/portable/GCC/ARM_CM4F/port.c **** 
  93:Middlewares/Third_Party/FreeRTOS/Source/portable/GCC/ARM_CM4F/port.c **** /* A fiddle factor to estimate the number of SysTick counts that would have
  94:Middlewares/Third_Party/FreeRTOS/Source/portable/GCC/ARM_CM4F/port.c ****  * occurred while the SysTick counter is stopped during tickless idle
  95:Middlewares/Third_Party/FreeRTOS/Source/portable/GCC/ARM_CM4F/port.c ****  * calculations. */
  96:Middlewares/Third_Party/FreeRTOS/Source/portable/GCC/ARM_CM4F/port.c **** #define portMISSED_COUNTS_FACTOR              ( 94UL )
  97:Middlewares/Third_Party/FreeRTOS/Source/portable/GCC/ARM_CM4F/port.c **** 
  98:Middlewares/Third_Party/FreeRTOS/Source/portable/GCC/ARM_CM4F/port.c **** /* Let the user override the default SysTick clock rate.  If defined by the
  99:Middlewares/Third_Party/FreeRTOS/Source/portable/GCC/ARM_CM4F/port.c ****  * user, this symbol must equal the SysTick clock rate when the CLK bit is 0 in the
 100:Middlewares/Third_Party/FreeRTOS/Source/portable/GCC/ARM_CM4F/port.c ****  * configuration register. */
 101:Middlewares/Third_Party/FreeRTOS/Source/portable/GCC/ARM_CM4F/port.c **** #ifndef configSYSTICK_CLOCK_HZ
 102:Middlewares/Third_Party/FreeRTOS/Source/portable/GCC/ARM_CM4F/port.c ****     #define configSYSTICK_CLOCK_HZ             ( configCPU_CLOCK_HZ )
 103:Middlewares/Third_Party/FreeRTOS/Source/portable/GCC/ARM_CM4F/port.c ****     /* Ensure the SysTick is clocked at the same frequency as the core. */
 104:Middlewares/Third_Party/FreeRTOS/Source/portable/GCC/ARM_CM4F/port.c ****     #define portNVIC_SYSTICK_CLK_BIT_CONFIG    ( portNVIC_SYSTICK_CLK_BIT )
 105:Middlewares/Third_Party/FreeRTOS/Source/portable/GCC/ARM_CM4F/port.c **** #else
 106:Middlewares/Third_Party/FreeRTOS/Source/portable/GCC/ARM_CM4F/port.c ****     /* Select the option to clock SysTick not at the same frequency as the core. */
 107:Middlewares/Third_Party/FreeRTOS/Source/portable/GCC/ARM_CM4F/port.c ****     #define portNVIC_SYSTICK_CLK_BIT_CONFIG    ( 0 )
 108:Middlewares/Third_Party/FreeRTOS/Source/portable/GCC/ARM_CM4F/port.c **** #endif
 109:Middlewares/Third_Party/FreeRTOS/Source/portable/GCC/ARM_CM4F/port.c **** 
 110:Middlewares/Third_Party/FreeRTOS/Source/portable/GCC/ARM_CM4F/port.c **** /* Let the user override the pre-loading of the initial LR with the address of
 111:Middlewares/Third_Party/FreeRTOS/Source/portable/GCC/ARM_CM4F/port.c ****  * prvTaskExitError() in case it messes up unwinding of the stack in the
 112:Middlewares/Third_Party/FreeRTOS/Source/portable/GCC/ARM_CM4F/port.c ****  * debugger. */
 113:Middlewares/Third_Party/FreeRTOS/Source/portable/GCC/ARM_CM4F/port.c **** #ifdef configTASK_RETURN_ADDRESS
 114:Middlewares/Third_Party/FreeRTOS/Source/portable/GCC/ARM_CM4F/port.c ****     #define portTASK_RETURN_ADDRESS    configTASK_RETURN_ADDRESS
 115:Middlewares/Third_Party/FreeRTOS/Source/portable/GCC/ARM_CM4F/port.c **** #else
 116:Middlewares/Third_Party/FreeRTOS/Source/portable/GCC/ARM_CM4F/port.c ****     #define portTASK_RETURN_ADDRESS    prvTaskExitError
 117:Middlewares/Third_Party/FreeRTOS/Source/portable/GCC/ARM_CM4F/port.c **** #endif
 118:Middlewares/Third_Party/FreeRTOS/Source/portable/GCC/ARM_CM4F/port.c **** 
 119:Middlewares/Third_Party/FreeRTOS/Source/portable/GCC/ARM_CM4F/port.c **** /*
 120:Middlewares/Third_Party/FreeRTOS/Source/portable/GCC/ARM_CM4F/port.c ****  * Setup the timer to generate the tick interrupts.  The implementation in this
 121:Middlewares/Third_Party/FreeRTOS/Source/portable/GCC/ARM_CM4F/port.c ****  * file is weak to allow application writers to change the timer used to
 122:Middlewares/Third_Party/FreeRTOS/Source/portable/GCC/ARM_CM4F/port.c ****  * generate the tick interrupt.
 123:Middlewares/Third_Party/FreeRTOS/Source/portable/GCC/ARM_CM4F/port.c ****  */
 124:Middlewares/Third_Party/FreeRTOS/Source/portable/GCC/ARM_CM4F/port.c **** void vPortSetupTimerInterrupt( void );
 125:Middlewares/Third_Party/FreeRTOS/Source/portable/GCC/ARM_CM4F/port.c **** 
 126:Middlewares/Third_Party/FreeRTOS/Source/portable/GCC/ARM_CM4F/port.c **** /*
 127:Middlewares/Third_Party/FreeRTOS/Source/portable/GCC/ARM_CM4F/port.c ****  * Exception handlers.
 128:Middlewares/Third_Party/FreeRTOS/Source/portable/GCC/ARM_CM4F/port.c ****  */
 129:Middlewares/Third_Party/FreeRTOS/Source/portable/GCC/ARM_CM4F/port.c **** void xPortPendSVHandler( void ) __attribute__( ( naked ) );
 130:Middlewares/Third_Party/FreeRTOS/Source/portable/GCC/ARM_CM4F/port.c **** void xPortSysTickHandler( void );
 131:Middlewares/Third_Party/FreeRTOS/Source/portable/GCC/ARM_CM4F/port.c **** void vPortSVCHandler( void ) __attribute__( ( naked ) );
 132:Middlewares/Third_Party/FreeRTOS/Source/portable/GCC/ARM_CM4F/port.c **** 
 133:Middlewares/Third_Party/FreeRTOS/Source/portable/GCC/ARM_CM4F/port.c **** /*
 134:Middlewares/Third_Party/FreeRTOS/Source/portable/GCC/ARM_CM4F/port.c ****  * Start first task is a separate function so it can be tested in isolation.
 135:Middlewares/Third_Party/FreeRTOS/Source/portable/GCC/ARM_CM4F/port.c ****  */
 136:Middlewares/Third_Party/FreeRTOS/Source/portable/GCC/ARM_CM4F/port.c **** static void prvPortStartFirstTask( void ) __attribute__( ( naked ) );
 137:Middlewares/Third_Party/FreeRTOS/Source/portable/GCC/ARM_CM4F/port.c **** 
 138:Middlewares/Third_Party/FreeRTOS/Source/portable/GCC/ARM_CM4F/port.c **** /*
 139:Middlewares/Third_Party/FreeRTOS/Source/portable/GCC/ARM_CM4F/port.c ****  * Function to enable the VFP.
 140:Middlewares/Third_Party/FreeRTOS/Source/portable/GCC/ARM_CM4F/port.c ****  */
 141:Middlewares/Third_Party/FreeRTOS/Source/portable/GCC/ARM_CM4F/port.c **** static void vPortEnableVFP( void ) __attribute__( ( naked ) );
 142:Middlewares/Third_Party/FreeRTOS/Source/portable/GCC/ARM_CM4F/port.c **** 
 143:Middlewares/Third_Party/FreeRTOS/Source/portable/GCC/ARM_CM4F/port.c **** /*
 144:Middlewares/Third_Party/FreeRTOS/Source/portable/GCC/ARM_CM4F/port.c ****  * Used to catch tasks that attempt to return from their implementing function.
 145:Middlewares/Third_Party/FreeRTOS/Source/portable/GCC/ARM_CM4F/port.c ****  */
 146:Middlewares/Third_Party/FreeRTOS/Source/portable/GCC/ARM_CM4F/port.c **** static void prvTaskExitError( void );
ARM GAS  /tmp/ccBqI1NG.s 			page 4


 147:Middlewares/Third_Party/FreeRTOS/Source/portable/GCC/ARM_CM4F/port.c **** 
 148:Middlewares/Third_Party/FreeRTOS/Source/portable/GCC/ARM_CM4F/port.c **** /*-----------------------------------------------------------*/
 149:Middlewares/Third_Party/FreeRTOS/Source/portable/GCC/ARM_CM4F/port.c **** 
 150:Middlewares/Third_Party/FreeRTOS/Source/portable/GCC/ARM_CM4F/port.c **** /* Each task maintains its own interrupt status in the critical nesting
 151:Middlewares/Third_Party/FreeRTOS/Source/portable/GCC/ARM_CM4F/port.c ****  * variable. */
 152:Middlewares/Third_Party/FreeRTOS/Source/portable/GCC/ARM_CM4F/port.c **** static UBaseType_t uxCriticalNesting = 0xaaaaaaaa;
 153:Middlewares/Third_Party/FreeRTOS/Source/portable/GCC/ARM_CM4F/port.c **** 
 154:Middlewares/Third_Party/FreeRTOS/Source/portable/GCC/ARM_CM4F/port.c **** /*
 155:Middlewares/Third_Party/FreeRTOS/Source/portable/GCC/ARM_CM4F/port.c ****  * The number of SysTick increments that make up one tick period.
 156:Middlewares/Third_Party/FreeRTOS/Source/portable/GCC/ARM_CM4F/port.c ****  */
 157:Middlewares/Third_Party/FreeRTOS/Source/portable/GCC/ARM_CM4F/port.c **** #if ( configUSE_TICKLESS_IDLE == 1 )
 158:Middlewares/Third_Party/FreeRTOS/Source/portable/GCC/ARM_CM4F/port.c ****     static uint32_t ulTimerCountsForOneTick = 0;
 159:Middlewares/Third_Party/FreeRTOS/Source/portable/GCC/ARM_CM4F/port.c **** #endif /* configUSE_TICKLESS_IDLE */
 160:Middlewares/Third_Party/FreeRTOS/Source/portable/GCC/ARM_CM4F/port.c **** 
 161:Middlewares/Third_Party/FreeRTOS/Source/portable/GCC/ARM_CM4F/port.c **** /*
 162:Middlewares/Third_Party/FreeRTOS/Source/portable/GCC/ARM_CM4F/port.c ****  * The maximum number of tick periods that can be suppressed is limited by the
 163:Middlewares/Third_Party/FreeRTOS/Source/portable/GCC/ARM_CM4F/port.c ****  * 24 bit resolution of the SysTick timer.
 164:Middlewares/Third_Party/FreeRTOS/Source/portable/GCC/ARM_CM4F/port.c ****  */
 165:Middlewares/Third_Party/FreeRTOS/Source/portable/GCC/ARM_CM4F/port.c **** #if ( configUSE_TICKLESS_IDLE == 1 )
 166:Middlewares/Third_Party/FreeRTOS/Source/portable/GCC/ARM_CM4F/port.c ****     static uint32_t xMaximumPossibleSuppressedTicks = 0;
 167:Middlewares/Third_Party/FreeRTOS/Source/portable/GCC/ARM_CM4F/port.c **** #endif /* configUSE_TICKLESS_IDLE */
 168:Middlewares/Third_Party/FreeRTOS/Source/portable/GCC/ARM_CM4F/port.c **** 
 169:Middlewares/Third_Party/FreeRTOS/Source/portable/GCC/ARM_CM4F/port.c **** /*
 170:Middlewares/Third_Party/FreeRTOS/Source/portable/GCC/ARM_CM4F/port.c ****  * Compensate for the CPU cycles that pass while the SysTick is stopped (low
 171:Middlewares/Third_Party/FreeRTOS/Source/portable/GCC/ARM_CM4F/port.c ****  * power functionality only.
 172:Middlewares/Third_Party/FreeRTOS/Source/portable/GCC/ARM_CM4F/port.c ****  */
 173:Middlewares/Third_Party/FreeRTOS/Source/portable/GCC/ARM_CM4F/port.c **** #if ( configUSE_TICKLESS_IDLE == 1 )
 174:Middlewares/Third_Party/FreeRTOS/Source/portable/GCC/ARM_CM4F/port.c ****     static uint32_t ulStoppedTimerCompensation = 0;
 175:Middlewares/Third_Party/FreeRTOS/Source/portable/GCC/ARM_CM4F/port.c **** #endif /* configUSE_TICKLESS_IDLE */
 176:Middlewares/Third_Party/FreeRTOS/Source/portable/GCC/ARM_CM4F/port.c **** 
 177:Middlewares/Third_Party/FreeRTOS/Source/portable/GCC/ARM_CM4F/port.c **** /*
 178:Middlewares/Third_Party/FreeRTOS/Source/portable/GCC/ARM_CM4F/port.c ****  * Used by the portASSERT_IF_INTERRUPT_PRIORITY_INVALID() macro to ensure
 179:Middlewares/Third_Party/FreeRTOS/Source/portable/GCC/ARM_CM4F/port.c ****  * FreeRTOS API functions are not called from interrupts that have been assigned
 180:Middlewares/Third_Party/FreeRTOS/Source/portable/GCC/ARM_CM4F/port.c ****  * a priority above configMAX_SYSCALL_INTERRUPT_PRIORITY.
 181:Middlewares/Third_Party/FreeRTOS/Source/portable/GCC/ARM_CM4F/port.c ****  */
 182:Middlewares/Third_Party/FreeRTOS/Source/portable/GCC/ARM_CM4F/port.c **** #if ( configASSERT_DEFINED == 1 )
 183:Middlewares/Third_Party/FreeRTOS/Source/portable/GCC/ARM_CM4F/port.c ****     static uint8_t ucMaxSysCallPriority = 0;
 184:Middlewares/Third_Party/FreeRTOS/Source/portable/GCC/ARM_CM4F/port.c ****     static uint32_t ulMaxPRIGROUPValue = 0;
 185:Middlewares/Third_Party/FreeRTOS/Source/portable/GCC/ARM_CM4F/port.c ****     static const volatile uint8_t * const pcInterruptPriorityRegisters = ( const volatile uint8_t *
 186:Middlewares/Third_Party/FreeRTOS/Source/portable/GCC/ARM_CM4F/port.c **** #endif /* configASSERT_DEFINED */
 187:Middlewares/Third_Party/FreeRTOS/Source/portable/GCC/ARM_CM4F/port.c **** 
 188:Middlewares/Third_Party/FreeRTOS/Source/portable/GCC/ARM_CM4F/port.c **** /*-----------------------------------------------------------*/
 189:Middlewares/Third_Party/FreeRTOS/Source/portable/GCC/ARM_CM4F/port.c **** 
 190:Middlewares/Third_Party/FreeRTOS/Source/portable/GCC/ARM_CM4F/port.c **** /*
 191:Middlewares/Third_Party/FreeRTOS/Source/portable/GCC/ARM_CM4F/port.c ****  * See header file for description.
 192:Middlewares/Third_Party/FreeRTOS/Source/portable/GCC/ARM_CM4F/port.c ****  */
 193:Middlewares/Third_Party/FreeRTOS/Source/portable/GCC/ARM_CM4F/port.c **** StackType_t * pxPortInitialiseStack( StackType_t * pxTopOfStack,
 194:Middlewares/Third_Party/FreeRTOS/Source/portable/GCC/ARM_CM4F/port.c ****                                      TaskFunction_t pxCode,
 195:Middlewares/Third_Party/FreeRTOS/Source/portable/GCC/ARM_CM4F/port.c ****                                      void * pvParameters )
 196:Middlewares/Third_Party/FreeRTOS/Source/portable/GCC/ARM_CM4F/port.c **** {
 197:Middlewares/Third_Party/FreeRTOS/Source/portable/GCC/ARM_CM4F/port.c ****     /* Simulate the stack frame as it would be created by a context switch
 198:Middlewares/Third_Party/FreeRTOS/Source/portable/GCC/ARM_CM4F/port.c ****      * interrupt. */
 199:Middlewares/Third_Party/FreeRTOS/Source/portable/GCC/ARM_CM4F/port.c **** 
 200:Middlewares/Third_Party/FreeRTOS/Source/portable/GCC/ARM_CM4F/port.c ****     /* Offset added to account for the way the MCU uses the stack on entry/exit
 201:Middlewares/Third_Party/FreeRTOS/Source/portable/GCC/ARM_CM4F/port.c ****      * of interrupts, and to ensure alignment. */
 202:Middlewares/Third_Party/FreeRTOS/Source/portable/GCC/ARM_CM4F/port.c ****     pxTopOfStack--;
 203:Middlewares/Third_Party/FreeRTOS/Source/portable/GCC/ARM_CM4F/port.c **** 
ARM GAS  /tmp/ccBqI1NG.s 			page 5


 204:Middlewares/Third_Party/FreeRTOS/Source/portable/GCC/ARM_CM4F/port.c ****     *pxTopOfStack = portINITIAL_XPSR;                                    /* xPSR */
 205:Middlewares/Third_Party/FreeRTOS/Source/portable/GCC/ARM_CM4F/port.c ****     pxTopOfStack--;
 206:Middlewares/Third_Party/FreeRTOS/Source/portable/GCC/ARM_CM4F/port.c ****     *pxTopOfStack = ( ( StackType_t ) pxCode ) & portSTART_ADDRESS_MASK; /* PC */
 207:Middlewares/Third_Party/FreeRTOS/Source/portable/GCC/ARM_CM4F/port.c ****     pxTopOfStack--;
 208:Middlewares/Third_Party/FreeRTOS/Source/portable/GCC/ARM_CM4F/port.c ****     *pxTopOfStack = ( StackType_t ) portTASK_RETURN_ADDRESS;             /* LR */
 209:Middlewares/Third_Party/FreeRTOS/Source/portable/GCC/ARM_CM4F/port.c **** 
 210:Middlewares/Third_Party/FreeRTOS/Source/portable/GCC/ARM_CM4F/port.c ****     /* Save code space by skipping register initialisation. */
 211:Middlewares/Third_Party/FreeRTOS/Source/portable/GCC/ARM_CM4F/port.c ****     pxTopOfStack -= 5;                            /* R12, R3, R2 and R1. */
 212:Middlewares/Third_Party/FreeRTOS/Source/portable/GCC/ARM_CM4F/port.c ****     *pxTopOfStack = ( StackType_t ) pvParameters; /* R0 */
 213:Middlewares/Third_Party/FreeRTOS/Source/portable/GCC/ARM_CM4F/port.c **** 
 214:Middlewares/Third_Party/FreeRTOS/Source/portable/GCC/ARM_CM4F/port.c ****     /* A save method is being used that requires each task to maintain its
 215:Middlewares/Third_Party/FreeRTOS/Source/portable/GCC/ARM_CM4F/port.c ****      * own exec return value. */
 216:Middlewares/Third_Party/FreeRTOS/Source/portable/GCC/ARM_CM4F/port.c ****     pxTopOfStack--;
 217:Middlewares/Third_Party/FreeRTOS/Source/portable/GCC/ARM_CM4F/port.c ****     *pxTopOfStack = portINITIAL_EXC_RETURN;
 218:Middlewares/Third_Party/FreeRTOS/Source/portable/GCC/ARM_CM4F/port.c **** 
 219:Middlewares/Third_Party/FreeRTOS/Source/portable/GCC/ARM_CM4F/port.c ****     pxTopOfStack -= 8; /* R11, R10, R9, R8, R7, R6, R5 and R4. */
 220:Middlewares/Third_Party/FreeRTOS/Source/portable/GCC/ARM_CM4F/port.c **** 
 221:Middlewares/Third_Party/FreeRTOS/Source/portable/GCC/ARM_CM4F/port.c ****     return pxTopOfStack;
 222:Middlewares/Third_Party/FreeRTOS/Source/portable/GCC/ARM_CM4F/port.c **** }
 223:Middlewares/Third_Party/FreeRTOS/Source/portable/GCC/ARM_CM4F/port.c **** /*-----------------------------------------------------------*/
 224:Middlewares/Third_Party/FreeRTOS/Source/portable/GCC/ARM_CM4F/port.c **** 
 225:Middlewares/Third_Party/FreeRTOS/Source/portable/GCC/ARM_CM4F/port.c **** static void prvTaskExitError( void )
 226:Middlewares/Third_Party/FreeRTOS/Source/portable/GCC/ARM_CM4F/port.c **** {
  27              		.loc 1 226 1 view -0
  28              		.cfi_startproc
  29              		@ args = 0, pretend = 0, frame = 8
  30              		@ frame_needed = 0, uses_anonymous_args = 0
  31              		@ link register save eliminated.
  32 0000 82B0     		sub	sp, sp, #8
  33              	.LCFI0:
  34              		.cfi_def_cfa_offset 8
 227:Middlewares/Third_Party/FreeRTOS/Source/portable/GCC/ARM_CM4F/port.c ****     volatile uint32_t ulDummy = 0;
  35              		.loc 1 227 5 view .LVU1
  36              		.loc 1 227 23 is_stmt 0 view .LVU2
  37 0002 0023     		movs	r3, #0
  38 0004 0193     		str	r3, [sp, #4]
 228:Middlewares/Third_Party/FreeRTOS/Source/portable/GCC/ARM_CM4F/port.c **** 
 229:Middlewares/Third_Party/FreeRTOS/Source/portable/GCC/ARM_CM4F/port.c ****     /* A function that implements a task must not exit or attempt to return to
 230:Middlewares/Third_Party/FreeRTOS/Source/portable/GCC/ARM_CM4F/port.c ****      * its caller as there is nothing to return to.  If a task wants to exit it
 231:Middlewares/Third_Party/FreeRTOS/Source/portable/GCC/ARM_CM4F/port.c ****      * should instead call vTaskDelete( NULL ).
 232:Middlewares/Third_Party/FreeRTOS/Source/portable/GCC/ARM_CM4F/port.c ****      *
 233:Middlewares/Third_Party/FreeRTOS/Source/portable/GCC/ARM_CM4F/port.c ****      * Artificially force an assert() to be triggered if configASSERT() is
 234:Middlewares/Third_Party/FreeRTOS/Source/portable/GCC/ARM_CM4F/port.c ****      * defined, then stop here so application writers can catch the error. */
 235:Middlewares/Third_Party/FreeRTOS/Source/portable/GCC/ARM_CM4F/port.c ****     configASSERT( uxCriticalNesting == ~0UL );
  39              		.loc 1 235 5 is_stmt 1 view .LVU3
  40 0006 0D4B     		ldr	r3, .L6
  41 0008 1B68     		ldr	r3, [r3]
  42 000a B3F1FF3F 		cmp	r3, #-1
  43 000e 08D0     		beq	.L2
  44              		.loc 1 235 5 discriminator 1 view .LVU4
  45              	.LBB33:
  46              	.LBI33:
  47              		.file 2 "Middlewares/Third_Party/FreeRTOS/Source/portable/GCC/ARM_CM4F/portmacro.h"
   1:Middlewares/Third_Party/FreeRTOS/Source/portable/GCC/ARM_CM4F/portmacro.h **** /*
   2:Middlewares/Third_Party/FreeRTOS/Source/portable/GCC/ARM_CM4F/portmacro.h ****  * FreeRTOS Kernel V10.6.2
   3:Middlewares/Third_Party/FreeRTOS/Source/portable/GCC/ARM_CM4F/portmacro.h ****  * Copyright (C) 2021 Amazon.com, Inc. or its affiliates.  All Rights Reserved.
   4:Middlewares/Third_Party/FreeRTOS/Source/portable/GCC/ARM_CM4F/portmacro.h ****  *
ARM GAS  /tmp/ccBqI1NG.s 			page 6


   5:Middlewares/Third_Party/FreeRTOS/Source/portable/GCC/ARM_CM4F/portmacro.h ****  * SPDX-License-Identifier: MIT
   6:Middlewares/Third_Party/FreeRTOS/Source/portable/GCC/ARM_CM4F/portmacro.h ****  *
   7:Middlewares/Third_Party/FreeRTOS/Source/portable/GCC/ARM_CM4F/portmacro.h ****  * Permission is hereby granted, free of charge, to any person obtaining a copy of
   8:Middlewares/Third_Party/FreeRTOS/Source/portable/GCC/ARM_CM4F/portmacro.h ****  * this software and associated documentation files (the "Software"), to deal in
   9:Middlewares/Third_Party/FreeRTOS/Source/portable/GCC/ARM_CM4F/portmacro.h ****  * the Software without restriction, including without limitation the rights to
  10:Middlewares/Third_Party/FreeRTOS/Source/portable/GCC/ARM_CM4F/portmacro.h ****  * use, copy, modify, merge, publish, distribute, sublicense, and/or sell copies of
  11:Middlewares/Third_Party/FreeRTOS/Source/portable/GCC/ARM_CM4F/portmacro.h ****  * the Software, and to permit persons to whom the Software is furnished to do so,
  12:Middlewares/Third_Party/FreeRTOS/Source/portable/GCC/ARM_CM4F/portmacro.h ****  * subject to the following conditions:
  13:Middlewares/Third_Party/FreeRTOS/Source/portable/GCC/ARM_CM4F/portmacro.h ****  *
  14:Middlewares/Third_Party/FreeRTOS/Source/portable/GCC/ARM_CM4F/portmacro.h ****  * The above copyright notice and this permission notice shall be included in all
  15:Middlewares/Third_Party/FreeRTOS/Source/portable/GCC/ARM_CM4F/portmacro.h ****  * copies or substantial portions of the Software.
  16:Middlewares/Third_Party/FreeRTOS/Source/portable/GCC/ARM_CM4F/portmacro.h ****  *
  17:Middlewares/Third_Party/FreeRTOS/Source/portable/GCC/ARM_CM4F/portmacro.h ****  * THE SOFTWARE IS PROVIDED "AS IS", WITHOUT WARRANTY OF ANY KIND, EXPRESS OR
  18:Middlewares/Third_Party/FreeRTOS/Source/portable/GCC/ARM_CM4F/portmacro.h ****  * IMPLIED, INCLUDING BUT NOT LIMITED TO THE WARRANTIES OF MERCHANTABILITY, FITNESS
  19:Middlewares/Third_Party/FreeRTOS/Source/portable/GCC/ARM_CM4F/portmacro.h ****  * FOR A PARTICULAR PURPOSE AND NONINFRINGEMENT. IN NO EVENT SHALL THE AUTHORS OR
  20:Middlewares/Third_Party/FreeRTOS/Source/portable/GCC/ARM_CM4F/portmacro.h ****  * COPYRIGHT HOLDERS BE LIABLE FOR ANY CLAIM, DAMAGES OR OTHER LIABILITY, WHETHER
  21:Middlewares/Third_Party/FreeRTOS/Source/portable/GCC/ARM_CM4F/portmacro.h ****  * IN AN ACTION OF CONTRACT, TORT OR OTHERWISE, ARISING FROM, OUT OF OR IN
  22:Middlewares/Third_Party/FreeRTOS/Source/portable/GCC/ARM_CM4F/portmacro.h ****  * CONNECTION WITH THE SOFTWARE OR THE USE OR OTHER DEALINGS IN THE SOFTWARE.
  23:Middlewares/Third_Party/FreeRTOS/Source/portable/GCC/ARM_CM4F/portmacro.h ****  *
  24:Middlewares/Third_Party/FreeRTOS/Source/portable/GCC/ARM_CM4F/portmacro.h ****  * https://www.FreeRTOS.org
  25:Middlewares/Third_Party/FreeRTOS/Source/portable/GCC/ARM_CM4F/portmacro.h ****  * https://github.com/FreeRTOS
  26:Middlewares/Third_Party/FreeRTOS/Source/portable/GCC/ARM_CM4F/portmacro.h ****  *
  27:Middlewares/Third_Party/FreeRTOS/Source/portable/GCC/ARM_CM4F/portmacro.h ****  */
  28:Middlewares/Third_Party/FreeRTOS/Source/portable/GCC/ARM_CM4F/portmacro.h **** 
  29:Middlewares/Third_Party/FreeRTOS/Source/portable/GCC/ARM_CM4F/portmacro.h **** 
  30:Middlewares/Third_Party/FreeRTOS/Source/portable/GCC/ARM_CM4F/portmacro.h **** #ifndef PORTMACRO_H
  31:Middlewares/Third_Party/FreeRTOS/Source/portable/GCC/ARM_CM4F/portmacro.h ****     #define PORTMACRO_H
  32:Middlewares/Third_Party/FreeRTOS/Source/portable/GCC/ARM_CM4F/portmacro.h **** 
  33:Middlewares/Third_Party/FreeRTOS/Source/portable/GCC/ARM_CM4F/portmacro.h **** /* *INDENT-OFF* */
  34:Middlewares/Third_Party/FreeRTOS/Source/portable/GCC/ARM_CM4F/portmacro.h **** #ifdef __cplusplus
  35:Middlewares/Third_Party/FreeRTOS/Source/portable/GCC/ARM_CM4F/portmacro.h ****     extern "C" {
  36:Middlewares/Third_Party/FreeRTOS/Source/portable/GCC/ARM_CM4F/portmacro.h **** #endif
  37:Middlewares/Third_Party/FreeRTOS/Source/portable/GCC/ARM_CM4F/portmacro.h **** /* *INDENT-ON* */
  38:Middlewares/Third_Party/FreeRTOS/Source/portable/GCC/ARM_CM4F/portmacro.h **** 
  39:Middlewares/Third_Party/FreeRTOS/Source/portable/GCC/ARM_CM4F/portmacro.h **** /*-----------------------------------------------------------
  40:Middlewares/Third_Party/FreeRTOS/Source/portable/GCC/ARM_CM4F/portmacro.h ****  * Port specific definitions.
  41:Middlewares/Third_Party/FreeRTOS/Source/portable/GCC/ARM_CM4F/portmacro.h ****  *
  42:Middlewares/Third_Party/FreeRTOS/Source/portable/GCC/ARM_CM4F/portmacro.h ****  * The settings in this file configure FreeRTOS correctly for the
  43:Middlewares/Third_Party/FreeRTOS/Source/portable/GCC/ARM_CM4F/portmacro.h ****  * given hardware and compiler.
  44:Middlewares/Third_Party/FreeRTOS/Source/portable/GCC/ARM_CM4F/portmacro.h ****  *
  45:Middlewares/Third_Party/FreeRTOS/Source/portable/GCC/ARM_CM4F/portmacro.h ****  * These settings should not be altered.
  46:Middlewares/Third_Party/FreeRTOS/Source/portable/GCC/ARM_CM4F/portmacro.h ****  *-----------------------------------------------------------
  47:Middlewares/Third_Party/FreeRTOS/Source/portable/GCC/ARM_CM4F/portmacro.h ****  */
  48:Middlewares/Third_Party/FreeRTOS/Source/portable/GCC/ARM_CM4F/portmacro.h **** 
  49:Middlewares/Third_Party/FreeRTOS/Source/portable/GCC/ARM_CM4F/portmacro.h **** /* Type definitions. */
  50:Middlewares/Third_Party/FreeRTOS/Source/portable/GCC/ARM_CM4F/portmacro.h ****     #define portCHAR          char
  51:Middlewares/Third_Party/FreeRTOS/Source/portable/GCC/ARM_CM4F/portmacro.h ****     #define portFLOAT         float
  52:Middlewares/Third_Party/FreeRTOS/Source/portable/GCC/ARM_CM4F/portmacro.h ****     #define portDOUBLE        double
  53:Middlewares/Third_Party/FreeRTOS/Source/portable/GCC/ARM_CM4F/portmacro.h ****     #define portLONG          long
  54:Middlewares/Third_Party/FreeRTOS/Source/portable/GCC/ARM_CM4F/portmacro.h ****     #define portSHORT         short
  55:Middlewares/Third_Party/FreeRTOS/Source/portable/GCC/ARM_CM4F/portmacro.h ****     #define portSTACK_TYPE    uint32_t
  56:Middlewares/Third_Party/FreeRTOS/Source/portable/GCC/ARM_CM4F/portmacro.h ****     #define portBASE_TYPE     long
  57:Middlewares/Third_Party/FreeRTOS/Source/portable/GCC/ARM_CM4F/portmacro.h **** 
  58:Middlewares/Third_Party/FreeRTOS/Source/portable/GCC/ARM_CM4F/portmacro.h ****     typedef portSTACK_TYPE   StackType_t;
  59:Middlewares/Third_Party/FreeRTOS/Source/portable/GCC/ARM_CM4F/portmacro.h ****     typedef long             BaseType_t;
  60:Middlewares/Third_Party/FreeRTOS/Source/portable/GCC/ARM_CM4F/portmacro.h ****     typedef unsigned long    UBaseType_t;
  61:Middlewares/Third_Party/FreeRTOS/Source/portable/GCC/ARM_CM4F/portmacro.h **** 
ARM GAS  /tmp/ccBqI1NG.s 			page 7


  62:Middlewares/Third_Party/FreeRTOS/Source/portable/GCC/ARM_CM4F/portmacro.h ****     #if ( configTICK_TYPE_WIDTH_IN_BITS == TICK_TYPE_WIDTH_16_BITS )
  63:Middlewares/Third_Party/FreeRTOS/Source/portable/GCC/ARM_CM4F/portmacro.h ****         typedef uint16_t     TickType_t;
  64:Middlewares/Third_Party/FreeRTOS/Source/portable/GCC/ARM_CM4F/portmacro.h ****         #define portMAX_DELAY              ( TickType_t ) 0xffff
  65:Middlewares/Third_Party/FreeRTOS/Source/portable/GCC/ARM_CM4F/portmacro.h ****     #elif ( configTICK_TYPE_WIDTH_IN_BITS == TICK_TYPE_WIDTH_32_BITS )
  66:Middlewares/Third_Party/FreeRTOS/Source/portable/GCC/ARM_CM4F/portmacro.h ****         typedef uint32_t     TickType_t;
  67:Middlewares/Third_Party/FreeRTOS/Source/portable/GCC/ARM_CM4F/portmacro.h ****         #define portMAX_DELAY              ( TickType_t ) 0xffffffffUL
  68:Middlewares/Third_Party/FreeRTOS/Source/portable/GCC/ARM_CM4F/portmacro.h **** 
  69:Middlewares/Third_Party/FreeRTOS/Source/portable/GCC/ARM_CM4F/portmacro.h **** /* 32-bit tick type on a 32-bit architecture, so reads of the tick count do
  70:Middlewares/Third_Party/FreeRTOS/Source/portable/GCC/ARM_CM4F/portmacro.h ****  * not need to be guarded with a critical section. */
  71:Middlewares/Third_Party/FreeRTOS/Source/portable/GCC/ARM_CM4F/portmacro.h ****         #define portTICK_TYPE_IS_ATOMIC    1
  72:Middlewares/Third_Party/FreeRTOS/Source/portable/GCC/ARM_CM4F/portmacro.h ****     #elif ( configTICK_TYPE_WIDTH_IN_BITS == TICK_TYPE_WIDTH_64_BITS )
  73:Middlewares/Third_Party/FreeRTOS/Source/portable/GCC/ARM_CM4F/portmacro.h ****         typedef uint64_t     TickType_t;
  74:Middlewares/Third_Party/FreeRTOS/Source/portable/GCC/ARM_CM4F/portmacro.h ****         #define portMAX_DELAY              ( TickType_t ) 0xffffffffffffffffULL
  75:Middlewares/Third_Party/FreeRTOS/Source/portable/GCC/ARM_CM4F/portmacro.h ****     #else
  76:Middlewares/Third_Party/FreeRTOS/Source/portable/GCC/ARM_CM4F/portmacro.h ****         #error configTICK_TYPE_WIDTH_IN_BITS set to unsupported tick type width.
  77:Middlewares/Third_Party/FreeRTOS/Source/portable/GCC/ARM_CM4F/portmacro.h ****     #endif
  78:Middlewares/Third_Party/FreeRTOS/Source/portable/GCC/ARM_CM4F/portmacro.h **** /*-----------------------------------------------------------*/
  79:Middlewares/Third_Party/FreeRTOS/Source/portable/GCC/ARM_CM4F/portmacro.h **** 
  80:Middlewares/Third_Party/FreeRTOS/Source/portable/GCC/ARM_CM4F/portmacro.h **** /* Architecture specifics. */
  81:Middlewares/Third_Party/FreeRTOS/Source/portable/GCC/ARM_CM4F/portmacro.h ****     #define portSTACK_GROWTH      ( -1 )
  82:Middlewares/Third_Party/FreeRTOS/Source/portable/GCC/ARM_CM4F/portmacro.h ****     #define portTICK_PERIOD_MS    ( ( TickType_t ) 1000 / configTICK_RATE_HZ )
  83:Middlewares/Third_Party/FreeRTOS/Source/portable/GCC/ARM_CM4F/portmacro.h ****     #define portBYTE_ALIGNMENT    8
  84:Middlewares/Third_Party/FreeRTOS/Source/portable/GCC/ARM_CM4F/portmacro.h ****     #define portDONT_DISCARD      __attribute__( ( used ) )
  85:Middlewares/Third_Party/FreeRTOS/Source/portable/GCC/ARM_CM4F/portmacro.h **** /*-----------------------------------------------------------*/
  86:Middlewares/Third_Party/FreeRTOS/Source/portable/GCC/ARM_CM4F/portmacro.h **** 
  87:Middlewares/Third_Party/FreeRTOS/Source/portable/GCC/ARM_CM4F/portmacro.h **** /* Scheduler utilities. */
  88:Middlewares/Third_Party/FreeRTOS/Source/portable/GCC/ARM_CM4F/portmacro.h ****     #define portYIELD()                                 \
  89:Middlewares/Third_Party/FreeRTOS/Source/portable/GCC/ARM_CM4F/portmacro.h ****     {                                                   \
  90:Middlewares/Third_Party/FreeRTOS/Source/portable/GCC/ARM_CM4F/portmacro.h ****         /* Set a PendSV to request a context switch. */ \
  91:Middlewares/Third_Party/FreeRTOS/Source/portable/GCC/ARM_CM4F/portmacro.h ****         portNVIC_INT_CTRL_REG = portNVIC_PENDSVSET_BIT; \
  92:Middlewares/Third_Party/FreeRTOS/Source/portable/GCC/ARM_CM4F/portmacro.h ****                                                         \
  93:Middlewares/Third_Party/FreeRTOS/Source/portable/GCC/ARM_CM4F/portmacro.h ****         /* Barriers are normally not required but do ensure the code is completely \
  94:Middlewares/Third_Party/FreeRTOS/Source/portable/GCC/ARM_CM4F/portmacro.h ****          * within the specified behaviour for the architecture. */ \
  95:Middlewares/Third_Party/FreeRTOS/Source/portable/GCC/ARM_CM4F/portmacro.h ****         __asm volatile ( "dsb" ::: "memory" );                     \
  96:Middlewares/Third_Party/FreeRTOS/Source/portable/GCC/ARM_CM4F/portmacro.h ****         __asm volatile ( "isb" );                                  \
  97:Middlewares/Third_Party/FreeRTOS/Source/portable/GCC/ARM_CM4F/portmacro.h ****     }
  98:Middlewares/Third_Party/FreeRTOS/Source/portable/GCC/ARM_CM4F/portmacro.h **** 
  99:Middlewares/Third_Party/FreeRTOS/Source/portable/GCC/ARM_CM4F/portmacro.h ****     #define portNVIC_INT_CTRL_REG     ( *( ( volatile uint32_t * ) 0xe000ed04 ) )
 100:Middlewares/Third_Party/FreeRTOS/Source/portable/GCC/ARM_CM4F/portmacro.h ****     #define portNVIC_PENDSVSET_BIT    ( 1UL << 28UL )
 101:Middlewares/Third_Party/FreeRTOS/Source/portable/GCC/ARM_CM4F/portmacro.h ****     #define portEND_SWITCHING_ISR( xSwitchRequired )    do { if( xSwitchRequired != pdFALSE ) portY
 102:Middlewares/Third_Party/FreeRTOS/Source/portable/GCC/ARM_CM4F/portmacro.h ****     #define portYIELD_FROM_ISR( x )                     portEND_SWITCHING_ISR( x )
 103:Middlewares/Third_Party/FreeRTOS/Source/portable/GCC/ARM_CM4F/portmacro.h **** /*-----------------------------------------------------------*/
 104:Middlewares/Third_Party/FreeRTOS/Source/portable/GCC/ARM_CM4F/portmacro.h **** 
 105:Middlewares/Third_Party/FreeRTOS/Source/portable/GCC/ARM_CM4F/portmacro.h **** /* Critical section management. */
 106:Middlewares/Third_Party/FreeRTOS/Source/portable/GCC/ARM_CM4F/portmacro.h ****     extern void vPortEnterCritical( void );
 107:Middlewares/Third_Party/FreeRTOS/Source/portable/GCC/ARM_CM4F/portmacro.h ****     extern void vPortExitCritical( void );
 108:Middlewares/Third_Party/FreeRTOS/Source/portable/GCC/ARM_CM4F/portmacro.h ****     #define portSET_INTERRUPT_MASK_FROM_ISR()         ulPortRaiseBASEPRI()
 109:Middlewares/Third_Party/FreeRTOS/Source/portable/GCC/ARM_CM4F/portmacro.h ****     #define portCLEAR_INTERRUPT_MASK_FROM_ISR( x )    vPortSetBASEPRI( x )
 110:Middlewares/Third_Party/FreeRTOS/Source/portable/GCC/ARM_CM4F/portmacro.h ****     #define portDISABLE_INTERRUPTS()                  vPortRaiseBASEPRI()
 111:Middlewares/Third_Party/FreeRTOS/Source/portable/GCC/ARM_CM4F/portmacro.h ****     #define portENABLE_INTERRUPTS()                   vPortSetBASEPRI( 0 )
 112:Middlewares/Third_Party/FreeRTOS/Source/portable/GCC/ARM_CM4F/portmacro.h ****     #define portENTER_CRITICAL()                      vPortEnterCritical()
 113:Middlewares/Third_Party/FreeRTOS/Source/portable/GCC/ARM_CM4F/portmacro.h ****     #define portEXIT_CRITICAL()                       vPortExitCritical()
 114:Middlewares/Third_Party/FreeRTOS/Source/portable/GCC/ARM_CM4F/portmacro.h **** 
 115:Middlewares/Third_Party/FreeRTOS/Source/portable/GCC/ARM_CM4F/portmacro.h **** /*-----------------------------------------------------------*/
 116:Middlewares/Third_Party/FreeRTOS/Source/portable/GCC/ARM_CM4F/portmacro.h **** 
 117:Middlewares/Third_Party/FreeRTOS/Source/portable/GCC/ARM_CM4F/portmacro.h **** /* Task function macros as described on the FreeRTOS.org WEB site.  These are
 118:Middlewares/Third_Party/FreeRTOS/Source/portable/GCC/ARM_CM4F/portmacro.h ****  * not necessary for to use this port.  They are defined so the common demo files
ARM GAS  /tmp/ccBqI1NG.s 			page 8


 119:Middlewares/Third_Party/FreeRTOS/Source/portable/GCC/ARM_CM4F/portmacro.h ****  * (which build with all the ports) will build. */
 120:Middlewares/Third_Party/FreeRTOS/Source/portable/GCC/ARM_CM4F/portmacro.h ****     #define portTASK_FUNCTION_PROTO( vFunction, pvParameters )    void vFunction( void * pvParamete
 121:Middlewares/Third_Party/FreeRTOS/Source/portable/GCC/ARM_CM4F/portmacro.h ****     #define portTASK_FUNCTION( vFunction, pvParameters )          void vFunction( void * pvParamete
 122:Middlewares/Third_Party/FreeRTOS/Source/portable/GCC/ARM_CM4F/portmacro.h **** /*-----------------------------------------------------------*/
 123:Middlewares/Third_Party/FreeRTOS/Source/portable/GCC/ARM_CM4F/portmacro.h **** 
 124:Middlewares/Third_Party/FreeRTOS/Source/portable/GCC/ARM_CM4F/portmacro.h **** /* Tickless idle/low power functionality. */
 125:Middlewares/Third_Party/FreeRTOS/Source/portable/GCC/ARM_CM4F/portmacro.h ****     #ifndef portSUPPRESS_TICKS_AND_SLEEP
 126:Middlewares/Third_Party/FreeRTOS/Source/portable/GCC/ARM_CM4F/portmacro.h ****         extern void vPortSuppressTicksAndSleep( TickType_t xExpectedIdleTime );
 127:Middlewares/Third_Party/FreeRTOS/Source/portable/GCC/ARM_CM4F/portmacro.h ****         #define portSUPPRESS_TICKS_AND_SLEEP( xExpectedIdleTime )    vPortSuppressTicksAndSleep( xE
 128:Middlewares/Third_Party/FreeRTOS/Source/portable/GCC/ARM_CM4F/portmacro.h ****     #endif
 129:Middlewares/Third_Party/FreeRTOS/Source/portable/GCC/ARM_CM4F/portmacro.h **** /*-----------------------------------------------------------*/
 130:Middlewares/Third_Party/FreeRTOS/Source/portable/GCC/ARM_CM4F/portmacro.h **** 
 131:Middlewares/Third_Party/FreeRTOS/Source/portable/GCC/ARM_CM4F/portmacro.h **** /* Architecture specific optimisations. */
 132:Middlewares/Third_Party/FreeRTOS/Source/portable/GCC/ARM_CM4F/portmacro.h ****     #ifndef configUSE_PORT_OPTIMISED_TASK_SELECTION
 133:Middlewares/Third_Party/FreeRTOS/Source/portable/GCC/ARM_CM4F/portmacro.h ****         #define configUSE_PORT_OPTIMISED_TASK_SELECTION    1
 134:Middlewares/Third_Party/FreeRTOS/Source/portable/GCC/ARM_CM4F/portmacro.h ****     #endif
 135:Middlewares/Third_Party/FreeRTOS/Source/portable/GCC/ARM_CM4F/portmacro.h **** 
 136:Middlewares/Third_Party/FreeRTOS/Source/portable/GCC/ARM_CM4F/portmacro.h ****     #if configUSE_PORT_OPTIMISED_TASK_SELECTION == 1
 137:Middlewares/Third_Party/FreeRTOS/Source/portable/GCC/ARM_CM4F/portmacro.h **** 
 138:Middlewares/Third_Party/FreeRTOS/Source/portable/GCC/ARM_CM4F/portmacro.h **** /* Generic helper function. */
 139:Middlewares/Third_Party/FreeRTOS/Source/portable/GCC/ARM_CM4F/portmacro.h ****         __attribute__( ( always_inline ) ) static inline uint8_t ucPortCountLeadingZeros( uint32_t 
 140:Middlewares/Third_Party/FreeRTOS/Source/portable/GCC/ARM_CM4F/portmacro.h ****         {
 141:Middlewares/Third_Party/FreeRTOS/Source/portable/GCC/ARM_CM4F/portmacro.h ****             uint8_t ucReturn;
 142:Middlewares/Third_Party/FreeRTOS/Source/portable/GCC/ARM_CM4F/portmacro.h **** 
 143:Middlewares/Third_Party/FreeRTOS/Source/portable/GCC/ARM_CM4F/portmacro.h ****             __asm volatile ( "clz %0, %1" : "=r" ( ucReturn ) : "r" ( ulBitmap ) : "memory" );
 144:Middlewares/Third_Party/FreeRTOS/Source/portable/GCC/ARM_CM4F/portmacro.h **** 
 145:Middlewares/Third_Party/FreeRTOS/Source/portable/GCC/ARM_CM4F/portmacro.h ****             return ucReturn;
 146:Middlewares/Third_Party/FreeRTOS/Source/portable/GCC/ARM_CM4F/portmacro.h ****         }
 147:Middlewares/Third_Party/FreeRTOS/Source/portable/GCC/ARM_CM4F/portmacro.h **** 
 148:Middlewares/Third_Party/FreeRTOS/Source/portable/GCC/ARM_CM4F/portmacro.h **** /* Check the configuration. */
 149:Middlewares/Third_Party/FreeRTOS/Source/portable/GCC/ARM_CM4F/portmacro.h ****         #if ( configMAX_PRIORITIES > 32 )
 150:Middlewares/Third_Party/FreeRTOS/Source/portable/GCC/ARM_CM4F/portmacro.h ****             #error configUSE_PORT_OPTIMISED_TASK_SELECTION can only be set to 1 when configMAX_PRIO
 151:Middlewares/Third_Party/FreeRTOS/Source/portable/GCC/ARM_CM4F/portmacro.h ****         #endif
 152:Middlewares/Third_Party/FreeRTOS/Source/portable/GCC/ARM_CM4F/portmacro.h **** 
 153:Middlewares/Third_Party/FreeRTOS/Source/portable/GCC/ARM_CM4F/portmacro.h **** /* Store/clear the ready priorities in a bit map. */
 154:Middlewares/Third_Party/FreeRTOS/Source/portable/GCC/ARM_CM4F/portmacro.h ****         #define portRECORD_READY_PRIORITY( uxPriority, uxReadyPriorities )    ( uxReadyPriorities )
 155:Middlewares/Third_Party/FreeRTOS/Source/portable/GCC/ARM_CM4F/portmacro.h ****         #define portRESET_READY_PRIORITY( uxPriority, uxReadyPriorities )     ( uxReadyPriorities )
 156:Middlewares/Third_Party/FreeRTOS/Source/portable/GCC/ARM_CM4F/portmacro.h **** 
 157:Middlewares/Third_Party/FreeRTOS/Source/portable/GCC/ARM_CM4F/portmacro.h **** /*-----------------------------------------------------------*/
 158:Middlewares/Third_Party/FreeRTOS/Source/portable/GCC/ARM_CM4F/portmacro.h **** 
 159:Middlewares/Third_Party/FreeRTOS/Source/portable/GCC/ARM_CM4F/portmacro.h ****         #define portGET_HIGHEST_PRIORITY( uxTopPriority, uxReadyPriorities )    uxTopPriority = ( 3
 160:Middlewares/Third_Party/FreeRTOS/Source/portable/GCC/ARM_CM4F/portmacro.h **** 
 161:Middlewares/Third_Party/FreeRTOS/Source/portable/GCC/ARM_CM4F/portmacro.h ****     #endif /* configUSE_PORT_OPTIMISED_TASK_SELECTION */
 162:Middlewares/Third_Party/FreeRTOS/Source/portable/GCC/ARM_CM4F/portmacro.h **** 
 163:Middlewares/Third_Party/FreeRTOS/Source/portable/GCC/ARM_CM4F/portmacro.h **** /*-----------------------------------------------------------*/
 164:Middlewares/Third_Party/FreeRTOS/Source/portable/GCC/ARM_CM4F/portmacro.h **** 
 165:Middlewares/Third_Party/FreeRTOS/Source/portable/GCC/ARM_CM4F/portmacro.h ****     #ifdef configASSERT
 166:Middlewares/Third_Party/FreeRTOS/Source/portable/GCC/ARM_CM4F/portmacro.h ****         void vPortValidateInterruptPriority( void );
 167:Middlewares/Third_Party/FreeRTOS/Source/portable/GCC/ARM_CM4F/portmacro.h ****         #define portASSERT_IF_INTERRUPT_PRIORITY_INVALID()    vPortValidateInterruptPriority()
 168:Middlewares/Third_Party/FreeRTOS/Source/portable/GCC/ARM_CM4F/portmacro.h ****     #endif
 169:Middlewares/Third_Party/FreeRTOS/Source/portable/GCC/ARM_CM4F/portmacro.h **** 
 170:Middlewares/Third_Party/FreeRTOS/Source/portable/GCC/ARM_CM4F/portmacro.h **** /* portNOP() is not required by this port. */
 171:Middlewares/Third_Party/FreeRTOS/Source/portable/GCC/ARM_CM4F/portmacro.h ****     #define portNOP()
 172:Middlewares/Third_Party/FreeRTOS/Source/portable/GCC/ARM_CM4F/portmacro.h **** 
 173:Middlewares/Third_Party/FreeRTOS/Source/portable/GCC/ARM_CM4F/portmacro.h ****     #define portINLINE              __inline
 174:Middlewares/Third_Party/FreeRTOS/Source/portable/GCC/ARM_CM4F/portmacro.h **** 
 175:Middlewares/Third_Party/FreeRTOS/Source/portable/GCC/ARM_CM4F/portmacro.h ****     #ifndef portFORCE_INLINE
ARM GAS  /tmp/ccBqI1NG.s 			page 9


 176:Middlewares/Third_Party/FreeRTOS/Source/portable/GCC/ARM_CM4F/portmacro.h ****         #define portFORCE_INLINE    inline __attribute__( ( always_inline ) )
 177:Middlewares/Third_Party/FreeRTOS/Source/portable/GCC/ARM_CM4F/portmacro.h ****     #endif
 178:Middlewares/Third_Party/FreeRTOS/Source/portable/GCC/ARM_CM4F/portmacro.h **** 
 179:Middlewares/Third_Party/FreeRTOS/Source/portable/GCC/ARM_CM4F/portmacro.h ****     portFORCE_INLINE static BaseType_t xPortIsInsideInterrupt( void )
 180:Middlewares/Third_Party/FreeRTOS/Source/portable/GCC/ARM_CM4F/portmacro.h ****     {
 181:Middlewares/Third_Party/FreeRTOS/Source/portable/GCC/ARM_CM4F/portmacro.h ****         uint32_t ulCurrentInterrupt;
 182:Middlewares/Third_Party/FreeRTOS/Source/portable/GCC/ARM_CM4F/portmacro.h ****         BaseType_t xReturn;
 183:Middlewares/Third_Party/FreeRTOS/Source/portable/GCC/ARM_CM4F/portmacro.h **** 
 184:Middlewares/Third_Party/FreeRTOS/Source/portable/GCC/ARM_CM4F/portmacro.h ****         /* Obtain the number of the currently executing interrupt. */
 185:Middlewares/Third_Party/FreeRTOS/Source/portable/GCC/ARM_CM4F/portmacro.h ****         __asm volatile ( "mrs %0, ipsr" : "=r" ( ulCurrentInterrupt )::"memory" );
 186:Middlewares/Third_Party/FreeRTOS/Source/portable/GCC/ARM_CM4F/portmacro.h **** 
 187:Middlewares/Third_Party/FreeRTOS/Source/portable/GCC/ARM_CM4F/portmacro.h ****         if( ulCurrentInterrupt == 0 )
 188:Middlewares/Third_Party/FreeRTOS/Source/portable/GCC/ARM_CM4F/portmacro.h ****         {
 189:Middlewares/Third_Party/FreeRTOS/Source/portable/GCC/ARM_CM4F/portmacro.h ****             xReturn = pdFALSE;
 190:Middlewares/Third_Party/FreeRTOS/Source/portable/GCC/ARM_CM4F/portmacro.h ****         }
 191:Middlewares/Third_Party/FreeRTOS/Source/portable/GCC/ARM_CM4F/portmacro.h ****         else
 192:Middlewares/Third_Party/FreeRTOS/Source/portable/GCC/ARM_CM4F/portmacro.h ****         {
 193:Middlewares/Third_Party/FreeRTOS/Source/portable/GCC/ARM_CM4F/portmacro.h ****             xReturn = pdTRUE;
 194:Middlewares/Third_Party/FreeRTOS/Source/portable/GCC/ARM_CM4F/portmacro.h ****         }
 195:Middlewares/Third_Party/FreeRTOS/Source/portable/GCC/ARM_CM4F/portmacro.h **** 
 196:Middlewares/Third_Party/FreeRTOS/Source/portable/GCC/ARM_CM4F/portmacro.h ****         return xReturn;
 197:Middlewares/Third_Party/FreeRTOS/Source/portable/GCC/ARM_CM4F/portmacro.h ****     }
 198:Middlewares/Third_Party/FreeRTOS/Source/portable/GCC/ARM_CM4F/portmacro.h **** 
 199:Middlewares/Third_Party/FreeRTOS/Source/portable/GCC/ARM_CM4F/portmacro.h **** /*-----------------------------------------------------------*/
 200:Middlewares/Third_Party/FreeRTOS/Source/portable/GCC/ARM_CM4F/portmacro.h **** 
 201:Middlewares/Third_Party/FreeRTOS/Source/portable/GCC/ARM_CM4F/portmacro.h ****     portFORCE_INLINE static void vPortRaiseBASEPRI( void )
  48              		.loc 2 201 34 view .LVU5
  49              	.LBB34:
 202:Middlewares/Third_Party/FreeRTOS/Source/portable/GCC/ARM_CM4F/portmacro.h ****     {
 203:Middlewares/Third_Party/FreeRTOS/Source/portable/GCC/ARM_CM4F/portmacro.h ****         uint32_t ulNewBASEPRI;
  50              		.loc 2 203 9 view .LVU6
 204:Middlewares/Third_Party/FreeRTOS/Source/portable/GCC/ARM_CM4F/portmacro.h **** 
 205:Middlewares/Third_Party/FreeRTOS/Source/portable/GCC/ARM_CM4F/portmacro.h ****         __asm volatile
  51              		.loc 2 205 9 view .LVU7
  52              		.syntax unified
  53              	@ 205 "Middlewares/Third_Party/FreeRTOS/Source/portable/GCC/ARM_CM4F/portmacro.h" 1
  54 0010 4FF05003 		   mov r3, #80                                              
  55 0014 83F31188 	   msr basepri, r3                                         
  56 0018 BFF36F8F 	   isb                                                     
  57 001c BFF34F8F 	   dsb                                                     
  58              	
  59              	@ 0 "" 2
  60              		.thumb
  61              		.syntax unified
  62              	.L3:
  63              	.LBE34:
  64              	.LBE33:
  65              		.loc 1 235 5 discriminator 3 view .LVU8
  66              		.loc 1 235 5 discriminator 3 view .LVU9
  67 0020 FEE7     		b	.L3
  68              	.L2:
  69              		.loc 1 235 46 discriminator 2 view .LVU10
 236:Middlewares/Third_Party/FreeRTOS/Source/portable/GCC/ARM_CM4F/port.c ****     portDISABLE_INTERRUPTS();
  70              		.loc 1 236 5 view .LVU11
  71              	.LBB35:
  72              	.LBI35:
 201:Middlewares/Third_Party/FreeRTOS/Source/portable/GCC/ARM_CM4F/portmacro.h ****     {
ARM GAS  /tmp/ccBqI1NG.s 			page 10


  73              		.loc 2 201 34 view .LVU12
  74              	.LBB36:
 203:Middlewares/Third_Party/FreeRTOS/Source/portable/GCC/ARM_CM4F/portmacro.h **** 
  75              		.loc 2 203 9 view .LVU13
  76              		.loc 2 205 9 view .LVU14
  77              		.syntax unified
  78              	@ 205 "Middlewares/Third_Party/FreeRTOS/Source/portable/GCC/ARM_CM4F/portmacro.h" 1
  79 0022 4FF05003 		   mov r3, #80                                              
  80 0026 83F31188 	   msr basepri, r3                                         
  81 002a BFF36F8F 	   isb                                                     
  82 002e BFF34F8F 	   dsb                                                     
  83              	
  84              	@ 0 "" 2
  85              		.thumb
  86              		.syntax unified
  87              	.LBE36:
  88              	.LBE35:
 237:Middlewares/Third_Party/FreeRTOS/Source/portable/GCC/ARM_CM4F/port.c **** 
 238:Middlewares/Third_Party/FreeRTOS/Source/portable/GCC/ARM_CM4F/port.c ****     while( ulDummy == 0 )
  89              		.loc 1 238 5 view .LVU15
  90              	.L4:
 239:Middlewares/Third_Party/FreeRTOS/Source/portable/GCC/ARM_CM4F/port.c ****     {
 240:Middlewares/Third_Party/FreeRTOS/Source/portable/GCC/ARM_CM4F/port.c ****         /* This file calls prvTaskExitError() after the scheduler has been
 241:Middlewares/Third_Party/FreeRTOS/Source/portable/GCC/ARM_CM4F/port.c ****          * started to remove a compiler warning about the function being defined
 242:Middlewares/Third_Party/FreeRTOS/Source/portable/GCC/ARM_CM4F/port.c ****          * but never called.  ulDummy is used purely to quieten other warnings
 243:Middlewares/Third_Party/FreeRTOS/Source/portable/GCC/ARM_CM4F/port.c ****          * about code appearing after this function is called - making ulDummy
 244:Middlewares/Third_Party/FreeRTOS/Source/portable/GCC/ARM_CM4F/port.c ****          * volatile makes the compiler think the function could return and
 245:Middlewares/Third_Party/FreeRTOS/Source/portable/GCC/ARM_CM4F/port.c ****          * therefore not output an 'unreachable code' warning for code that appears
 246:Middlewares/Third_Party/FreeRTOS/Source/portable/GCC/ARM_CM4F/port.c ****          * after it. */
 247:Middlewares/Third_Party/FreeRTOS/Source/portable/GCC/ARM_CM4F/port.c ****     }
  91              		.loc 1 247 5 view .LVU16
 238:Middlewares/Third_Party/FreeRTOS/Source/portable/GCC/ARM_CM4F/port.c ****     {
  92              		.loc 1 238 20 discriminator 1 view .LVU17
  93 0032 019B     		ldr	r3, [sp, #4]
  94 0034 002B     		cmp	r3, #0
  95 0036 FCD0     		beq	.L4
 248:Middlewares/Third_Party/FreeRTOS/Source/portable/GCC/ARM_CM4F/port.c **** }
  96              		.loc 1 248 1 is_stmt 0 view .LVU18
  97 0038 02B0     		add	sp, sp, #8
  98              	.LCFI1:
  99              		.cfi_def_cfa_offset 0
 100              		@ sp needed
 101 003a 7047     		bx	lr
 102              	.L7:
 103              		.align	2
 104              	.L6:
 105 003c 00000000 		.word	uxCriticalNesting
 106              		.cfi_endproc
 107              	.LFE5:
 109              		.section	.text.prvPortStartFirstTask,"ax",%progbits
 110              		.align	1
 111              		.syntax unified
 112              		.thumb
 113              		.thumb_func
 115              	prvPortStartFirstTask:
 116              	.LFB7:
 249:Middlewares/Third_Party/FreeRTOS/Source/portable/GCC/ARM_CM4F/port.c **** /*-----------------------------------------------------------*/
ARM GAS  /tmp/ccBqI1NG.s 			page 11


 250:Middlewares/Third_Party/FreeRTOS/Source/portable/GCC/ARM_CM4F/port.c **** 
 251:Middlewares/Third_Party/FreeRTOS/Source/portable/GCC/ARM_CM4F/port.c **** void vPortSVCHandler( void )
 252:Middlewares/Third_Party/FreeRTOS/Source/portable/GCC/ARM_CM4F/port.c **** {
 253:Middlewares/Third_Party/FreeRTOS/Source/portable/GCC/ARM_CM4F/port.c ****     __asm volatile (
 254:Middlewares/Third_Party/FreeRTOS/Source/portable/GCC/ARM_CM4F/port.c ****         "   ldr r3, pxCurrentTCBConst2      \n" /* Restore the context. */
 255:Middlewares/Third_Party/FreeRTOS/Source/portable/GCC/ARM_CM4F/port.c ****         "   ldr r1, [r3]                    \n" /* Use pxCurrentTCBConst to get the pxCurrentTCB ad
 256:Middlewares/Third_Party/FreeRTOS/Source/portable/GCC/ARM_CM4F/port.c ****         "   ldr r0, [r1]                    \n" /* The first item in pxCurrentTCB is the task top o
 257:Middlewares/Third_Party/FreeRTOS/Source/portable/GCC/ARM_CM4F/port.c ****         "   ldmia r0!, {r4-r11, r14}        \n" /* Pop the registers that are not automatically sav
 258:Middlewares/Third_Party/FreeRTOS/Source/portable/GCC/ARM_CM4F/port.c ****         "   msr psp, r0                     \n" /* Restore the task stack pointer. */
 259:Middlewares/Third_Party/FreeRTOS/Source/portable/GCC/ARM_CM4F/port.c ****         "   isb                             \n"
 260:Middlewares/Third_Party/FreeRTOS/Source/portable/GCC/ARM_CM4F/port.c ****         "   mov r0, #0                      \n"
 261:Middlewares/Third_Party/FreeRTOS/Source/portable/GCC/ARM_CM4F/port.c ****         "   msr basepri, r0                 \n"
 262:Middlewares/Third_Party/FreeRTOS/Source/portable/GCC/ARM_CM4F/port.c ****         "   bx r14                          \n"
 263:Middlewares/Third_Party/FreeRTOS/Source/portable/GCC/ARM_CM4F/port.c ****         "                                   \n"
 264:Middlewares/Third_Party/FreeRTOS/Source/portable/GCC/ARM_CM4F/port.c ****         "   .align 4                        \n"
 265:Middlewares/Third_Party/FreeRTOS/Source/portable/GCC/ARM_CM4F/port.c ****         "pxCurrentTCBConst2: .word pxCurrentTCB             \n"
 266:Middlewares/Third_Party/FreeRTOS/Source/portable/GCC/ARM_CM4F/port.c ****         );
 267:Middlewares/Third_Party/FreeRTOS/Source/portable/GCC/ARM_CM4F/port.c **** }
 268:Middlewares/Third_Party/FreeRTOS/Source/portable/GCC/ARM_CM4F/port.c **** /*-----------------------------------------------------------*/
 269:Middlewares/Third_Party/FreeRTOS/Source/portable/GCC/ARM_CM4F/port.c **** 
 270:Middlewares/Third_Party/FreeRTOS/Source/portable/GCC/ARM_CM4F/port.c **** static void prvPortStartFirstTask( void )
 271:Middlewares/Third_Party/FreeRTOS/Source/portable/GCC/ARM_CM4F/port.c **** {
 117              		.loc 1 271 1 is_stmt 1 view -0
 118              		.cfi_startproc
 119              		@ Naked Function: prologue and epilogue provided by programmer.
 120              		@ args = 0, pretend = 0, frame = 0
 121              		@ frame_needed = 0, uses_anonymous_args = 0
 272:Middlewares/Third_Party/FreeRTOS/Source/portable/GCC/ARM_CM4F/port.c ****     /* Start the first task.  This also clears the bit that indicates the FPU is
 273:Middlewares/Third_Party/FreeRTOS/Source/portable/GCC/ARM_CM4F/port.c ****      * in use in case the FPU was used before the scheduler was started - which
 274:Middlewares/Third_Party/FreeRTOS/Source/portable/GCC/ARM_CM4F/port.c ****      * would otherwise result in the unnecessary leaving of space in the SVC stack
 275:Middlewares/Third_Party/FreeRTOS/Source/portable/GCC/ARM_CM4F/port.c ****      * for lazy saving of FPU registers. */
 276:Middlewares/Third_Party/FreeRTOS/Source/portable/GCC/ARM_CM4F/port.c ****     __asm volatile (
 122              		.loc 1 276 5 view .LVU20
 123              		.syntax unified
 124              	@ 276 "Middlewares/Third_Party/FreeRTOS/Source/portable/GCC/ARM_CM4F/port.c" 1
 125 0000 0848     		 ldr r0, =0xE000ED08   
 126 0002 0068     	 ldr r0, [r0]          
 127 0004 0068     	 ldr r0, [r0]          
 128 0006 80F30888 	 msr msp, r0           
 129 000a 4FF00000 	 mov r0, #0            
 130 000e 80F31488 	 msr control, r0       
 131 0012 62B6     	 cpsie i               
 132 0014 61B6     	 cpsie f               
 133 0016 BFF34F8F 	 dsb                   
 134 001a BFF36F8F 	 isb                   
 135 001e 00DF     	 svc 0                 
 136 0020 00BF     	 nop                   
 137 0022 000008ED 	 .ltorg                
 137      00E0
 138              	
 139              	@ 0 "" 2
 277:Middlewares/Third_Party/FreeRTOS/Source/portable/GCC/ARM_CM4F/port.c ****         " ldr r0, =0xE000ED08   \n" /* Use the NVIC offset register to locate the stack. */
 278:Middlewares/Third_Party/FreeRTOS/Source/portable/GCC/ARM_CM4F/port.c ****         " ldr r0, [r0]          \n"
 279:Middlewares/Third_Party/FreeRTOS/Source/portable/GCC/ARM_CM4F/port.c ****         " ldr r0, [r0]          \n"
 280:Middlewares/Third_Party/FreeRTOS/Source/portable/GCC/ARM_CM4F/port.c ****         " msr msp, r0           \n" /* Set the msp back to the start of the stack. */
 281:Middlewares/Third_Party/FreeRTOS/Source/portable/GCC/ARM_CM4F/port.c ****         " mov r0, #0            \n" /* Clear the bit that indicates the FPU is in use, see comment 
 282:Middlewares/Third_Party/FreeRTOS/Source/portable/GCC/ARM_CM4F/port.c ****         " msr control, r0       \n"
ARM GAS  /tmp/ccBqI1NG.s 			page 12


 283:Middlewares/Third_Party/FreeRTOS/Source/portable/GCC/ARM_CM4F/port.c ****         " cpsie i               \n" /* Globally enable interrupts. */
 284:Middlewares/Third_Party/FreeRTOS/Source/portable/GCC/ARM_CM4F/port.c ****         " cpsie f               \n"
 285:Middlewares/Third_Party/FreeRTOS/Source/portable/GCC/ARM_CM4F/port.c ****         " dsb                   \n"
 286:Middlewares/Third_Party/FreeRTOS/Source/portable/GCC/ARM_CM4F/port.c ****         " isb                   \n"
 287:Middlewares/Third_Party/FreeRTOS/Source/portable/GCC/ARM_CM4F/port.c ****         " svc 0                 \n" /* System call to start first task. */
 288:Middlewares/Third_Party/FreeRTOS/Source/portable/GCC/ARM_CM4F/port.c ****         " nop                   \n"
 289:Middlewares/Third_Party/FreeRTOS/Source/portable/GCC/ARM_CM4F/port.c ****         " .ltorg                \n"
 290:Middlewares/Third_Party/FreeRTOS/Source/portable/GCC/ARM_CM4F/port.c ****         );
 291:Middlewares/Third_Party/FreeRTOS/Source/portable/GCC/ARM_CM4F/port.c **** }
 140              		.loc 1 291 1 is_stmt 0 view .LVU21
 141              		.thumb
 142              		.syntax unified
 143              		.cfi_endproc
 144              	.LFE7:
 146              		.section	.text.vPortEnableVFP,"ax",%progbits
 147              		.align	1
 148              		.syntax unified
 149              		.thumb
 150              		.thumb_func
 152              	vPortEnableVFP:
 153              	.LFB15:
 292:Middlewares/Third_Party/FreeRTOS/Source/portable/GCC/ARM_CM4F/port.c **** /*-----------------------------------------------------------*/
 293:Middlewares/Third_Party/FreeRTOS/Source/portable/GCC/ARM_CM4F/port.c **** 
 294:Middlewares/Third_Party/FreeRTOS/Source/portable/GCC/ARM_CM4F/port.c **** /*
 295:Middlewares/Third_Party/FreeRTOS/Source/portable/GCC/ARM_CM4F/port.c ****  * See header file for description.
 296:Middlewares/Third_Party/FreeRTOS/Source/portable/GCC/ARM_CM4F/port.c ****  */
 297:Middlewares/Third_Party/FreeRTOS/Source/portable/GCC/ARM_CM4F/port.c **** BaseType_t xPortStartScheduler( void )
 298:Middlewares/Third_Party/FreeRTOS/Source/portable/GCC/ARM_CM4F/port.c **** {
 299:Middlewares/Third_Party/FreeRTOS/Source/portable/GCC/ARM_CM4F/port.c ****     /* This port can be used on all revisions of the Cortex-M7 core other than
 300:Middlewares/Third_Party/FreeRTOS/Source/portable/GCC/ARM_CM4F/port.c ****      * the r0p1 parts.  r0p1 parts should use the port from the
 301:Middlewares/Third_Party/FreeRTOS/Source/portable/GCC/ARM_CM4F/port.c ****      * /source/portable/GCC/ARM_CM7/r0p1 directory. */
 302:Middlewares/Third_Party/FreeRTOS/Source/portable/GCC/ARM_CM4F/port.c ****     configASSERT( portCPUID != portCORTEX_M7_r0p1_ID );
 303:Middlewares/Third_Party/FreeRTOS/Source/portable/GCC/ARM_CM4F/port.c ****     configASSERT( portCPUID != portCORTEX_M7_r0p0_ID );
 304:Middlewares/Third_Party/FreeRTOS/Source/portable/GCC/ARM_CM4F/port.c **** 
 305:Middlewares/Third_Party/FreeRTOS/Source/portable/GCC/ARM_CM4F/port.c ****     #if ( configASSERT_DEFINED == 1 )
 306:Middlewares/Third_Party/FreeRTOS/Source/portable/GCC/ARM_CM4F/port.c ****     {
 307:Middlewares/Third_Party/FreeRTOS/Source/portable/GCC/ARM_CM4F/port.c ****         volatile uint8_t ucOriginalPriority;
 308:Middlewares/Third_Party/FreeRTOS/Source/portable/GCC/ARM_CM4F/port.c ****         volatile uint32_t ulImplementedPrioBits = 0;
 309:Middlewares/Third_Party/FreeRTOS/Source/portable/GCC/ARM_CM4F/port.c ****         volatile uint8_t * const pucFirstUserPriorityRegister = ( volatile uint8_t * const ) ( port
 310:Middlewares/Third_Party/FreeRTOS/Source/portable/GCC/ARM_CM4F/port.c ****         volatile uint8_t ucMaxPriorityValue;
 311:Middlewares/Third_Party/FreeRTOS/Source/portable/GCC/ARM_CM4F/port.c **** 
 312:Middlewares/Third_Party/FreeRTOS/Source/portable/GCC/ARM_CM4F/port.c ****         /* Determine the maximum priority from which ISR safe FreeRTOS API
 313:Middlewares/Third_Party/FreeRTOS/Source/portable/GCC/ARM_CM4F/port.c ****          * functions can be called.  ISR safe functions are those that end in
 314:Middlewares/Third_Party/FreeRTOS/Source/portable/GCC/ARM_CM4F/port.c ****          * "FromISR".  FreeRTOS maintains separate thread and ISR API functions to
 315:Middlewares/Third_Party/FreeRTOS/Source/portable/GCC/ARM_CM4F/port.c ****          * ensure interrupt entry is as fast and simple as possible.
 316:Middlewares/Third_Party/FreeRTOS/Source/portable/GCC/ARM_CM4F/port.c ****          *
 317:Middlewares/Third_Party/FreeRTOS/Source/portable/GCC/ARM_CM4F/port.c ****          * Save the interrupt priority value that is about to be clobbered. */
 318:Middlewares/Third_Party/FreeRTOS/Source/portable/GCC/ARM_CM4F/port.c ****         ucOriginalPriority = *pucFirstUserPriorityRegister;
 319:Middlewares/Third_Party/FreeRTOS/Source/portable/GCC/ARM_CM4F/port.c **** 
 320:Middlewares/Third_Party/FreeRTOS/Source/portable/GCC/ARM_CM4F/port.c ****         /* Determine the number of priority bits available.  First write to all
 321:Middlewares/Third_Party/FreeRTOS/Source/portable/GCC/ARM_CM4F/port.c ****          * possible bits. */
 322:Middlewares/Third_Party/FreeRTOS/Source/portable/GCC/ARM_CM4F/port.c ****         *pucFirstUserPriorityRegister = portMAX_8_BIT_VALUE;
 323:Middlewares/Third_Party/FreeRTOS/Source/portable/GCC/ARM_CM4F/port.c **** 
 324:Middlewares/Third_Party/FreeRTOS/Source/portable/GCC/ARM_CM4F/port.c ****         /* Read the value back to see how many bits stuck. */
 325:Middlewares/Third_Party/FreeRTOS/Source/portable/GCC/ARM_CM4F/port.c ****         ucMaxPriorityValue = *pucFirstUserPriorityRegister;
 326:Middlewares/Third_Party/FreeRTOS/Source/portable/GCC/ARM_CM4F/port.c **** 
 327:Middlewares/Third_Party/FreeRTOS/Source/portable/GCC/ARM_CM4F/port.c ****         /* Use the same mask on the maximum system call priority. */
ARM GAS  /tmp/ccBqI1NG.s 			page 13


 328:Middlewares/Third_Party/FreeRTOS/Source/portable/GCC/ARM_CM4F/port.c ****         ucMaxSysCallPriority = configMAX_SYSCALL_INTERRUPT_PRIORITY & ucMaxPriorityValue;
 329:Middlewares/Third_Party/FreeRTOS/Source/portable/GCC/ARM_CM4F/port.c **** 
 330:Middlewares/Third_Party/FreeRTOS/Source/portable/GCC/ARM_CM4F/port.c ****         /* Check that the maximum system call priority is nonzero after
 331:Middlewares/Third_Party/FreeRTOS/Source/portable/GCC/ARM_CM4F/port.c ****          * accounting for the number of priority bits supported by the
 332:Middlewares/Third_Party/FreeRTOS/Source/portable/GCC/ARM_CM4F/port.c ****          * hardware. A priority of 0 is invalid because setting the BASEPRI
 333:Middlewares/Third_Party/FreeRTOS/Source/portable/GCC/ARM_CM4F/port.c ****          * register to 0 unmasks all interrupts, and interrupts with priority 0
 334:Middlewares/Third_Party/FreeRTOS/Source/portable/GCC/ARM_CM4F/port.c ****          * cannot be masked using BASEPRI.
 335:Middlewares/Third_Party/FreeRTOS/Source/portable/GCC/ARM_CM4F/port.c ****          * See https://www.FreeRTOS.org/RTOS-Cortex-M3-M4.html */
 336:Middlewares/Third_Party/FreeRTOS/Source/portable/GCC/ARM_CM4F/port.c ****         configASSERT( ucMaxSysCallPriority );
 337:Middlewares/Third_Party/FreeRTOS/Source/portable/GCC/ARM_CM4F/port.c **** 
 338:Middlewares/Third_Party/FreeRTOS/Source/portable/GCC/ARM_CM4F/port.c ****         /* Check that the bits not implemented in hardware are zero in
 339:Middlewares/Third_Party/FreeRTOS/Source/portable/GCC/ARM_CM4F/port.c ****          * configMAX_SYSCALL_INTERRUPT_PRIORITY. */
 340:Middlewares/Third_Party/FreeRTOS/Source/portable/GCC/ARM_CM4F/port.c ****         configASSERT( ( configMAX_SYSCALL_INTERRUPT_PRIORITY & ( ~ucMaxPriorityValue ) ) == 0U );
 341:Middlewares/Third_Party/FreeRTOS/Source/portable/GCC/ARM_CM4F/port.c **** 
 342:Middlewares/Third_Party/FreeRTOS/Source/portable/GCC/ARM_CM4F/port.c ****         /* Calculate the maximum acceptable priority group value for the number
 343:Middlewares/Third_Party/FreeRTOS/Source/portable/GCC/ARM_CM4F/port.c ****          * of bits read back. */
 344:Middlewares/Third_Party/FreeRTOS/Source/portable/GCC/ARM_CM4F/port.c **** 
 345:Middlewares/Third_Party/FreeRTOS/Source/portable/GCC/ARM_CM4F/port.c ****         while( ( ucMaxPriorityValue & portTOP_BIT_OF_BYTE ) == portTOP_BIT_OF_BYTE )
 346:Middlewares/Third_Party/FreeRTOS/Source/portable/GCC/ARM_CM4F/port.c ****         {
 347:Middlewares/Third_Party/FreeRTOS/Source/portable/GCC/ARM_CM4F/port.c ****             ulImplementedPrioBits++;
 348:Middlewares/Third_Party/FreeRTOS/Source/portable/GCC/ARM_CM4F/port.c ****             ucMaxPriorityValue <<= ( uint8_t ) 0x01;
 349:Middlewares/Third_Party/FreeRTOS/Source/portable/GCC/ARM_CM4F/port.c ****         }
 350:Middlewares/Third_Party/FreeRTOS/Source/portable/GCC/ARM_CM4F/port.c **** 
 351:Middlewares/Third_Party/FreeRTOS/Source/portable/GCC/ARM_CM4F/port.c ****         if( ulImplementedPrioBits == 8 )
 352:Middlewares/Third_Party/FreeRTOS/Source/portable/GCC/ARM_CM4F/port.c ****         {
 353:Middlewares/Third_Party/FreeRTOS/Source/portable/GCC/ARM_CM4F/port.c ****             /* When the hardware implements 8 priority bits, there is no way for
 354:Middlewares/Third_Party/FreeRTOS/Source/portable/GCC/ARM_CM4F/port.c ****             * the software to configure PRIGROUP to not have sub-priorities. As
 355:Middlewares/Third_Party/FreeRTOS/Source/portable/GCC/ARM_CM4F/port.c ****             * a result, the least significant bit is always used for sub-priority
 356:Middlewares/Third_Party/FreeRTOS/Source/portable/GCC/ARM_CM4F/port.c ****             * and there are 128 preemption priorities and 2 sub-priorities.
 357:Middlewares/Third_Party/FreeRTOS/Source/portable/GCC/ARM_CM4F/port.c ****             *
 358:Middlewares/Third_Party/FreeRTOS/Source/portable/GCC/ARM_CM4F/port.c ****             * This may cause some confusion in some cases - for example, if
 359:Middlewares/Third_Party/FreeRTOS/Source/portable/GCC/ARM_CM4F/port.c ****             * configMAX_SYSCALL_INTERRUPT_PRIORITY is set to 5, both 5 and 4
 360:Middlewares/Third_Party/FreeRTOS/Source/portable/GCC/ARM_CM4F/port.c ****             * priority interrupts will be masked in Critical Sections as those
 361:Middlewares/Third_Party/FreeRTOS/Source/portable/GCC/ARM_CM4F/port.c ****             * are at the same preemption priority. This may appear confusing as
 362:Middlewares/Third_Party/FreeRTOS/Source/portable/GCC/ARM_CM4F/port.c ****             * 4 is higher (numerically lower) priority than
 363:Middlewares/Third_Party/FreeRTOS/Source/portable/GCC/ARM_CM4F/port.c ****             * configMAX_SYSCALL_INTERRUPT_PRIORITY and therefore, should not
 364:Middlewares/Third_Party/FreeRTOS/Source/portable/GCC/ARM_CM4F/port.c ****             * have been masked. Instead, if we set configMAX_SYSCALL_INTERRUPT_PRIORITY
 365:Middlewares/Third_Party/FreeRTOS/Source/portable/GCC/ARM_CM4F/port.c ****             * to 4, this confusion does not happen and the behaviour remains the same.
 366:Middlewares/Third_Party/FreeRTOS/Source/portable/GCC/ARM_CM4F/port.c ****             *
 367:Middlewares/Third_Party/FreeRTOS/Source/portable/GCC/ARM_CM4F/port.c ****             * The following assert ensures that the sub-priority bit in the
 368:Middlewares/Third_Party/FreeRTOS/Source/portable/GCC/ARM_CM4F/port.c ****             * configMAX_SYSCALL_INTERRUPT_PRIORITY is clear to avoid the above mentioned
 369:Middlewares/Third_Party/FreeRTOS/Source/portable/GCC/ARM_CM4F/port.c ****             * confusion. */
 370:Middlewares/Third_Party/FreeRTOS/Source/portable/GCC/ARM_CM4F/port.c ****             configASSERT( ( configMAX_SYSCALL_INTERRUPT_PRIORITY & 0x1U ) == 0U );
 371:Middlewares/Third_Party/FreeRTOS/Source/portable/GCC/ARM_CM4F/port.c ****             ulMaxPRIGROUPValue = 0;
 372:Middlewares/Third_Party/FreeRTOS/Source/portable/GCC/ARM_CM4F/port.c ****         }
 373:Middlewares/Third_Party/FreeRTOS/Source/portable/GCC/ARM_CM4F/port.c ****         else
 374:Middlewares/Third_Party/FreeRTOS/Source/portable/GCC/ARM_CM4F/port.c ****         {
 375:Middlewares/Third_Party/FreeRTOS/Source/portable/GCC/ARM_CM4F/port.c ****             ulMaxPRIGROUPValue = portMAX_PRIGROUP_BITS - ulImplementedPrioBits;
 376:Middlewares/Third_Party/FreeRTOS/Source/portable/GCC/ARM_CM4F/port.c ****         }
 377:Middlewares/Third_Party/FreeRTOS/Source/portable/GCC/ARM_CM4F/port.c **** 
 378:Middlewares/Third_Party/FreeRTOS/Source/portable/GCC/ARM_CM4F/port.c ****         /* Shift the priority group value back to its position within the AIRCR
 379:Middlewares/Third_Party/FreeRTOS/Source/portable/GCC/ARM_CM4F/port.c ****          * register. */
 380:Middlewares/Third_Party/FreeRTOS/Source/portable/GCC/ARM_CM4F/port.c ****         ulMaxPRIGROUPValue <<= portPRIGROUP_SHIFT;
 381:Middlewares/Third_Party/FreeRTOS/Source/portable/GCC/ARM_CM4F/port.c ****         ulMaxPRIGROUPValue &= portPRIORITY_GROUP_MASK;
 382:Middlewares/Third_Party/FreeRTOS/Source/portable/GCC/ARM_CM4F/port.c **** 
 383:Middlewares/Third_Party/FreeRTOS/Source/portable/GCC/ARM_CM4F/port.c ****         /* Restore the clobbered interrupt priority register to its original
 384:Middlewares/Third_Party/FreeRTOS/Source/portable/GCC/ARM_CM4F/port.c ****          * value. */
ARM GAS  /tmp/ccBqI1NG.s 			page 14


 385:Middlewares/Third_Party/FreeRTOS/Source/portable/GCC/ARM_CM4F/port.c ****         *pucFirstUserPriorityRegister = ucOriginalPriority;
 386:Middlewares/Third_Party/FreeRTOS/Source/portable/GCC/ARM_CM4F/port.c ****     }
 387:Middlewares/Third_Party/FreeRTOS/Source/portable/GCC/ARM_CM4F/port.c ****     #endif /* configASSERT_DEFINED */
 388:Middlewares/Third_Party/FreeRTOS/Source/portable/GCC/ARM_CM4F/port.c **** 
 389:Middlewares/Third_Party/FreeRTOS/Source/portable/GCC/ARM_CM4F/port.c ****     /* Make PendSV and SysTick the lowest priority interrupts. */
 390:Middlewares/Third_Party/FreeRTOS/Source/portable/GCC/ARM_CM4F/port.c ****     portNVIC_SHPR3_REG |= portNVIC_PENDSV_PRI;
 391:Middlewares/Third_Party/FreeRTOS/Source/portable/GCC/ARM_CM4F/port.c ****     portNVIC_SHPR3_REG |= portNVIC_SYSTICK_PRI;
 392:Middlewares/Third_Party/FreeRTOS/Source/portable/GCC/ARM_CM4F/port.c **** 
 393:Middlewares/Third_Party/FreeRTOS/Source/portable/GCC/ARM_CM4F/port.c ****     /* Start the timer that generates the tick ISR.  Interrupts are disabled
 394:Middlewares/Third_Party/FreeRTOS/Source/portable/GCC/ARM_CM4F/port.c ****      * here already. */
 395:Middlewares/Third_Party/FreeRTOS/Source/portable/GCC/ARM_CM4F/port.c ****     vPortSetupTimerInterrupt();
 396:Middlewares/Third_Party/FreeRTOS/Source/portable/GCC/ARM_CM4F/port.c **** 
 397:Middlewares/Third_Party/FreeRTOS/Source/portable/GCC/ARM_CM4F/port.c ****     /* Initialise the critical nesting count ready for the first task. */
 398:Middlewares/Third_Party/FreeRTOS/Source/portable/GCC/ARM_CM4F/port.c ****     uxCriticalNesting = 0;
 399:Middlewares/Third_Party/FreeRTOS/Source/portable/GCC/ARM_CM4F/port.c **** 
 400:Middlewares/Third_Party/FreeRTOS/Source/portable/GCC/ARM_CM4F/port.c ****     /* Ensure the VFP is enabled - it should be anyway. */
 401:Middlewares/Third_Party/FreeRTOS/Source/portable/GCC/ARM_CM4F/port.c ****     vPortEnableVFP();
 402:Middlewares/Third_Party/FreeRTOS/Source/portable/GCC/ARM_CM4F/port.c **** 
 403:Middlewares/Third_Party/FreeRTOS/Source/portable/GCC/ARM_CM4F/port.c ****     /* Lazy save always. */
 404:Middlewares/Third_Party/FreeRTOS/Source/portable/GCC/ARM_CM4F/port.c ****     *( portFPCCR ) |= portASPEN_AND_LSPEN_BITS;
 405:Middlewares/Third_Party/FreeRTOS/Source/portable/GCC/ARM_CM4F/port.c **** 
 406:Middlewares/Third_Party/FreeRTOS/Source/portable/GCC/ARM_CM4F/port.c ****     /* Start the first task. */
 407:Middlewares/Third_Party/FreeRTOS/Source/portable/GCC/ARM_CM4F/port.c ****     prvPortStartFirstTask();
 408:Middlewares/Third_Party/FreeRTOS/Source/portable/GCC/ARM_CM4F/port.c **** 
 409:Middlewares/Third_Party/FreeRTOS/Source/portable/GCC/ARM_CM4F/port.c ****     /* Should never get here as the tasks will now be executing!  Call the task
 410:Middlewares/Third_Party/FreeRTOS/Source/portable/GCC/ARM_CM4F/port.c ****      * exit error function to prevent compiler warnings about a static function
 411:Middlewares/Third_Party/FreeRTOS/Source/portable/GCC/ARM_CM4F/port.c ****      * not being called in the case that the application writer overrides this
 412:Middlewares/Third_Party/FreeRTOS/Source/portable/GCC/ARM_CM4F/port.c ****      * functionality by defining configTASK_RETURN_ADDRESS.  Call
 413:Middlewares/Third_Party/FreeRTOS/Source/portable/GCC/ARM_CM4F/port.c ****      * vTaskSwitchContext() so link time optimisation does not remove the
 414:Middlewares/Third_Party/FreeRTOS/Source/portable/GCC/ARM_CM4F/port.c ****      * symbol. */
 415:Middlewares/Third_Party/FreeRTOS/Source/portable/GCC/ARM_CM4F/port.c ****     vTaskSwitchContext();
 416:Middlewares/Third_Party/FreeRTOS/Source/portable/GCC/ARM_CM4F/port.c ****     prvTaskExitError();
 417:Middlewares/Third_Party/FreeRTOS/Source/portable/GCC/ARM_CM4F/port.c **** 
 418:Middlewares/Third_Party/FreeRTOS/Source/portable/GCC/ARM_CM4F/port.c ****     /* Should not get here! */
 419:Middlewares/Third_Party/FreeRTOS/Source/portable/GCC/ARM_CM4F/port.c ****     return 0;
 420:Middlewares/Third_Party/FreeRTOS/Source/portable/GCC/ARM_CM4F/port.c **** }
 421:Middlewares/Third_Party/FreeRTOS/Source/portable/GCC/ARM_CM4F/port.c **** /*-----------------------------------------------------------*/
 422:Middlewares/Third_Party/FreeRTOS/Source/portable/GCC/ARM_CM4F/port.c **** 
 423:Middlewares/Third_Party/FreeRTOS/Source/portable/GCC/ARM_CM4F/port.c **** void vPortEndScheduler( void )
 424:Middlewares/Third_Party/FreeRTOS/Source/portable/GCC/ARM_CM4F/port.c **** {
 425:Middlewares/Third_Party/FreeRTOS/Source/portable/GCC/ARM_CM4F/port.c ****     /* Not implemented in ports where there is nothing to return to.
 426:Middlewares/Third_Party/FreeRTOS/Source/portable/GCC/ARM_CM4F/port.c ****      * Artificially force an assert. */
 427:Middlewares/Third_Party/FreeRTOS/Source/portable/GCC/ARM_CM4F/port.c ****     configASSERT( uxCriticalNesting == 1000UL );
 428:Middlewares/Third_Party/FreeRTOS/Source/portable/GCC/ARM_CM4F/port.c **** }
 429:Middlewares/Third_Party/FreeRTOS/Source/portable/GCC/ARM_CM4F/port.c **** /*-----------------------------------------------------------*/
 430:Middlewares/Third_Party/FreeRTOS/Source/portable/GCC/ARM_CM4F/port.c **** 
 431:Middlewares/Third_Party/FreeRTOS/Source/portable/GCC/ARM_CM4F/port.c **** void vPortEnterCritical( void )
 432:Middlewares/Third_Party/FreeRTOS/Source/portable/GCC/ARM_CM4F/port.c **** {
 433:Middlewares/Third_Party/FreeRTOS/Source/portable/GCC/ARM_CM4F/port.c ****     portDISABLE_INTERRUPTS();
 434:Middlewares/Third_Party/FreeRTOS/Source/portable/GCC/ARM_CM4F/port.c ****     uxCriticalNesting++;
 435:Middlewares/Third_Party/FreeRTOS/Source/portable/GCC/ARM_CM4F/port.c **** 
 436:Middlewares/Third_Party/FreeRTOS/Source/portable/GCC/ARM_CM4F/port.c ****     /* This is not the interrupt safe version of the enter critical function so
 437:Middlewares/Third_Party/FreeRTOS/Source/portable/GCC/ARM_CM4F/port.c ****      * assert() if it is being called from an interrupt context.  Only API
 438:Middlewares/Third_Party/FreeRTOS/Source/portable/GCC/ARM_CM4F/port.c ****      * functions that end in "FromISR" can be used in an interrupt.  Only assert if
 439:Middlewares/Third_Party/FreeRTOS/Source/portable/GCC/ARM_CM4F/port.c ****      * the critical nesting count is 1 to protect against recursive calls if the
 440:Middlewares/Third_Party/FreeRTOS/Source/portable/GCC/ARM_CM4F/port.c ****      * assert function also uses a critical section. */
 441:Middlewares/Third_Party/FreeRTOS/Source/portable/GCC/ARM_CM4F/port.c ****     if( uxCriticalNesting == 1 )
ARM GAS  /tmp/ccBqI1NG.s 			page 15


 442:Middlewares/Third_Party/FreeRTOS/Source/portable/GCC/ARM_CM4F/port.c ****     {
 443:Middlewares/Third_Party/FreeRTOS/Source/portable/GCC/ARM_CM4F/port.c ****         configASSERT( ( portNVIC_INT_CTRL_REG & portVECTACTIVE_MASK ) == 0 );
 444:Middlewares/Third_Party/FreeRTOS/Source/portable/GCC/ARM_CM4F/port.c ****     }
 445:Middlewares/Third_Party/FreeRTOS/Source/portable/GCC/ARM_CM4F/port.c **** }
 446:Middlewares/Third_Party/FreeRTOS/Source/portable/GCC/ARM_CM4F/port.c **** /*-----------------------------------------------------------*/
 447:Middlewares/Third_Party/FreeRTOS/Source/portable/GCC/ARM_CM4F/port.c **** 
 448:Middlewares/Third_Party/FreeRTOS/Source/portable/GCC/ARM_CM4F/port.c **** void vPortExitCritical( void )
 449:Middlewares/Third_Party/FreeRTOS/Source/portable/GCC/ARM_CM4F/port.c **** {
 450:Middlewares/Third_Party/FreeRTOS/Source/portable/GCC/ARM_CM4F/port.c ****     configASSERT( uxCriticalNesting );
 451:Middlewares/Third_Party/FreeRTOS/Source/portable/GCC/ARM_CM4F/port.c ****     uxCriticalNesting--;
 452:Middlewares/Third_Party/FreeRTOS/Source/portable/GCC/ARM_CM4F/port.c **** 
 453:Middlewares/Third_Party/FreeRTOS/Source/portable/GCC/ARM_CM4F/port.c ****     if( uxCriticalNesting == 0 )
 454:Middlewares/Third_Party/FreeRTOS/Source/portable/GCC/ARM_CM4F/port.c ****     {
 455:Middlewares/Third_Party/FreeRTOS/Source/portable/GCC/ARM_CM4F/port.c ****         portENABLE_INTERRUPTS();
 456:Middlewares/Third_Party/FreeRTOS/Source/portable/GCC/ARM_CM4F/port.c ****     }
 457:Middlewares/Third_Party/FreeRTOS/Source/portable/GCC/ARM_CM4F/port.c **** }
 458:Middlewares/Third_Party/FreeRTOS/Source/portable/GCC/ARM_CM4F/port.c **** /*-----------------------------------------------------------*/
 459:Middlewares/Third_Party/FreeRTOS/Source/portable/GCC/ARM_CM4F/port.c **** 
 460:Middlewares/Third_Party/FreeRTOS/Source/portable/GCC/ARM_CM4F/port.c **** void xPortPendSVHandler( void )
 461:Middlewares/Third_Party/FreeRTOS/Source/portable/GCC/ARM_CM4F/port.c **** {
 462:Middlewares/Third_Party/FreeRTOS/Source/portable/GCC/ARM_CM4F/port.c ****     /* This is a naked function. */
 463:Middlewares/Third_Party/FreeRTOS/Source/portable/GCC/ARM_CM4F/port.c **** 
 464:Middlewares/Third_Party/FreeRTOS/Source/portable/GCC/ARM_CM4F/port.c ****     __asm volatile
 465:Middlewares/Third_Party/FreeRTOS/Source/portable/GCC/ARM_CM4F/port.c ****     (
 466:Middlewares/Third_Party/FreeRTOS/Source/portable/GCC/ARM_CM4F/port.c ****         "   mrs r0, psp                         \n"
 467:Middlewares/Third_Party/FreeRTOS/Source/portable/GCC/ARM_CM4F/port.c ****         "   isb                                 \n"
 468:Middlewares/Third_Party/FreeRTOS/Source/portable/GCC/ARM_CM4F/port.c ****         "                                       \n"
 469:Middlewares/Third_Party/FreeRTOS/Source/portable/GCC/ARM_CM4F/port.c ****         "   ldr r3, pxCurrentTCBConst           \n" /* Get the location of the current TCB. */
 470:Middlewares/Third_Party/FreeRTOS/Source/portable/GCC/ARM_CM4F/port.c ****         "   ldr r2, [r3]                        \n"
 471:Middlewares/Third_Party/FreeRTOS/Source/portable/GCC/ARM_CM4F/port.c ****         "                                       \n"
 472:Middlewares/Third_Party/FreeRTOS/Source/portable/GCC/ARM_CM4F/port.c ****         "   tst r14, #0x10                      \n" /* Is the task using the FPU context?  If so, p
 473:Middlewares/Third_Party/FreeRTOS/Source/portable/GCC/ARM_CM4F/port.c ****         "   it eq                               \n"
 474:Middlewares/Third_Party/FreeRTOS/Source/portable/GCC/ARM_CM4F/port.c ****         "   vstmdbeq r0!, {s16-s31}             \n"
 475:Middlewares/Third_Party/FreeRTOS/Source/portable/GCC/ARM_CM4F/port.c ****         "                                       \n"
 476:Middlewares/Third_Party/FreeRTOS/Source/portable/GCC/ARM_CM4F/port.c ****         "   stmdb r0!, {r4-r11, r14}            \n" /* Save the core registers. */
 477:Middlewares/Third_Party/FreeRTOS/Source/portable/GCC/ARM_CM4F/port.c ****         "   str r0, [r2]                        \n" /* Save the new top of stack into the first mem
 478:Middlewares/Third_Party/FreeRTOS/Source/portable/GCC/ARM_CM4F/port.c ****         "                                       \n"
 479:Middlewares/Third_Party/FreeRTOS/Source/portable/GCC/ARM_CM4F/port.c ****         "   stmdb sp!, {r0, r3}                 \n"
 480:Middlewares/Third_Party/FreeRTOS/Source/portable/GCC/ARM_CM4F/port.c ****         "   mov r0, %0                          \n"
 481:Middlewares/Third_Party/FreeRTOS/Source/portable/GCC/ARM_CM4F/port.c ****         "   msr basepri, r0                     \n"
 482:Middlewares/Third_Party/FreeRTOS/Source/portable/GCC/ARM_CM4F/port.c ****         "   dsb                                 \n"
 483:Middlewares/Third_Party/FreeRTOS/Source/portable/GCC/ARM_CM4F/port.c ****         "   isb                                 \n"
 484:Middlewares/Third_Party/FreeRTOS/Source/portable/GCC/ARM_CM4F/port.c ****         "   bl vTaskSwitchContext               \n"
 485:Middlewares/Third_Party/FreeRTOS/Source/portable/GCC/ARM_CM4F/port.c ****         "   mov r0, #0                          \n"
 486:Middlewares/Third_Party/FreeRTOS/Source/portable/GCC/ARM_CM4F/port.c ****         "   msr basepri, r0                     \n"
 487:Middlewares/Third_Party/FreeRTOS/Source/portable/GCC/ARM_CM4F/port.c ****         "   ldmia sp!, {r0, r3}                 \n"
 488:Middlewares/Third_Party/FreeRTOS/Source/portable/GCC/ARM_CM4F/port.c ****         "                                       \n"
 489:Middlewares/Third_Party/FreeRTOS/Source/portable/GCC/ARM_CM4F/port.c ****         "   ldr r1, [r3]                        \n" /* The first item in pxCurrentTCB is the task t
 490:Middlewares/Third_Party/FreeRTOS/Source/portable/GCC/ARM_CM4F/port.c ****         "   ldr r0, [r1]                        \n"
 491:Middlewares/Third_Party/FreeRTOS/Source/portable/GCC/ARM_CM4F/port.c ****         "                                       \n"
 492:Middlewares/Third_Party/FreeRTOS/Source/portable/GCC/ARM_CM4F/port.c ****         "   ldmia r0!, {r4-r11, r14}            \n" /* Pop the core registers. */
 493:Middlewares/Third_Party/FreeRTOS/Source/portable/GCC/ARM_CM4F/port.c ****         "                                       \n"
 494:Middlewares/Third_Party/FreeRTOS/Source/portable/GCC/ARM_CM4F/port.c ****         "   tst r14, #0x10                      \n" /* Is the task using the FPU context?  If so, p
 495:Middlewares/Third_Party/FreeRTOS/Source/portable/GCC/ARM_CM4F/port.c ****         "   it eq                               \n"
 496:Middlewares/Third_Party/FreeRTOS/Source/portable/GCC/ARM_CM4F/port.c ****         "   vldmiaeq r0!, {s16-s31}             \n"
 497:Middlewares/Third_Party/FreeRTOS/Source/portable/GCC/ARM_CM4F/port.c ****         "                                       \n"
 498:Middlewares/Third_Party/FreeRTOS/Source/portable/GCC/ARM_CM4F/port.c ****         "   msr psp, r0                         \n"
ARM GAS  /tmp/ccBqI1NG.s 			page 16


 499:Middlewares/Third_Party/FreeRTOS/Source/portable/GCC/ARM_CM4F/port.c ****         "   isb                                 \n"
 500:Middlewares/Third_Party/FreeRTOS/Source/portable/GCC/ARM_CM4F/port.c ****         "                                       \n"
 501:Middlewares/Third_Party/FreeRTOS/Source/portable/GCC/ARM_CM4F/port.c ****         #ifdef WORKAROUND_PMU_CM001 /* XMC4000 specific errata workaround. */
 502:Middlewares/Third_Party/FreeRTOS/Source/portable/GCC/ARM_CM4F/port.c ****             #if WORKAROUND_PMU_CM001 == 1
 503:Middlewares/Third_Party/FreeRTOS/Source/portable/GCC/ARM_CM4F/port.c ****                 "           push { r14 }                \n"
 504:Middlewares/Third_Party/FreeRTOS/Source/portable/GCC/ARM_CM4F/port.c ****                 "           pop { pc }                  \n"
 505:Middlewares/Third_Party/FreeRTOS/Source/portable/GCC/ARM_CM4F/port.c ****             #endif
 506:Middlewares/Third_Party/FreeRTOS/Source/portable/GCC/ARM_CM4F/port.c ****         #endif
 507:Middlewares/Third_Party/FreeRTOS/Source/portable/GCC/ARM_CM4F/port.c ****         "                                       \n"
 508:Middlewares/Third_Party/FreeRTOS/Source/portable/GCC/ARM_CM4F/port.c ****         "   bx r14                              \n"
 509:Middlewares/Third_Party/FreeRTOS/Source/portable/GCC/ARM_CM4F/port.c ****         "                                       \n"
 510:Middlewares/Third_Party/FreeRTOS/Source/portable/GCC/ARM_CM4F/port.c ****         "   .align 4                            \n"
 511:Middlewares/Third_Party/FreeRTOS/Source/portable/GCC/ARM_CM4F/port.c ****         "pxCurrentTCBConst: .word pxCurrentTCB  \n"
 512:Middlewares/Third_Party/FreeRTOS/Source/portable/GCC/ARM_CM4F/port.c ****         ::"i" ( configMAX_SYSCALL_INTERRUPT_PRIORITY )
 513:Middlewares/Third_Party/FreeRTOS/Source/portable/GCC/ARM_CM4F/port.c ****     );
 514:Middlewares/Third_Party/FreeRTOS/Source/portable/GCC/ARM_CM4F/port.c **** }
 515:Middlewares/Third_Party/FreeRTOS/Source/portable/GCC/ARM_CM4F/port.c **** /*-----------------------------------------------------------*/
 516:Middlewares/Third_Party/FreeRTOS/Source/portable/GCC/ARM_CM4F/port.c **** 
 517:Middlewares/Third_Party/FreeRTOS/Source/portable/GCC/ARM_CM4F/port.c **** void xPortSysTickHandler( void )
 518:Middlewares/Third_Party/FreeRTOS/Source/portable/GCC/ARM_CM4F/port.c **** {
 519:Middlewares/Third_Party/FreeRTOS/Source/portable/GCC/ARM_CM4F/port.c ****     /* The SysTick runs at the lowest interrupt priority, so when this interrupt
 520:Middlewares/Third_Party/FreeRTOS/Source/portable/GCC/ARM_CM4F/port.c ****      * executes all interrupts must be unmasked.  There is therefore no need to
 521:Middlewares/Third_Party/FreeRTOS/Source/portable/GCC/ARM_CM4F/port.c ****      * save and then restore the interrupt mask value as its value is already
 522:Middlewares/Third_Party/FreeRTOS/Source/portable/GCC/ARM_CM4F/port.c ****      * known. */
 523:Middlewares/Third_Party/FreeRTOS/Source/portable/GCC/ARM_CM4F/port.c ****     portDISABLE_INTERRUPTS();
 524:Middlewares/Third_Party/FreeRTOS/Source/portable/GCC/ARM_CM4F/port.c ****     {
 525:Middlewares/Third_Party/FreeRTOS/Source/portable/GCC/ARM_CM4F/port.c ****         /* Increment the RTOS tick. */
 526:Middlewares/Third_Party/FreeRTOS/Source/portable/GCC/ARM_CM4F/port.c ****         if( xTaskIncrementTick() != pdFALSE )
 527:Middlewares/Third_Party/FreeRTOS/Source/portable/GCC/ARM_CM4F/port.c ****         {
 528:Middlewares/Third_Party/FreeRTOS/Source/portable/GCC/ARM_CM4F/port.c ****             /* A context switch is required.  Context switching is performed in
 529:Middlewares/Third_Party/FreeRTOS/Source/portable/GCC/ARM_CM4F/port.c ****              * the PendSV interrupt.  Pend the PendSV interrupt. */
 530:Middlewares/Third_Party/FreeRTOS/Source/portable/GCC/ARM_CM4F/port.c ****             portNVIC_INT_CTRL_REG = portNVIC_PENDSVSET_BIT;
 531:Middlewares/Third_Party/FreeRTOS/Source/portable/GCC/ARM_CM4F/port.c ****         }
 532:Middlewares/Third_Party/FreeRTOS/Source/portable/GCC/ARM_CM4F/port.c ****     }
 533:Middlewares/Third_Party/FreeRTOS/Source/portable/GCC/ARM_CM4F/port.c ****     portENABLE_INTERRUPTS();
 534:Middlewares/Third_Party/FreeRTOS/Source/portable/GCC/ARM_CM4F/port.c **** }
 535:Middlewares/Third_Party/FreeRTOS/Source/portable/GCC/ARM_CM4F/port.c **** /*-----------------------------------------------------------*/
 536:Middlewares/Third_Party/FreeRTOS/Source/portable/GCC/ARM_CM4F/port.c **** 
 537:Middlewares/Third_Party/FreeRTOS/Source/portable/GCC/ARM_CM4F/port.c **** #if ( configUSE_TICKLESS_IDLE == 1 )
 538:Middlewares/Third_Party/FreeRTOS/Source/portable/GCC/ARM_CM4F/port.c **** 
 539:Middlewares/Third_Party/FreeRTOS/Source/portable/GCC/ARM_CM4F/port.c ****     __attribute__( ( weak ) ) void vPortSuppressTicksAndSleep( TickType_t xExpectedIdleTime )
 540:Middlewares/Third_Party/FreeRTOS/Source/portable/GCC/ARM_CM4F/port.c ****     {
 541:Middlewares/Third_Party/FreeRTOS/Source/portable/GCC/ARM_CM4F/port.c ****         uint32_t ulReloadValue, ulCompleteTickPeriods, ulCompletedSysTickDecrements, ulSysTickDecre
 542:Middlewares/Third_Party/FreeRTOS/Source/portable/GCC/ARM_CM4F/port.c ****         TickType_t xModifiableIdleTime;
 543:Middlewares/Third_Party/FreeRTOS/Source/portable/GCC/ARM_CM4F/port.c **** 
 544:Middlewares/Third_Party/FreeRTOS/Source/portable/GCC/ARM_CM4F/port.c ****         /* Make sure the SysTick reload value does not overflow the counter. */
 545:Middlewares/Third_Party/FreeRTOS/Source/portable/GCC/ARM_CM4F/port.c ****         if( xExpectedIdleTime > xMaximumPossibleSuppressedTicks )
 546:Middlewares/Third_Party/FreeRTOS/Source/portable/GCC/ARM_CM4F/port.c ****         {
 547:Middlewares/Third_Party/FreeRTOS/Source/portable/GCC/ARM_CM4F/port.c ****             xExpectedIdleTime = xMaximumPossibleSuppressedTicks;
 548:Middlewares/Third_Party/FreeRTOS/Source/portable/GCC/ARM_CM4F/port.c ****         }
 549:Middlewares/Third_Party/FreeRTOS/Source/portable/GCC/ARM_CM4F/port.c **** 
 550:Middlewares/Third_Party/FreeRTOS/Source/portable/GCC/ARM_CM4F/port.c ****         /* Enter a critical section but don't use the taskENTER_CRITICAL()
 551:Middlewares/Third_Party/FreeRTOS/Source/portable/GCC/ARM_CM4F/port.c ****          * method as that will mask interrupts that should exit sleep mode. */
 552:Middlewares/Third_Party/FreeRTOS/Source/portable/GCC/ARM_CM4F/port.c ****         __asm volatile ( "cpsid i" ::: "memory" );
 553:Middlewares/Third_Party/FreeRTOS/Source/portable/GCC/ARM_CM4F/port.c ****         __asm volatile ( "dsb" );
 554:Middlewares/Third_Party/FreeRTOS/Source/portable/GCC/ARM_CM4F/port.c ****         __asm volatile ( "isb" );
 555:Middlewares/Third_Party/FreeRTOS/Source/portable/GCC/ARM_CM4F/port.c **** 
ARM GAS  /tmp/ccBqI1NG.s 			page 17


 556:Middlewares/Third_Party/FreeRTOS/Source/portable/GCC/ARM_CM4F/port.c ****         /* If a context switch is pending or a task is waiting for the scheduler
 557:Middlewares/Third_Party/FreeRTOS/Source/portable/GCC/ARM_CM4F/port.c ****          * to be unsuspended then abandon the low power entry. */
 558:Middlewares/Third_Party/FreeRTOS/Source/portable/GCC/ARM_CM4F/port.c ****         if( eTaskConfirmSleepModeStatus() == eAbortSleep )
 559:Middlewares/Third_Party/FreeRTOS/Source/portable/GCC/ARM_CM4F/port.c ****         {
 560:Middlewares/Third_Party/FreeRTOS/Source/portable/GCC/ARM_CM4F/port.c ****             /* Re-enable interrupts - see comments above the cpsid instruction
 561:Middlewares/Third_Party/FreeRTOS/Source/portable/GCC/ARM_CM4F/port.c ****              * above. */
 562:Middlewares/Third_Party/FreeRTOS/Source/portable/GCC/ARM_CM4F/port.c ****             __asm volatile ( "cpsie i" ::: "memory" );
 563:Middlewares/Third_Party/FreeRTOS/Source/portable/GCC/ARM_CM4F/port.c ****         }
 564:Middlewares/Third_Party/FreeRTOS/Source/portable/GCC/ARM_CM4F/port.c ****         else
 565:Middlewares/Third_Party/FreeRTOS/Source/portable/GCC/ARM_CM4F/port.c ****         {
 566:Middlewares/Third_Party/FreeRTOS/Source/portable/GCC/ARM_CM4F/port.c ****             /* Stop the SysTick momentarily.  The time the SysTick is stopped for
 567:Middlewares/Third_Party/FreeRTOS/Source/portable/GCC/ARM_CM4F/port.c ****              * is accounted for as best it can be, but using the tickless mode will
 568:Middlewares/Third_Party/FreeRTOS/Source/portable/GCC/ARM_CM4F/port.c ****              * inevitably result in some tiny drift of the time maintained by the
 569:Middlewares/Third_Party/FreeRTOS/Source/portable/GCC/ARM_CM4F/port.c ****              * kernel with respect to calendar time. */
 570:Middlewares/Third_Party/FreeRTOS/Source/portable/GCC/ARM_CM4F/port.c ****             portNVIC_SYSTICK_CTRL_REG = ( portNVIC_SYSTICK_CLK_BIT_CONFIG | portNVIC_SYSTICK_INT_BI
 571:Middlewares/Third_Party/FreeRTOS/Source/portable/GCC/ARM_CM4F/port.c **** 
 572:Middlewares/Third_Party/FreeRTOS/Source/portable/GCC/ARM_CM4F/port.c ****             /* Use the SysTick current-value register to determine the number of
 573:Middlewares/Third_Party/FreeRTOS/Source/portable/GCC/ARM_CM4F/port.c ****              * SysTick decrements remaining until the next tick interrupt.  If the
 574:Middlewares/Third_Party/FreeRTOS/Source/portable/GCC/ARM_CM4F/port.c ****              * current-value register is zero, then there are actually
 575:Middlewares/Third_Party/FreeRTOS/Source/portable/GCC/ARM_CM4F/port.c ****              * ulTimerCountsForOneTick decrements remaining, not zero, because the
 576:Middlewares/Third_Party/FreeRTOS/Source/portable/GCC/ARM_CM4F/port.c ****              * SysTick requests the interrupt when decrementing from 1 to 0. */
 577:Middlewares/Third_Party/FreeRTOS/Source/portable/GCC/ARM_CM4F/port.c ****             ulSysTickDecrementsLeft = portNVIC_SYSTICK_CURRENT_VALUE_REG;
 578:Middlewares/Third_Party/FreeRTOS/Source/portable/GCC/ARM_CM4F/port.c **** 
 579:Middlewares/Third_Party/FreeRTOS/Source/portable/GCC/ARM_CM4F/port.c ****             if( ulSysTickDecrementsLeft == 0 )
 580:Middlewares/Third_Party/FreeRTOS/Source/portable/GCC/ARM_CM4F/port.c ****             {
 581:Middlewares/Third_Party/FreeRTOS/Source/portable/GCC/ARM_CM4F/port.c ****                 ulSysTickDecrementsLeft = ulTimerCountsForOneTick;
 582:Middlewares/Third_Party/FreeRTOS/Source/portable/GCC/ARM_CM4F/port.c ****             }
 583:Middlewares/Third_Party/FreeRTOS/Source/portable/GCC/ARM_CM4F/port.c **** 
 584:Middlewares/Third_Party/FreeRTOS/Source/portable/GCC/ARM_CM4F/port.c ****             /* Calculate the reload value required to wait xExpectedIdleTime
 585:Middlewares/Third_Party/FreeRTOS/Source/portable/GCC/ARM_CM4F/port.c ****              * tick periods.  -1 is used because this code normally executes part
 586:Middlewares/Third_Party/FreeRTOS/Source/portable/GCC/ARM_CM4F/port.c ****              * way through the first tick period.  But if the SysTick IRQ is now
 587:Middlewares/Third_Party/FreeRTOS/Source/portable/GCC/ARM_CM4F/port.c ****              * pending, then clear the IRQ, suppressing the first tick, and correct
 588:Middlewares/Third_Party/FreeRTOS/Source/portable/GCC/ARM_CM4F/port.c ****              * the reload value to reflect that the second tick period is already
 589:Middlewares/Third_Party/FreeRTOS/Source/portable/GCC/ARM_CM4F/port.c ****              * underway.  The expected idle time is always at least two ticks. */
 590:Middlewares/Third_Party/FreeRTOS/Source/portable/GCC/ARM_CM4F/port.c ****             ulReloadValue = ulSysTickDecrementsLeft + ( ulTimerCountsForOneTick * ( xExpectedIdleTi
 591:Middlewares/Third_Party/FreeRTOS/Source/portable/GCC/ARM_CM4F/port.c **** 
 592:Middlewares/Third_Party/FreeRTOS/Source/portable/GCC/ARM_CM4F/port.c ****             if( ( portNVIC_INT_CTRL_REG & portNVIC_PEND_SYSTICK_SET_BIT ) != 0 )
 593:Middlewares/Third_Party/FreeRTOS/Source/portable/GCC/ARM_CM4F/port.c ****             {
 594:Middlewares/Third_Party/FreeRTOS/Source/portable/GCC/ARM_CM4F/port.c ****                 portNVIC_INT_CTRL_REG = portNVIC_PEND_SYSTICK_CLEAR_BIT;
 595:Middlewares/Third_Party/FreeRTOS/Source/portable/GCC/ARM_CM4F/port.c ****                 ulReloadValue -= ulTimerCountsForOneTick;
 596:Middlewares/Third_Party/FreeRTOS/Source/portable/GCC/ARM_CM4F/port.c ****             }
 597:Middlewares/Third_Party/FreeRTOS/Source/portable/GCC/ARM_CM4F/port.c **** 
 598:Middlewares/Third_Party/FreeRTOS/Source/portable/GCC/ARM_CM4F/port.c ****             if( ulReloadValue > ulStoppedTimerCompensation )
 599:Middlewares/Third_Party/FreeRTOS/Source/portable/GCC/ARM_CM4F/port.c ****             {
 600:Middlewares/Third_Party/FreeRTOS/Source/portable/GCC/ARM_CM4F/port.c ****                 ulReloadValue -= ulStoppedTimerCompensation;
 601:Middlewares/Third_Party/FreeRTOS/Source/portable/GCC/ARM_CM4F/port.c ****             }
 602:Middlewares/Third_Party/FreeRTOS/Source/portable/GCC/ARM_CM4F/port.c **** 
 603:Middlewares/Third_Party/FreeRTOS/Source/portable/GCC/ARM_CM4F/port.c ****             /* Set the new reload value. */
 604:Middlewares/Third_Party/FreeRTOS/Source/portable/GCC/ARM_CM4F/port.c ****             portNVIC_SYSTICK_LOAD_REG = ulReloadValue;
 605:Middlewares/Third_Party/FreeRTOS/Source/portable/GCC/ARM_CM4F/port.c **** 
 606:Middlewares/Third_Party/FreeRTOS/Source/portable/GCC/ARM_CM4F/port.c ****             /* Clear the SysTick count flag and set the count value back to
 607:Middlewares/Third_Party/FreeRTOS/Source/portable/GCC/ARM_CM4F/port.c ****              * zero. */
 608:Middlewares/Third_Party/FreeRTOS/Source/portable/GCC/ARM_CM4F/port.c ****             portNVIC_SYSTICK_CURRENT_VALUE_REG = 0UL;
 609:Middlewares/Third_Party/FreeRTOS/Source/portable/GCC/ARM_CM4F/port.c **** 
 610:Middlewares/Third_Party/FreeRTOS/Source/portable/GCC/ARM_CM4F/port.c ****             /* Restart SysTick. */
 611:Middlewares/Third_Party/FreeRTOS/Source/portable/GCC/ARM_CM4F/port.c ****             portNVIC_SYSTICK_CTRL_REG |= portNVIC_SYSTICK_ENABLE_BIT;
 612:Middlewares/Third_Party/FreeRTOS/Source/portable/GCC/ARM_CM4F/port.c **** 
ARM GAS  /tmp/ccBqI1NG.s 			page 18


 613:Middlewares/Third_Party/FreeRTOS/Source/portable/GCC/ARM_CM4F/port.c ****             /* Sleep until something happens.  configPRE_SLEEP_PROCESSING() can
 614:Middlewares/Third_Party/FreeRTOS/Source/portable/GCC/ARM_CM4F/port.c ****              * set its parameter to 0 to indicate that its implementation contains
 615:Middlewares/Third_Party/FreeRTOS/Source/portable/GCC/ARM_CM4F/port.c ****              * its own wait for interrupt or wait for event instruction, and so wfi
 616:Middlewares/Third_Party/FreeRTOS/Source/portable/GCC/ARM_CM4F/port.c ****              * should not be executed again.  However, the original expected idle
 617:Middlewares/Third_Party/FreeRTOS/Source/portable/GCC/ARM_CM4F/port.c ****              * time variable must remain unmodified, so a copy is taken. */
 618:Middlewares/Third_Party/FreeRTOS/Source/portable/GCC/ARM_CM4F/port.c ****             xModifiableIdleTime = xExpectedIdleTime;
 619:Middlewares/Third_Party/FreeRTOS/Source/portable/GCC/ARM_CM4F/port.c ****             configPRE_SLEEP_PROCESSING( xModifiableIdleTime );
 620:Middlewares/Third_Party/FreeRTOS/Source/portable/GCC/ARM_CM4F/port.c **** 
 621:Middlewares/Third_Party/FreeRTOS/Source/portable/GCC/ARM_CM4F/port.c ****             if( xModifiableIdleTime > 0 )
 622:Middlewares/Third_Party/FreeRTOS/Source/portable/GCC/ARM_CM4F/port.c ****             {
 623:Middlewares/Third_Party/FreeRTOS/Source/portable/GCC/ARM_CM4F/port.c ****                 __asm volatile ( "dsb" ::: "memory" );
 624:Middlewares/Third_Party/FreeRTOS/Source/portable/GCC/ARM_CM4F/port.c ****                 __asm volatile ( "wfi" );
 625:Middlewares/Third_Party/FreeRTOS/Source/portable/GCC/ARM_CM4F/port.c ****                 __asm volatile ( "isb" );
 626:Middlewares/Third_Party/FreeRTOS/Source/portable/GCC/ARM_CM4F/port.c ****             }
 627:Middlewares/Third_Party/FreeRTOS/Source/portable/GCC/ARM_CM4F/port.c **** 
 628:Middlewares/Third_Party/FreeRTOS/Source/portable/GCC/ARM_CM4F/port.c ****             configPOST_SLEEP_PROCESSING( xExpectedIdleTime );
 629:Middlewares/Third_Party/FreeRTOS/Source/portable/GCC/ARM_CM4F/port.c **** 
 630:Middlewares/Third_Party/FreeRTOS/Source/portable/GCC/ARM_CM4F/port.c ****             /* Re-enable interrupts to allow the interrupt that brought the MCU
 631:Middlewares/Third_Party/FreeRTOS/Source/portable/GCC/ARM_CM4F/port.c ****              * out of sleep mode to execute immediately.  See comments above
 632:Middlewares/Third_Party/FreeRTOS/Source/portable/GCC/ARM_CM4F/port.c ****              * the cpsid instruction above. */
 633:Middlewares/Third_Party/FreeRTOS/Source/portable/GCC/ARM_CM4F/port.c ****             __asm volatile ( "cpsie i" ::: "memory" );
 634:Middlewares/Third_Party/FreeRTOS/Source/portable/GCC/ARM_CM4F/port.c ****             __asm volatile ( "dsb" );
 635:Middlewares/Third_Party/FreeRTOS/Source/portable/GCC/ARM_CM4F/port.c ****             __asm volatile ( "isb" );
 636:Middlewares/Third_Party/FreeRTOS/Source/portable/GCC/ARM_CM4F/port.c **** 
 637:Middlewares/Third_Party/FreeRTOS/Source/portable/GCC/ARM_CM4F/port.c ****             /* Disable interrupts again because the clock is about to be stopped
 638:Middlewares/Third_Party/FreeRTOS/Source/portable/GCC/ARM_CM4F/port.c ****              * and interrupts that execute while the clock is stopped will increase
 639:Middlewares/Third_Party/FreeRTOS/Source/portable/GCC/ARM_CM4F/port.c ****              * any slippage between the time maintained by the RTOS and calendar
 640:Middlewares/Third_Party/FreeRTOS/Source/portable/GCC/ARM_CM4F/port.c ****              * time. */
 641:Middlewares/Third_Party/FreeRTOS/Source/portable/GCC/ARM_CM4F/port.c ****             __asm volatile ( "cpsid i" ::: "memory" );
 642:Middlewares/Third_Party/FreeRTOS/Source/portable/GCC/ARM_CM4F/port.c ****             __asm volatile ( "dsb" );
 643:Middlewares/Third_Party/FreeRTOS/Source/portable/GCC/ARM_CM4F/port.c ****             __asm volatile ( "isb" );
 644:Middlewares/Third_Party/FreeRTOS/Source/portable/GCC/ARM_CM4F/port.c **** 
 645:Middlewares/Third_Party/FreeRTOS/Source/portable/GCC/ARM_CM4F/port.c ****             /* Disable the SysTick clock without reading the
 646:Middlewares/Third_Party/FreeRTOS/Source/portable/GCC/ARM_CM4F/port.c ****              * portNVIC_SYSTICK_CTRL_REG register to ensure the
 647:Middlewares/Third_Party/FreeRTOS/Source/portable/GCC/ARM_CM4F/port.c ****              * portNVIC_SYSTICK_COUNT_FLAG_BIT is not cleared if it is set.  Again,
 648:Middlewares/Third_Party/FreeRTOS/Source/portable/GCC/ARM_CM4F/port.c ****              * the time the SysTick is stopped for is accounted for as best it can
 649:Middlewares/Third_Party/FreeRTOS/Source/portable/GCC/ARM_CM4F/port.c ****              * be, but using the tickless mode will inevitably result in some tiny
 650:Middlewares/Third_Party/FreeRTOS/Source/portable/GCC/ARM_CM4F/port.c ****              * drift of the time maintained by the kernel with respect to calendar
 651:Middlewares/Third_Party/FreeRTOS/Source/portable/GCC/ARM_CM4F/port.c ****              * time*/
 652:Middlewares/Third_Party/FreeRTOS/Source/portable/GCC/ARM_CM4F/port.c ****             portNVIC_SYSTICK_CTRL_REG = ( portNVIC_SYSTICK_CLK_BIT_CONFIG | portNVIC_SYSTICK_INT_BI
 653:Middlewares/Third_Party/FreeRTOS/Source/portable/GCC/ARM_CM4F/port.c **** 
 654:Middlewares/Third_Party/FreeRTOS/Source/portable/GCC/ARM_CM4F/port.c ****             /* Determine whether the SysTick has already counted to zero. */
 655:Middlewares/Third_Party/FreeRTOS/Source/portable/GCC/ARM_CM4F/port.c ****             if( ( portNVIC_SYSTICK_CTRL_REG & portNVIC_SYSTICK_COUNT_FLAG_BIT ) != 0 )
 656:Middlewares/Third_Party/FreeRTOS/Source/portable/GCC/ARM_CM4F/port.c ****             {
 657:Middlewares/Third_Party/FreeRTOS/Source/portable/GCC/ARM_CM4F/port.c ****                 uint32_t ulCalculatedLoadValue;
 658:Middlewares/Third_Party/FreeRTOS/Source/portable/GCC/ARM_CM4F/port.c **** 
 659:Middlewares/Third_Party/FreeRTOS/Source/portable/GCC/ARM_CM4F/port.c ****                 /* The tick interrupt ended the sleep (or is now pending), and
 660:Middlewares/Third_Party/FreeRTOS/Source/portable/GCC/ARM_CM4F/port.c ****                  * a new tick period has started.  Reset portNVIC_SYSTICK_LOAD_REG
 661:Middlewares/Third_Party/FreeRTOS/Source/portable/GCC/ARM_CM4F/port.c ****                  * with whatever remains of the new tick period. */
 662:Middlewares/Third_Party/FreeRTOS/Source/portable/GCC/ARM_CM4F/port.c ****                 ulCalculatedLoadValue = ( ulTimerCountsForOneTick - 1UL ) - ( ulReloadValue - portN
 663:Middlewares/Third_Party/FreeRTOS/Source/portable/GCC/ARM_CM4F/port.c **** 
 664:Middlewares/Third_Party/FreeRTOS/Source/portable/GCC/ARM_CM4F/port.c ****                 /* Don't allow a tiny value, or values that have somehow
 665:Middlewares/Third_Party/FreeRTOS/Source/portable/GCC/ARM_CM4F/port.c ****                  * underflowed because the post sleep hook did something
 666:Middlewares/Third_Party/FreeRTOS/Source/portable/GCC/ARM_CM4F/port.c ****                  * that took too long or because the SysTick current-value register
 667:Middlewares/Third_Party/FreeRTOS/Source/portable/GCC/ARM_CM4F/port.c ****                  * is zero. */
 668:Middlewares/Third_Party/FreeRTOS/Source/portable/GCC/ARM_CM4F/port.c ****                 if( ( ulCalculatedLoadValue <= ulStoppedTimerCompensation ) || ( ulCalculatedLoadVa
 669:Middlewares/Third_Party/FreeRTOS/Source/portable/GCC/ARM_CM4F/port.c ****                 {
ARM GAS  /tmp/ccBqI1NG.s 			page 19


 670:Middlewares/Third_Party/FreeRTOS/Source/portable/GCC/ARM_CM4F/port.c ****                     ulCalculatedLoadValue = ( ulTimerCountsForOneTick - 1UL );
 671:Middlewares/Third_Party/FreeRTOS/Source/portable/GCC/ARM_CM4F/port.c ****                 }
 672:Middlewares/Third_Party/FreeRTOS/Source/portable/GCC/ARM_CM4F/port.c **** 
 673:Middlewares/Third_Party/FreeRTOS/Source/portable/GCC/ARM_CM4F/port.c ****                 portNVIC_SYSTICK_LOAD_REG = ulCalculatedLoadValue;
 674:Middlewares/Third_Party/FreeRTOS/Source/portable/GCC/ARM_CM4F/port.c **** 
 675:Middlewares/Third_Party/FreeRTOS/Source/portable/GCC/ARM_CM4F/port.c ****                 /* As the pending tick will be processed as soon as this
 676:Middlewares/Third_Party/FreeRTOS/Source/portable/GCC/ARM_CM4F/port.c ****                  * function exits, the tick value maintained by the tick is stepped
 677:Middlewares/Third_Party/FreeRTOS/Source/portable/GCC/ARM_CM4F/port.c ****                  * forward by one less than the time spent waiting. */
 678:Middlewares/Third_Party/FreeRTOS/Source/portable/GCC/ARM_CM4F/port.c ****                 ulCompleteTickPeriods = xExpectedIdleTime - 1UL;
 679:Middlewares/Third_Party/FreeRTOS/Source/portable/GCC/ARM_CM4F/port.c ****             }
 680:Middlewares/Third_Party/FreeRTOS/Source/portable/GCC/ARM_CM4F/port.c ****             else
 681:Middlewares/Third_Party/FreeRTOS/Source/portable/GCC/ARM_CM4F/port.c ****             {
 682:Middlewares/Third_Party/FreeRTOS/Source/portable/GCC/ARM_CM4F/port.c ****                 /* Something other than the tick interrupt ended the sleep. */
 683:Middlewares/Third_Party/FreeRTOS/Source/portable/GCC/ARM_CM4F/port.c **** 
 684:Middlewares/Third_Party/FreeRTOS/Source/portable/GCC/ARM_CM4F/port.c ****                 /* Use the SysTick current-value register to determine the
 685:Middlewares/Third_Party/FreeRTOS/Source/portable/GCC/ARM_CM4F/port.c ****                  * number of SysTick decrements remaining until the expected idle
 686:Middlewares/Third_Party/FreeRTOS/Source/portable/GCC/ARM_CM4F/port.c ****                  * time would have ended. */
 687:Middlewares/Third_Party/FreeRTOS/Source/portable/GCC/ARM_CM4F/port.c ****                 ulSysTickDecrementsLeft = portNVIC_SYSTICK_CURRENT_VALUE_REG;
 688:Middlewares/Third_Party/FreeRTOS/Source/portable/GCC/ARM_CM4F/port.c ****                 #if ( portNVIC_SYSTICK_CLK_BIT_CONFIG != portNVIC_SYSTICK_CLK_BIT )
 689:Middlewares/Third_Party/FreeRTOS/Source/portable/GCC/ARM_CM4F/port.c ****                 {
 690:Middlewares/Third_Party/FreeRTOS/Source/portable/GCC/ARM_CM4F/port.c ****                     /* If the SysTick is not using the core clock, the current-
 691:Middlewares/Third_Party/FreeRTOS/Source/portable/GCC/ARM_CM4F/port.c ****                      * value register might still be zero here.  In that case, the
 692:Middlewares/Third_Party/FreeRTOS/Source/portable/GCC/ARM_CM4F/port.c ****                      * SysTick didn't load from the reload register, and there are
 693:Middlewares/Third_Party/FreeRTOS/Source/portable/GCC/ARM_CM4F/port.c ****                      * ulReloadValue decrements remaining in the expected idle
 694:Middlewares/Third_Party/FreeRTOS/Source/portable/GCC/ARM_CM4F/port.c ****                      * time, not zero. */
 695:Middlewares/Third_Party/FreeRTOS/Source/portable/GCC/ARM_CM4F/port.c ****                     if( ulSysTickDecrementsLeft == 0 )
 696:Middlewares/Third_Party/FreeRTOS/Source/portable/GCC/ARM_CM4F/port.c ****                     {
 697:Middlewares/Third_Party/FreeRTOS/Source/portable/GCC/ARM_CM4F/port.c ****                         ulSysTickDecrementsLeft = ulReloadValue;
 698:Middlewares/Third_Party/FreeRTOS/Source/portable/GCC/ARM_CM4F/port.c ****                     }
 699:Middlewares/Third_Party/FreeRTOS/Source/portable/GCC/ARM_CM4F/port.c ****                 }
 700:Middlewares/Third_Party/FreeRTOS/Source/portable/GCC/ARM_CM4F/port.c ****                 #endif /* portNVIC_SYSTICK_CLK_BIT_CONFIG */
 701:Middlewares/Third_Party/FreeRTOS/Source/portable/GCC/ARM_CM4F/port.c **** 
 702:Middlewares/Third_Party/FreeRTOS/Source/portable/GCC/ARM_CM4F/port.c ****                 /* Work out how long the sleep lasted rounded to complete tick
 703:Middlewares/Third_Party/FreeRTOS/Source/portable/GCC/ARM_CM4F/port.c ****                  * periods (not the ulReload value which accounted for part
 704:Middlewares/Third_Party/FreeRTOS/Source/portable/GCC/ARM_CM4F/port.c ****                  * ticks). */
 705:Middlewares/Third_Party/FreeRTOS/Source/portable/GCC/ARM_CM4F/port.c ****                 ulCompletedSysTickDecrements = ( xExpectedIdleTime * ulTimerCountsForOneTick ) - ul
 706:Middlewares/Third_Party/FreeRTOS/Source/portable/GCC/ARM_CM4F/port.c **** 
 707:Middlewares/Third_Party/FreeRTOS/Source/portable/GCC/ARM_CM4F/port.c ****                 /* How many complete tick periods passed while the processor
 708:Middlewares/Third_Party/FreeRTOS/Source/portable/GCC/ARM_CM4F/port.c ****                  * was waiting? */
 709:Middlewares/Third_Party/FreeRTOS/Source/portable/GCC/ARM_CM4F/port.c ****                 ulCompleteTickPeriods = ulCompletedSysTickDecrements / ulTimerCountsForOneTick;
 710:Middlewares/Third_Party/FreeRTOS/Source/portable/GCC/ARM_CM4F/port.c **** 
 711:Middlewares/Third_Party/FreeRTOS/Source/portable/GCC/ARM_CM4F/port.c ****                 /* The reload value is set to whatever fraction of a single tick
 712:Middlewares/Third_Party/FreeRTOS/Source/portable/GCC/ARM_CM4F/port.c ****                  * period remains. */
 713:Middlewares/Third_Party/FreeRTOS/Source/portable/GCC/ARM_CM4F/port.c ****                 portNVIC_SYSTICK_LOAD_REG = ( ( ulCompleteTickPeriods + 1UL ) * ulTimerCountsForOne
 714:Middlewares/Third_Party/FreeRTOS/Source/portable/GCC/ARM_CM4F/port.c ****             }
 715:Middlewares/Third_Party/FreeRTOS/Source/portable/GCC/ARM_CM4F/port.c **** 
 716:Middlewares/Third_Party/FreeRTOS/Source/portable/GCC/ARM_CM4F/port.c ****             /* Restart SysTick so it runs from portNVIC_SYSTICK_LOAD_REG again,
 717:Middlewares/Third_Party/FreeRTOS/Source/portable/GCC/ARM_CM4F/port.c ****              * then set portNVIC_SYSTICK_LOAD_REG back to its standard value.  If
 718:Middlewares/Third_Party/FreeRTOS/Source/portable/GCC/ARM_CM4F/port.c ****              * the SysTick is not using the core clock, temporarily configure it to
 719:Middlewares/Third_Party/FreeRTOS/Source/portable/GCC/ARM_CM4F/port.c ****              * use the core clock.  This configuration forces the SysTick to load
 720:Middlewares/Third_Party/FreeRTOS/Source/portable/GCC/ARM_CM4F/port.c ****              * from portNVIC_SYSTICK_LOAD_REG immediately instead of at the next
 721:Middlewares/Third_Party/FreeRTOS/Source/portable/GCC/ARM_CM4F/port.c ****              * cycle of the other clock.  Then portNVIC_SYSTICK_LOAD_REG is ready
 722:Middlewares/Third_Party/FreeRTOS/Source/portable/GCC/ARM_CM4F/port.c ****              * to receive the standard value immediately. */
 723:Middlewares/Third_Party/FreeRTOS/Source/portable/GCC/ARM_CM4F/port.c ****             portNVIC_SYSTICK_CURRENT_VALUE_REG = 0UL;
 724:Middlewares/Third_Party/FreeRTOS/Source/portable/GCC/ARM_CM4F/port.c ****             portNVIC_SYSTICK_CTRL_REG = portNVIC_SYSTICK_CLK_BIT | portNVIC_SYSTICK_INT_BIT | portN
 725:Middlewares/Third_Party/FreeRTOS/Source/portable/GCC/ARM_CM4F/port.c ****             #if ( portNVIC_SYSTICK_CLK_BIT_CONFIG == portNVIC_SYSTICK_CLK_BIT )
 726:Middlewares/Third_Party/FreeRTOS/Source/portable/GCC/ARM_CM4F/port.c ****             {
ARM GAS  /tmp/ccBqI1NG.s 			page 20


 727:Middlewares/Third_Party/FreeRTOS/Source/portable/GCC/ARM_CM4F/port.c ****                 portNVIC_SYSTICK_LOAD_REG = ulTimerCountsForOneTick - 1UL;
 728:Middlewares/Third_Party/FreeRTOS/Source/portable/GCC/ARM_CM4F/port.c ****             }
 729:Middlewares/Third_Party/FreeRTOS/Source/portable/GCC/ARM_CM4F/port.c ****             #else
 730:Middlewares/Third_Party/FreeRTOS/Source/portable/GCC/ARM_CM4F/port.c ****             {
 731:Middlewares/Third_Party/FreeRTOS/Source/portable/GCC/ARM_CM4F/port.c ****                 /* The temporary usage of the core clock has served its purpose,
 732:Middlewares/Third_Party/FreeRTOS/Source/portable/GCC/ARM_CM4F/port.c ****                  * as described above.  Resume usage of the other clock. */
 733:Middlewares/Third_Party/FreeRTOS/Source/portable/GCC/ARM_CM4F/port.c ****                 portNVIC_SYSTICK_CTRL_REG = portNVIC_SYSTICK_CLK_BIT | portNVIC_SYSTICK_INT_BIT;
 734:Middlewares/Third_Party/FreeRTOS/Source/portable/GCC/ARM_CM4F/port.c **** 
 735:Middlewares/Third_Party/FreeRTOS/Source/portable/GCC/ARM_CM4F/port.c ****                 if( ( portNVIC_SYSTICK_CTRL_REG & portNVIC_SYSTICK_COUNT_FLAG_BIT ) != 0 )
 736:Middlewares/Third_Party/FreeRTOS/Source/portable/GCC/ARM_CM4F/port.c ****                 {
 737:Middlewares/Third_Party/FreeRTOS/Source/portable/GCC/ARM_CM4F/port.c ****                     /* The partial tick period already ended.  Be sure the SysTick
 738:Middlewares/Third_Party/FreeRTOS/Source/portable/GCC/ARM_CM4F/port.c ****                      * counts it only once. */
 739:Middlewares/Third_Party/FreeRTOS/Source/portable/GCC/ARM_CM4F/port.c ****                     portNVIC_SYSTICK_CURRENT_VALUE_REG = 0;
 740:Middlewares/Third_Party/FreeRTOS/Source/portable/GCC/ARM_CM4F/port.c ****                 }
 741:Middlewares/Third_Party/FreeRTOS/Source/portable/GCC/ARM_CM4F/port.c **** 
 742:Middlewares/Third_Party/FreeRTOS/Source/portable/GCC/ARM_CM4F/port.c ****                 portNVIC_SYSTICK_LOAD_REG = ulTimerCountsForOneTick - 1UL;
 743:Middlewares/Third_Party/FreeRTOS/Source/portable/GCC/ARM_CM4F/port.c ****                 portNVIC_SYSTICK_CTRL_REG = portNVIC_SYSTICK_CLK_BIT_CONFIG | portNVIC_SYSTICK_INT_
 744:Middlewares/Third_Party/FreeRTOS/Source/portable/GCC/ARM_CM4F/port.c ****             }
 745:Middlewares/Third_Party/FreeRTOS/Source/portable/GCC/ARM_CM4F/port.c ****             #endif /* portNVIC_SYSTICK_CLK_BIT_CONFIG */
 746:Middlewares/Third_Party/FreeRTOS/Source/portable/GCC/ARM_CM4F/port.c **** 
 747:Middlewares/Third_Party/FreeRTOS/Source/portable/GCC/ARM_CM4F/port.c ****             /* Step the tick to account for any tick periods that elapsed. */
 748:Middlewares/Third_Party/FreeRTOS/Source/portable/GCC/ARM_CM4F/port.c ****             vTaskStepTick( ulCompleteTickPeriods );
 749:Middlewares/Third_Party/FreeRTOS/Source/portable/GCC/ARM_CM4F/port.c **** 
 750:Middlewares/Third_Party/FreeRTOS/Source/portable/GCC/ARM_CM4F/port.c ****             /* Exit with interrupts enabled. */
 751:Middlewares/Third_Party/FreeRTOS/Source/portable/GCC/ARM_CM4F/port.c ****             __asm volatile ( "cpsie i" ::: "memory" );
 752:Middlewares/Third_Party/FreeRTOS/Source/portable/GCC/ARM_CM4F/port.c ****         }
 753:Middlewares/Third_Party/FreeRTOS/Source/portable/GCC/ARM_CM4F/port.c ****     }
 754:Middlewares/Third_Party/FreeRTOS/Source/portable/GCC/ARM_CM4F/port.c **** 
 755:Middlewares/Third_Party/FreeRTOS/Source/portable/GCC/ARM_CM4F/port.c **** #endif /* #if configUSE_TICKLESS_IDLE */
 756:Middlewares/Third_Party/FreeRTOS/Source/portable/GCC/ARM_CM4F/port.c **** /*-----------------------------------------------------------*/
 757:Middlewares/Third_Party/FreeRTOS/Source/portable/GCC/ARM_CM4F/port.c **** 
 758:Middlewares/Third_Party/FreeRTOS/Source/portable/GCC/ARM_CM4F/port.c **** /*
 759:Middlewares/Third_Party/FreeRTOS/Source/portable/GCC/ARM_CM4F/port.c ****  * Setup the systick timer to generate the tick interrupts at the required
 760:Middlewares/Third_Party/FreeRTOS/Source/portable/GCC/ARM_CM4F/port.c ****  * frequency.
 761:Middlewares/Third_Party/FreeRTOS/Source/portable/GCC/ARM_CM4F/port.c ****  */
 762:Middlewares/Third_Party/FreeRTOS/Source/portable/GCC/ARM_CM4F/port.c **** __attribute__( ( weak ) ) void vPortSetupTimerInterrupt( void )
 763:Middlewares/Third_Party/FreeRTOS/Source/portable/GCC/ARM_CM4F/port.c **** {
 764:Middlewares/Third_Party/FreeRTOS/Source/portable/GCC/ARM_CM4F/port.c ****     /* Calculate the constants required to configure the tick interrupt. */
 765:Middlewares/Third_Party/FreeRTOS/Source/portable/GCC/ARM_CM4F/port.c ****     #if ( configUSE_TICKLESS_IDLE == 1 )
 766:Middlewares/Third_Party/FreeRTOS/Source/portable/GCC/ARM_CM4F/port.c ****     {
 767:Middlewares/Third_Party/FreeRTOS/Source/portable/GCC/ARM_CM4F/port.c ****         ulTimerCountsForOneTick = ( configSYSTICK_CLOCK_HZ / configTICK_RATE_HZ );
 768:Middlewares/Third_Party/FreeRTOS/Source/portable/GCC/ARM_CM4F/port.c ****         xMaximumPossibleSuppressedTicks = portMAX_24_BIT_NUMBER / ulTimerCountsForOneTick;
 769:Middlewares/Third_Party/FreeRTOS/Source/portable/GCC/ARM_CM4F/port.c ****         ulStoppedTimerCompensation = portMISSED_COUNTS_FACTOR / ( configCPU_CLOCK_HZ / configSYSTIC
 770:Middlewares/Third_Party/FreeRTOS/Source/portable/GCC/ARM_CM4F/port.c ****     }
 771:Middlewares/Third_Party/FreeRTOS/Source/portable/GCC/ARM_CM4F/port.c ****     #endif /* configUSE_TICKLESS_IDLE */
 772:Middlewares/Third_Party/FreeRTOS/Source/portable/GCC/ARM_CM4F/port.c **** 
 773:Middlewares/Third_Party/FreeRTOS/Source/portable/GCC/ARM_CM4F/port.c ****     /* Stop and clear the SysTick. */
 774:Middlewares/Third_Party/FreeRTOS/Source/portable/GCC/ARM_CM4F/port.c ****     portNVIC_SYSTICK_CTRL_REG = 0UL;
 775:Middlewares/Third_Party/FreeRTOS/Source/portable/GCC/ARM_CM4F/port.c ****     portNVIC_SYSTICK_CURRENT_VALUE_REG = 0UL;
 776:Middlewares/Third_Party/FreeRTOS/Source/portable/GCC/ARM_CM4F/port.c **** 
 777:Middlewares/Third_Party/FreeRTOS/Source/portable/GCC/ARM_CM4F/port.c ****     /* Configure SysTick to interrupt at the requested rate. */
 778:Middlewares/Third_Party/FreeRTOS/Source/portable/GCC/ARM_CM4F/port.c ****     portNVIC_SYSTICK_LOAD_REG = ( configSYSTICK_CLOCK_HZ / configTICK_RATE_HZ ) - 1UL;
 779:Middlewares/Third_Party/FreeRTOS/Source/portable/GCC/ARM_CM4F/port.c ****     portNVIC_SYSTICK_CTRL_REG = ( portNVIC_SYSTICK_CLK_BIT_CONFIG | portNVIC_SYSTICK_INT_BIT | port
 780:Middlewares/Third_Party/FreeRTOS/Source/portable/GCC/ARM_CM4F/port.c **** }
 781:Middlewares/Third_Party/FreeRTOS/Source/portable/GCC/ARM_CM4F/port.c **** /*-----------------------------------------------------------*/
 782:Middlewares/Third_Party/FreeRTOS/Source/portable/GCC/ARM_CM4F/port.c **** 
 783:Middlewares/Third_Party/FreeRTOS/Source/portable/GCC/ARM_CM4F/port.c **** /* This is a naked function. */
ARM GAS  /tmp/ccBqI1NG.s 			page 21


 784:Middlewares/Third_Party/FreeRTOS/Source/portable/GCC/ARM_CM4F/port.c **** static void vPortEnableVFP( void )
 785:Middlewares/Third_Party/FreeRTOS/Source/portable/GCC/ARM_CM4F/port.c **** {
 154              		.loc 1 785 1 is_stmt 1 view -0
 155              		.cfi_startproc
 156              		@ Naked Function: prologue and epilogue provided by programmer.
 157              		@ args = 0, pretend = 0, frame = 0
 158              		@ frame_needed = 0, uses_anonymous_args = 0
 786:Middlewares/Third_Party/FreeRTOS/Source/portable/GCC/ARM_CM4F/port.c ****     __asm volatile
 159              		.loc 1 786 5 view .LVU23
 160              		.syntax unified
 161              	@ 786 "Middlewares/Third_Party/FreeRTOS/Source/portable/GCC/ARM_CM4F/port.c" 1
 162 0000 DFF80C00 		   ldr.w r0, =0xE000ED88       
 163 0004 0168     	   ldr r1, [r0]                
 164              	                               
 165 0006 41F47001 	   orr r1, r1, #( 0xf << 20 )  
 166 000a 0160     	   str r1, [r0]                
 167 000c 7047     	   bx r14                      
 168 000e 000088ED 	   .ltorg                      
 168      00E0
 169              	
 170              	@ 0 "" 2
 787:Middlewares/Third_Party/FreeRTOS/Source/portable/GCC/ARM_CM4F/port.c ****     (
 788:Middlewares/Third_Party/FreeRTOS/Source/portable/GCC/ARM_CM4F/port.c ****         "   ldr.w r0, =0xE000ED88       \n" /* The FPU enable bits are in the CPACR. */
 789:Middlewares/Third_Party/FreeRTOS/Source/portable/GCC/ARM_CM4F/port.c ****         "   ldr r1, [r0]                \n"
 790:Middlewares/Third_Party/FreeRTOS/Source/portable/GCC/ARM_CM4F/port.c ****         "                               \n"
 791:Middlewares/Third_Party/FreeRTOS/Source/portable/GCC/ARM_CM4F/port.c ****         "   orr r1, r1, #( 0xf << 20 )  \n" /* Enable CP10 and CP11 coprocessors, then save back. *
 792:Middlewares/Third_Party/FreeRTOS/Source/portable/GCC/ARM_CM4F/port.c ****         "   str r1, [r0]                \n"
 793:Middlewares/Third_Party/FreeRTOS/Source/portable/GCC/ARM_CM4F/port.c ****         "   bx r14                      \n"
 794:Middlewares/Third_Party/FreeRTOS/Source/portable/GCC/ARM_CM4F/port.c ****         "   .ltorg                      \n"
 795:Middlewares/Third_Party/FreeRTOS/Source/portable/GCC/ARM_CM4F/port.c ****     );
 796:Middlewares/Third_Party/FreeRTOS/Source/portable/GCC/ARM_CM4F/port.c **** }
 171              		.loc 1 796 1 is_stmt 0 view .LVU24
 172              		.thumb
 173              		.syntax unified
 174              		.cfi_endproc
 175              	.LFE15:
 177              		.section	.text.pxPortInitialiseStack,"ax",%progbits
 178              		.align	1
 179              		.global	pxPortInitialiseStack
 180              		.syntax unified
 181              		.thumb
 182              		.thumb_func
 184              	pxPortInitialiseStack:
 185              	.LVL0:
 186              	.LFB4:
 196:Middlewares/Third_Party/FreeRTOS/Source/portable/GCC/ARM_CM4F/port.c ****     /* Simulate the stack frame as it would be created by a context switch
 187              		.loc 1 196 1 is_stmt 1 view -0
 188              		.cfi_startproc
 189              		@ args = 0, pretend = 0, frame = 0
 190              		@ frame_needed = 0, uses_anonymous_args = 0
 191              		@ link register save eliminated.
 202:Middlewares/Third_Party/FreeRTOS/Source/portable/GCC/ARM_CM4F/port.c **** 
 192              		.loc 1 202 5 view .LVU26
 204:Middlewares/Third_Party/FreeRTOS/Source/portable/GCC/ARM_CM4F/port.c ****     pxTopOfStack--;
 193              		.loc 1 204 5 view .LVU27
 204:Middlewares/Third_Party/FreeRTOS/Source/portable/GCC/ARM_CM4F/port.c ****     pxTopOfStack--;
 194              		.loc 1 204 19 is_stmt 0 view .LVU28
ARM GAS  /tmp/ccBqI1NG.s 			page 22


 195 0000 4FF08073 		mov	r3, #16777216
 196 0004 40F8043C 		str	r3, [r0, #-4]
 205:Middlewares/Third_Party/FreeRTOS/Source/portable/GCC/ARM_CM4F/port.c ****     *pxTopOfStack = ( ( StackType_t ) pxCode ) & portSTART_ADDRESS_MASK; /* PC */
 197              		.loc 1 205 5 is_stmt 1 view .LVU29
 198              	.LVL1:
 206:Middlewares/Third_Party/FreeRTOS/Source/portable/GCC/ARM_CM4F/port.c ****     pxTopOfStack--;
 199              		.loc 1 206 5 view .LVU30
 206:Middlewares/Third_Party/FreeRTOS/Source/portable/GCC/ARM_CM4F/port.c ****     pxTopOfStack--;
 200              		.loc 1 206 48 is_stmt 0 view .LVU31
 201 0008 21F00101 		bic	r1, r1, #1
 202              	.LVL2:
 206:Middlewares/Third_Party/FreeRTOS/Source/portable/GCC/ARM_CM4F/port.c ****     pxTopOfStack--;
 203              		.loc 1 206 19 view .LVU32
 204 000c 40F8081C 		str	r1, [r0, #-8]
 207:Middlewares/Third_Party/FreeRTOS/Source/portable/GCC/ARM_CM4F/port.c ****     *pxTopOfStack = ( StackType_t ) portTASK_RETURN_ADDRESS;             /* LR */
 205              		.loc 1 207 5 is_stmt 1 view .LVU33
 206              	.LVL3:
 208:Middlewares/Third_Party/FreeRTOS/Source/portable/GCC/ARM_CM4F/port.c **** 
 207              		.loc 1 208 5 view .LVU34
 208:Middlewares/Third_Party/FreeRTOS/Source/portable/GCC/ARM_CM4F/port.c **** 
 208              		.loc 1 208 21 is_stmt 0 view .LVU35
 209 0010 054B     		ldr	r3, .L11
 208:Middlewares/Third_Party/FreeRTOS/Source/portable/GCC/ARM_CM4F/port.c **** 
 210              		.loc 1 208 19 view .LVU36
 211 0012 40F80C3C 		str	r3, [r0, #-12]
 211:Middlewares/Third_Party/FreeRTOS/Source/portable/GCC/ARM_CM4F/port.c ****     *pxTopOfStack = ( StackType_t ) pvParameters; /* R0 */
 212              		.loc 1 211 5 is_stmt 1 view .LVU37
 213              	.LVL4:
 212:Middlewares/Third_Party/FreeRTOS/Source/portable/GCC/ARM_CM4F/port.c **** 
 214              		.loc 1 212 5 view .LVU38
 212:Middlewares/Third_Party/FreeRTOS/Source/portable/GCC/ARM_CM4F/port.c **** 
 215              		.loc 1 212 19 is_stmt 0 view .LVU39
 216 0016 40F8202C 		str	r2, [r0, #-32]
 216:Middlewares/Third_Party/FreeRTOS/Source/portable/GCC/ARM_CM4F/port.c ****     *pxTopOfStack = portINITIAL_EXC_RETURN;
 217              		.loc 1 216 5 is_stmt 1 view .LVU40
 218              	.LVL5:
 217:Middlewares/Third_Party/FreeRTOS/Source/portable/GCC/ARM_CM4F/port.c **** 
 219              		.loc 1 217 5 view .LVU41
 217:Middlewares/Third_Party/FreeRTOS/Source/portable/GCC/ARM_CM4F/port.c **** 
 220              		.loc 1 217 19 is_stmt 0 view .LVU42
 221 001a 6FF00203 		mvn	r3, #2
 222 001e 40F8243C 		str	r3, [r0, #-36]
 219:Middlewares/Third_Party/FreeRTOS/Source/portable/GCC/ARM_CM4F/port.c **** 
 223              		.loc 1 219 5 is_stmt 1 view .LVU43
 224              	.LVL6:
 221:Middlewares/Third_Party/FreeRTOS/Source/portable/GCC/ARM_CM4F/port.c **** }
 225              		.loc 1 221 5 view .LVU44
 222:Middlewares/Third_Party/FreeRTOS/Source/portable/GCC/ARM_CM4F/port.c **** /*-----------------------------------------------------------*/
 226              		.loc 1 222 1 is_stmt 0 view .LVU45
 227 0022 4438     		subs	r0, r0, #68
 228              	.LVL7:
 222:Middlewares/Third_Party/FreeRTOS/Source/portable/GCC/ARM_CM4F/port.c **** /*-----------------------------------------------------------*/
 229              		.loc 1 222 1 view .LVU46
 230 0024 7047     		bx	lr
 231              	.L12:
 232 0026 00BF     		.align	2
 233              	.L11:
ARM GAS  /tmp/ccBqI1NG.s 			page 23


 234 0028 00000000 		.word	prvTaskExitError
 235              		.cfi_endproc
 236              	.LFE4:
 238              		.section	.text.SVC_Handler,"ax",%progbits
 239              		.align	1
 240              		.global	SVC_Handler
 241              		.syntax unified
 242              		.thumb
 243              		.thumb_func
 245              	SVC_Handler:
 246              	.LFB6:
 252:Middlewares/Third_Party/FreeRTOS/Source/portable/GCC/ARM_CM4F/port.c ****     __asm volatile (
 247              		.loc 1 252 1 is_stmt 1 view -0
 248              		.cfi_startproc
 249              		@ Naked Function: prologue and epilogue provided by programmer.
 250              		@ args = 0, pretend = 0, frame = 0
 251              		@ frame_needed = 0, uses_anonymous_args = 0
 253:Middlewares/Third_Party/FreeRTOS/Source/portable/GCC/ARM_CM4F/port.c ****         "   ldr r3, pxCurrentTCBConst2      \n" /* Restore the context. */
 252              		.loc 1 253 5 view .LVU48
 253              		.syntax unified
 254              	@ 253 "Middlewares/Third_Party/FreeRTOS/Source/portable/GCC/ARM_CM4F/port.c" 1
 255 0000 074B     		   ldr r3, pxCurrentTCBConst2      
 256 0002 1968     	   ldr r1, [r3]                    
 257 0004 0868     	   ldr r0, [r1]                    
 258 0006 B0E8F04F 	   ldmia r0!, {r4-r11, r14}        
 259 000a 80F30988 	   msr psp, r0                     
 260 000e BFF36F8F 	   isb                             
 261 0012 4FF00000 	   mov r0, #0                      
 262 0016 80F31188 	   msr basepri, r0                 
 263 001a 7047     	   bx r14                          
 264              	                                   
 265 001c AFF30080 	   .align 4                        
 266 0020 00000000 	pxCurrentTCBConst2: .word pxCurrentTCB             
 267              	
 268              	@ 0 "" 2
 267:Middlewares/Third_Party/FreeRTOS/Source/portable/GCC/ARM_CM4F/port.c **** /*-----------------------------------------------------------*/
 269              		.loc 1 267 1 is_stmt 0 view .LVU49
 270              		.thumb
 271              		.syntax unified
 272              		.cfi_endproc
 273              	.LFE6:
 275              		.section	.text.vPortEndScheduler,"ax",%progbits
 276              		.align	1
 277              		.global	vPortEndScheduler
 278              		.syntax unified
 279              		.thumb
 280              		.thumb_func
 282              	vPortEndScheduler:
 283              	.LFB9:
 424:Middlewares/Third_Party/FreeRTOS/Source/portable/GCC/ARM_CM4F/port.c ****     /* Not implemented in ports where there is nothing to return to.
 284              		.loc 1 424 1 is_stmt 1 view -0
 285              		.cfi_startproc
 286              		@ args = 0, pretend = 0, frame = 0
 287              		@ frame_needed = 0, uses_anonymous_args = 0
 288              		@ link register save eliminated.
 427:Middlewares/Third_Party/FreeRTOS/Source/portable/GCC/ARM_CM4F/port.c **** }
 289              		.loc 1 427 5 view .LVU51
ARM GAS  /tmp/ccBqI1NG.s 			page 24


 290 0000 074B     		ldr	r3, .L17
 291 0002 1B68     		ldr	r3, [r3]
 292 0004 B3F57A7F 		cmp	r3, #1000
 293 0008 08D0     		beq	.L14
 427:Middlewares/Third_Party/FreeRTOS/Source/portable/GCC/ARM_CM4F/port.c **** }
 294              		.loc 1 427 5 discriminator 1 view .LVU52
 295              	.LBB37:
 296              	.LBI37:
 201:Middlewares/Third_Party/FreeRTOS/Source/portable/GCC/ARM_CM4F/portmacro.h ****     {
 297              		.loc 2 201 34 view .LVU53
 298              	.LBB38:
 203:Middlewares/Third_Party/FreeRTOS/Source/portable/GCC/ARM_CM4F/portmacro.h **** 
 299              		.loc 2 203 9 view .LVU54
 300              		.loc 2 205 9 view .LVU55
 301              		.syntax unified
 302              	@ 205 "Middlewares/Third_Party/FreeRTOS/Source/portable/GCC/ARM_CM4F/portmacro.h" 1
 303 000a 4FF05003 		   mov r3, #80                                              
 304 000e 83F31188 	   msr basepri, r3                                         
 305 0012 BFF36F8F 	   isb                                                     
 306 0016 BFF34F8F 	   dsb                                                     
 307              	
 308              	@ 0 "" 2
 309              		.thumb
 310              		.syntax unified
 311              	.L16:
 312              	.LBE38:
 313              	.LBE37:
 427:Middlewares/Third_Party/FreeRTOS/Source/portable/GCC/ARM_CM4F/port.c **** }
 314              		.loc 1 427 5 discriminator 3 view .LVU56
 427:Middlewares/Third_Party/FreeRTOS/Source/portable/GCC/ARM_CM4F/port.c **** }
 315              		.loc 1 427 5 discriminator 3 view .LVU57
 316 001a FEE7     		b	.L16
 317              	.L14:
 428:Middlewares/Third_Party/FreeRTOS/Source/portable/GCC/ARM_CM4F/port.c **** /*-----------------------------------------------------------*/
 318              		.loc 1 428 1 is_stmt 0 view .LVU58
 319 001c 7047     		bx	lr
 320              	.L18:
 321 001e 00BF     		.align	2
 322              	.L17:
 323 0020 00000000 		.word	uxCriticalNesting
 324              		.cfi_endproc
 325              	.LFE9:
 327              		.section	.text.vPortEnterCritical,"ax",%progbits
 328              		.align	1
 329              		.global	vPortEnterCritical
 330              		.syntax unified
 331              		.thumb
 332              		.thumb_func
 334              	vPortEnterCritical:
 335              	.LFB10:
 432:Middlewares/Third_Party/FreeRTOS/Source/portable/GCC/ARM_CM4F/port.c ****     portDISABLE_INTERRUPTS();
 336              		.loc 1 432 1 is_stmt 1 view -0
 337              		.cfi_startproc
 338              		@ args = 0, pretend = 0, frame = 0
 339              		@ frame_needed = 0, uses_anonymous_args = 0
 340              		@ link register save eliminated.
 433:Middlewares/Third_Party/FreeRTOS/Source/portable/GCC/ARM_CM4F/port.c ****     uxCriticalNesting++;
ARM GAS  /tmp/ccBqI1NG.s 			page 25


 341              		.loc 1 433 5 view .LVU60
 342              	.LBB39:
 343              	.LBI39:
 201:Middlewares/Third_Party/FreeRTOS/Source/portable/GCC/ARM_CM4F/portmacro.h ****     {
 344              		.loc 2 201 34 view .LVU61
 345              	.LBB40:
 203:Middlewares/Third_Party/FreeRTOS/Source/portable/GCC/ARM_CM4F/portmacro.h **** 
 346              		.loc 2 203 9 view .LVU62
 347              		.loc 2 205 9 view .LVU63
 348              		.syntax unified
 349              	@ 205 "Middlewares/Third_Party/FreeRTOS/Source/portable/GCC/ARM_CM4F/portmacro.h" 1
 350 0000 4FF05003 		   mov r3, #80                                              
 351 0004 83F31188 	   msr basepri, r3                                         
 352 0008 BFF36F8F 	   isb                                                     
 353 000c BFF34F8F 	   dsb                                                     
 354              	
 355              	@ 0 "" 2
 356              		.thumb
 357              		.syntax unified
 358              	.LBE40:
 359              	.LBE39:
 434:Middlewares/Third_Party/FreeRTOS/Source/portable/GCC/ARM_CM4F/port.c **** 
 360              		.loc 1 434 5 view .LVU64
 434:Middlewares/Third_Party/FreeRTOS/Source/portable/GCC/ARM_CM4F/port.c **** 
 361              		.loc 1 434 22 is_stmt 0 view .LVU65
 362 0010 0B4A     		ldr	r2, .L23
 363 0012 1368     		ldr	r3, [r2]
 364 0014 0133     		adds	r3, r3, #1
 365 0016 1360     		str	r3, [r2]
 441:Middlewares/Third_Party/FreeRTOS/Source/portable/GCC/ARM_CM4F/port.c ****     {
 366              		.loc 1 441 5 is_stmt 1 view .LVU66
 441:Middlewares/Third_Party/FreeRTOS/Source/portable/GCC/ARM_CM4F/port.c ****     {
 367              		.loc 1 441 7 is_stmt 0 view .LVU67
 368 0018 012B     		cmp	r3, #1
 369 001a 00D0     		beq	.L22
 370              	.L19:
 445:Middlewares/Third_Party/FreeRTOS/Source/portable/GCC/ARM_CM4F/port.c **** /*-----------------------------------------------------------*/
 371              		.loc 1 445 1 view .LVU68
 372 001c 7047     		bx	lr
 373              	.L22:
 443:Middlewares/Third_Party/FreeRTOS/Source/portable/GCC/ARM_CM4F/port.c ****     }
 374              		.loc 1 443 9 is_stmt 1 view .LVU69
 375 001e 4FF0E023 		mov	r3, #-536813568
 376 0022 D3F8043D 		ldr	r3, [r3, #3332]
 377 0026 13F0FF0F 		tst	r3, #255
 378 002a F7D0     		beq	.L19
 443:Middlewares/Third_Party/FreeRTOS/Source/portable/GCC/ARM_CM4F/port.c ****     }
 379              		.loc 1 443 9 discriminator 1 view .LVU70
 380              	.LBB41:
 381              	.LBI41:
 201:Middlewares/Third_Party/FreeRTOS/Source/portable/GCC/ARM_CM4F/portmacro.h ****     {
 382              		.loc 2 201 34 view .LVU71
 383              	.LBB42:
 203:Middlewares/Third_Party/FreeRTOS/Source/portable/GCC/ARM_CM4F/portmacro.h **** 
 384              		.loc 2 203 9 view .LVU72
 385              		.loc 2 205 9 view .LVU73
 386              		.syntax unified
ARM GAS  /tmp/ccBqI1NG.s 			page 26


 387              	@ 205 "Middlewares/Third_Party/FreeRTOS/Source/portable/GCC/ARM_CM4F/portmacro.h" 1
 388 002c 4FF05003 		   mov r3, #80                                              
 389 0030 83F31188 	   msr basepri, r3                                         
 390 0034 BFF36F8F 	   isb                                                     
 391 0038 BFF34F8F 	   dsb                                                     
 392              	
 393              	@ 0 "" 2
 394              		.thumb
 395              		.syntax unified
 396              	.L21:
 397              	.LBE42:
 398              	.LBE41:
 443:Middlewares/Third_Party/FreeRTOS/Source/portable/GCC/ARM_CM4F/port.c ****     }
 399              		.loc 1 443 9 discriminator 3 view .LVU74
 443:Middlewares/Third_Party/FreeRTOS/Source/portable/GCC/ARM_CM4F/port.c ****     }
 400              		.loc 1 443 9 discriminator 3 view .LVU75
 401 003c FEE7     		b	.L21
 402              	.L24:
 403 003e 00BF     		.align	2
 404              	.L23:
 405 0040 00000000 		.word	uxCriticalNesting
 406              		.cfi_endproc
 407              	.LFE10:
 409              		.section	.text.vPortExitCritical,"ax",%progbits
 410              		.align	1
 411              		.global	vPortExitCritical
 412              		.syntax unified
 413              		.thumb
 414              		.thumb_func
 416              	vPortExitCritical:
 417              	.LFB11:
 449:Middlewares/Third_Party/FreeRTOS/Source/portable/GCC/ARM_CM4F/port.c ****     configASSERT( uxCriticalNesting );
 418              		.loc 1 449 1 view -0
 419              		.cfi_startproc
 420              		@ args = 0, pretend = 0, frame = 0
 421              		@ frame_needed = 0, uses_anonymous_args = 0
 422              		@ link register save eliminated.
 450:Middlewares/Third_Party/FreeRTOS/Source/portable/GCC/ARM_CM4F/port.c ****     uxCriticalNesting--;
 423              		.loc 1 450 5 view .LVU77
 424 0000 094B     		ldr	r3, .L29
 425 0002 1B68     		ldr	r3, [r3]
 426 0004 43B9     		cbnz	r3, .L26
 450:Middlewares/Third_Party/FreeRTOS/Source/portable/GCC/ARM_CM4F/port.c ****     uxCriticalNesting--;
 427              		.loc 1 450 5 discriminator 1 view .LVU78
 428              	.LBB43:
 429              	.LBI43:
 201:Middlewares/Third_Party/FreeRTOS/Source/portable/GCC/ARM_CM4F/portmacro.h ****     {
 430              		.loc 2 201 34 view .LVU79
 431              	.LBB44:
 203:Middlewares/Third_Party/FreeRTOS/Source/portable/GCC/ARM_CM4F/portmacro.h **** 
 432              		.loc 2 203 9 view .LVU80
 433              		.loc 2 205 9 view .LVU81
 434              		.syntax unified
 435              	@ 205 "Middlewares/Third_Party/FreeRTOS/Source/portable/GCC/ARM_CM4F/portmacro.h" 1
 436 0006 4FF05003 		   mov r3, #80                                              
 437 000a 83F31188 	   msr basepri, r3                                         
 438 000e BFF36F8F 	   isb                                                     
ARM GAS  /tmp/ccBqI1NG.s 			page 27


 439 0012 BFF34F8F 	   dsb                                                     
 440              	
 441              	@ 0 "" 2
 442              		.thumb
 443              		.syntax unified
 444              	.L27:
 445              	.LBE44:
 446              	.LBE43:
 450:Middlewares/Third_Party/FreeRTOS/Source/portable/GCC/ARM_CM4F/port.c ****     uxCriticalNesting--;
 447              		.loc 1 450 5 discriminator 3 view .LVU82
 450:Middlewares/Third_Party/FreeRTOS/Source/portable/GCC/ARM_CM4F/port.c ****     uxCriticalNesting--;
 448              		.loc 1 450 5 discriminator 3 view .LVU83
 449 0016 FEE7     		b	.L27
 450              	.L26:
 450:Middlewares/Third_Party/FreeRTOS/Source/portable/GCC/ARM_CM4F/port.c ****     uxCriticalNesting--;
 451              		.loc 1 450 38 discriminator 2 view .LVU84
 451:Middlewares/Third_Party/FreeRTOS/Source/portable/GCC/ARM_CM4F/port.c **** 
 452              		.loc 1 451 5 view .LVU85
 451:Middlewares/Third_Party/FreeRTOS/Source/portable/GCC/ARM_CM4F/port.c **** 
 453              		.loc 1 451 22 is_stmt 0 view .LVU86
 454 0018 013B     		subs	r3, r3, #1
 455 001a 034A     		ldr	r2, .L29
 456 001c 1360     		str	r3, [r2]
 453:Middlewares/Third_Party/FreeRTOS/Source/portable/GCC/ARM_CM4F/port.c ****     {
 457              		.loc 1 453 5 is_stmt 1 view .LVU87
 453:Middlewares/Third_Party/FreeRTOS/Source/portable/GCC/ARM_CM4F/port.c ****     {
 458              		.loc 1 453 7 is_stmt 0 view .LVU88
 459 001e 0BB9     		cbnz	r3, .L25
 455:Middlewares/Third_Party/FreeRTOS/Source/portable/GCC/ARM_CM4F/port.c ****     }
 460              		.loc 1 455 9 is_stmt 1 view .LVU89
 461              	.LVL8:
 462              	.LBB45:
 463              	.LBI45:
 206:Middlewares/Third_Party/FreeRTOS/Source/portable/GCC/ARM_CM4F/portmacro.h ****         (
 207:Middlewares/Third_Party/FreeRTOS/Source/portable/GCC/ARM_CM4F/portmacro.h ****             "   mov %0, %1                                              \n"\
 208:Middlewares/Third_Party/FreeRTOS/Source/portable/GCC/ARM_CM4F/portmacro.h ****             "   msr basepri, %0                                         \n"\
 209:Middlewares/Third_Party/FreeRTOS/Source/portable/GCC/ARM_CM4F/portmacro.h ****             "   isb                                                     \n"\
 210:Middlewares/Third_Party/FreeRTOS/Source/portable/GCC/ARM_CM4F/portmacro.h ****             "   dsb                                                     \n"\
 211:Middlewares/Third_Party/FreeRTOS/Source/portable/GCC/ARM_CM4F/portmacro.h ****             : "=r" ( ulNewBASEPRI ) : "i" ( configMAX_SYSCALL_INTERRUPT_PRIORITY ) : "memory"
 212:Middlewares/Third_Party/FreeRTOS/Source/portable/GCC/ARM_CM4F/portmacro.h ****         );
 213:Middlewares/Third_Party/FreeRTOS/Source/portable/GCC/ARM_CM4F/portmacro.h ****     }
 214:Middlewares/Third_Party/FreeRTOS/Source/portable/GCC/ARM_CM4F/portmacro.h **** 
 215:Middlewares/Third_Party/FreeRTOS/Source/portable/GCC/ARM_CM4F/portmacro.h **** /*-----------------------------------------------------------*/
 216:Middlewares/Third_Party/FreeRTOS/Source/portable/GCC/ARM_CM4F/portmacro.h **** 
 217:Middlewares/Third_Party/FreeRTOS/Source/portable/GCC/ARM_CM4F/portmacro.h ****     portFORCE_INLINE static uint32_t ulPortRaiseBASEPRI( void )
 218:Middlewares/Third_Party/FreeRTOS/Source/portable/GCC/ARM_CM4F/portmacro.h ****     {
 219:Middlewares/Third_Party/FreeRTOS/Source/portable/GCC/ARM_CM4F/portmacro.h ****         uint32_t ulOriginalBASEPRI, ulNewBASEPRI;
 220:Middlewares/Third_Party/FreeRTOS/Source/portable/GCC/ARM_CM4F/portmacro.h **** 
 221:Middlewares/Third_Party/FreeRTOS/Source/portable/GCC/ARM_CM4F/portmacro.h ****         __asm volatile
 222:Middlewares/Third_Party/FreeRTOS/Source/portable/GCC/ARM_CM4F/portmacro.h ****         (
 223:Middlewares/Third_Party/FreeRTOS/Source/portable/GCC/ARM_CM4F/portmacro.h ****             "   mrs %0, basepri                                         \n"\
 224:Middlewares/Third_Party/FreeRTOS/Source/portable/GCC/ARM_CM4F/portmacro.h ****             "   mov %1, %2                                              \n"\
 225:Middlewares/Third_Party/FreeRTOS/Source/portable/GCC/ARM_CM4F/portmacro.h ****             "   msr basepri, %1                                         \n"\
 226:Middlewares/Third_Party/FreeRTOS/Source/portable/GCC/ARM_CM4F/portmacro.h ****             "   isb                                                     \n"\
 227:Middlewares/Third_Party/FreeRTOS/Source/portable/GCC/ARM_CM4F/portmacro.h ****             "   dsb                                                     \n"\
 228:Middlewares/Third_Party/FreeRTOS/Source/portable/GCC/ARM_CM4F/portmacro.h ****             : "=r" ( ulOriginalBASEPRI ), "=r" ( ulNewBASEPRI ) : "i" ( configMAX_SYSCALL_INTERRUPT
 229:Middlewares/Third_Party/FreeRTOS/Source/portable/GCC/ARM_CM4F/portmacro.h ****         );
ARM GAS  /tmp/ccBqI1NG.s 			page 28


 230:Middlewares/Third_Party/FreeRTOS/Source/portable/GCC/ARM_CM4F/portmacro.h **** 
 231:Middlewares/Third_Party/FreeRTOS/Source/portable/GCC/ARM_CM4F/portmacro.h ****         /* This return will not be reached but is necessary to prevent compiler
 232:Middlewares/Third_Party/FreeRTOS/Source/portable/GCC/ARM_CM4F/portmacro.h ****          * warnings. */
 233:Middlewares/Third_Party/FreeRTOS/Source/portable/GCC/ARM_CM4F/portmacro.h ****         return ulOriginalBASEPRI;
 234:Middlewares/Third_Party/FreeRTOS/Source/portable/GCC/ARM_CM4F/portmacro.h ****     }
 235:Middlewares/Third_Party/FreeRTOS/Source/portable/GCC/ARM_CM4F/portmacro.h **** /*-----------------------------------------------------------*/
 236:Middlewares/Third_Party/FreeRTOS/Source/portable/GCC/ARM_CM4F/portmacro.h **** 
 237:Middlewares/Third_Party/FreeRTOS/Source/portable/GCC/ARM_CM4F/portmacro.h ****     portFORCE_INLINE static void vPortSetBASEPRI( uint32_t ulNewMaskValue )
 464              		.loc 2 237 34 view .LVU90
 465              	.LBB46:
 238:Middlewares/Third_Party/FreeRTOS/Source/portable/GCC/ARM_CM4F/portmacro.h ****     {
 239:Middlewares/Third_Party/FreeRTOS/Source/portable/GCC/ARM_CM4F/portmacro.h ****         __asm volatile
 466              		.loc 2 239 9 view .LVU91
 467              		.syntax unified
 468              	@ 239 "Middlewares/Third_Party/FreeRTOS/Source/portable/GCC/ARM_CM4F/portmacro.h" 1
 469 0020 83F31188 		   msr basepri, r3 
 470              	@ 0 "" 2
 471              	.LVL9:
 472              		.thumb
 473              		.syntax unified
 474              	.L25:
 475              		.loc 2 239 9 is_stmt 0 view .LVU92
 476              	.LBE46:
 477              	.LBE45:
 457:Middlewares/Third_Party/FreeRTOS/Source/portable/GCC/ARM_CM4F/port.c **** /*-----------------------------------------------------------*/
 478              		.loc 1 457 1 view .LVU93
 479 0024 7047     		bx	lr
 480              	.L30:
 481 0026 00BF     		.align	2
 482              	.L29:
 483 0028 00000000 		.word	uxCriticalNesting
 484              		.cfi_endproc
 485              	.LFE11:
 487              		.section	.text.PendSV_Handler,"ax",%progbits
 488              		.align	1
 489              		.global	PendSV_Handler
 490              		.syntax unified
 491              		.thumb
 492              		.thumb_func
 494              	PendSV_Handler:
 495              	.LFB12:
 461:Middlewares/Third_Party/FreeRTOS/Source/portable/GCC/ARM_CM4F/port.c ****     /* This is a naked function. */
 496              		.loc 1 461 1 is_stmt 1 view -0
 497              		.cfi_startproc
 498              		@ Naked Function: prologue and epilogue provided by programmer.
 499              		@ args = 0, pretend = 0, frame = 0
 500              		@ frame_needed = 0, uses_anonymous_args = 0
 464:Middlewares/Third_Party/FreeRTOS/Source/portable/GCC/ARM_CM4F/port.c ****     (
 501              		.loc 1 464 5 view .LVU95
 502              		.syntax unified
 503              	@ 464 "Middlewares/Third_Party/FreeRTOS/Source/portable/GCC/ARM_CM4F/port.c" 1
 504 0000 EFF30980 		   mrs r0, psp                         
 505 0004 BFF36F8F 	   isb                                 
 506              	                                       
 507 0008 154B     	   ldr r3, pxCurrentTCBConst           
 508 000a 1A68     	   ldr r2, [r3]                        
 509              	                                       
ARM GAS  /tmp/ccBqI1NG.s 			page 29


 510 000c 1EF0100F 	   tst r14, #0x10                      
 511 0010 08BF     	   it eq                               
 512 0012 20ED108A 	   vstmdbeq r0!, {s16-s31}             
 513              	                                       
 514 0016 20E9F04F 	   stmdb r0!, {r4-r11, r14}            
 515 001a 1060     	   str r0, [r2]                        
 516              	                                       
 517 001c 2DE90900 	   stmdb sp!, {r0, r3}                 
 518 0020 4FF05000 	   mov r0, #80                          
 519 0024 80F31188 	   msr basepri, r0                     
 520 0028 BFF34F8F 	   dsb                                 
 521 002c BFF36F8F 	   isb                                 
 522 0030 FFF7FEFF 	   bl vTaskSwitchContext               
 523 0034 4FF00000 	   mov r0, #0                          
 524 0038 80F31188 	   msr basepri, r0                     
 525 003c 09BC     	   ldmia sp!, {r0, r3}                 
 526              	                                       
 527 003e 1968     	   ldr r1, [r3]                        
 528 0040 0868     	   ldr r0, [r1]                        
 529              	                                       
 530 0042 B0E8F04F 	   ldmia r0!, {r4-r11, r14}            
 531              	                                       
 532 0046 1EF0100F 	   tst r14, #0x10                      
 533 004a 08BF     	   it eq                               
 534 004c B0EC108A 	   vldmiaeq r0!, {s16-s31}             
 535              	                                       
 536 0050 80F30988 	   msr psp, r0                         
 537 0054 BFF36F8F 	   isb                                 
 538              	                                       
 539              	                                       
 540 0058 7047     	   bx r14                              
 541              	                                       
 542 005a 00BFAFF3 	   .align 4                            
 542      0080
 543 0060 00000000 	pxCurrentTCBConst: .word pxCurrentTCB  
 544              	
 545              	@ 0 "" 2
 514:Middlewares/Third_Party/FreeRTOS/Source/portable/GCC/ARM_CM4F/port.c **** /*-----------------------------------------------------------*/
 546              		.loc 1 514 1 is_stmt 0 view .LVU96
 547              		.thumb
 548              		.syntax unified
 549              		.cfi_endproc
 550              	.LFE12:
 552              		.section	.text.xPortSysTickHandler,"ax",%progbits
 553              		.align	1
 554              		.global	xPortSysTickHandler
 555              		.syntax unified
 556              		.thumb
 557              		.thumb_func
 559              	xPortSysTickHandler:
 560              	.LFB13:
 518:Middlewares/Third_Party/FreeRTOS/Source/portable/GCC/ARM_CM4F/port.c ****     /* The SysTick runs at the lowest interrupt priority, so when this interrupt
 561              		.loc 1 518 1 is_stmt 1 view -0
 562              		.cfi_startproc
 563              		@ args = 0, pretend = 0, frame = 0
 564              		@ frame_needed = 0, uses_anonymous_args = 0
 565 0000 08B5     		push	{r3, lr}
ARM GAS  /tmp/ccBqI1NG.s 			page 30


 566              	.LCFI2:
 567              		.cfi_def_cfa_offset 8
 568              		.cfi_offset 3, -8
 569              		.cfi_offset 14, -4
 523:Middlewares/Third_Party/FreeRTOS/Source/portable/GCC/ARM_CM4F/port.c ****     {
 570              		.loc 1 523 5 view .LVU98
 571              	.LBB47:
 572              	.LBI47:
 201:Middlewares/Third_Party/FreeRTOS/Source/portable/GCC/ARM_CM4F/portmacro.h ****     {
 573              		.loc 2 201 34 view .LVU99
 574              	.LBB48:
 203:Middlewares/Third_Party/FreeRTOS/Source/portable/GCC/ARM_CM4F/portmacro.h **** 
 575              		.loc 2 203 9 view .LVU100
 205:Middlewares/Third_Party/FreeRTOS/Source/portable/GCC/ARM_CM4F/portmacro.h ****         (
 576              		.loc 2 205 9 view .LVU101
 577              		.syntax unified
 578              	@ 205 "Middlewares/Third_Party/FreeRTOS/Source/portable/GCC/ARM_CM4F/portmacro.h" 1
 579 0002 4FF05003 		   mov r3, #80                                              
 580 0006 83F31188 	   msr basepri, r3                                         
 581 000a BFF36F8F 	   isb                                                     
 582 000e BFF34F8F 	   dsb                                                     
 583              	
 584              	@ 0 "" 2
 585              		.thumb
 586              		.syntax unified
 587              	.LBE48:
 588              	.LBE47:
 526:Middlewares/Third_Party/FreeRTOS/Source/portable/GCC/ARM_CM4F/port.c ****         {
 589              		.loc 1 526 9 view .LVU102
 526:Middlewares/Third_Party/FreeRTOS/Source/portable/GCC/ARM_CM4F/port.c ****         {
 590              		.loc 1 526 13 is_stmt 0 view .LVU103
 591 0012 FFF7FEFF 		bl	xTaskIncrementTick
 592              	.LVL10:
 526:Middlewares/Third_Party/FreeRTOS/Source/portable/GCC/ARM_CM4F/port.c ****         {
 593              		.loc 1 526 11 discriminator 1 view .LVU104
 594 0016 28B1     		cbz	r0, .L33
 530:Middlewares/Third_Party/FreeRTOS/Source/portable/GCC/ARM_CM4F/port.c ****         }
 595              		.loc 1 530 13 is_stmt 1 view .LVU105
 530:Middlewares/Third_Party/FreeRTOS/Source/portable/GCC/ARM_CM4F/port.c ****         }
 596              		.loc 1 530 35 is_stmt 0 view .LVU106
 597 0018 4FF0E023 		mov	r3, #-536813568
 598 001c 4FF08052 		mov	r2, #268435456
 599 0020 C3F8042D 		str	r2, [r3, #3332]
 600              	.L33:
 533:Middlewares/Third_Party/FreeRTOS/Source/portable/GCC/ARM_CM4F/port.c **** }
 601              		.loc 1 533 5 is_stmt 1 view .LVU107
 602              	.LVL11:
 603              	.LBB49:
 604              	.LBI49:
 237:Middlewares/Third_Party/FreeRTOS/Source/portable/GCC/ARM_CM4F/portmacro.h ****     {
 605              		.loc 2 237 34 view .LVU108
 606              	.LBB50:
 607              		.loc 2 239 9 view .LVU109
 608 0024 0023     		movs	r3, #0
 609              		.syntax unified
 610              	@ 239 "Middlewares/Third_Party/FreeRTOS/Source/portable/GCC/ARM_CM4F/portmacro.h" 1
 611 0026 83F31188 		   msr basepri, r3 
ARM GAS  /tmp/ccBqI1NG.s 			page 31


 612              	@ 0 "" 2
 613              	.LVL12:
 614              		.loc 2 239 9 is_stmt 0 view .LVU110
 615              		.thumb
 616              		.syntax unified
 617              	.LBE50:
 618              	.LBE49:
 534:Middlewares/Third_Party/FreeRTOS/Source/portable/GCC/ARM_CM4F/port.c **** /*-----------------------------------------------------------*/
 619              		.loc 1 534 1 view .LVU111
 620 002a 08BD     		pop	{r3, pc}
 621              		.cfi_endproc
 622              	.LFE13:
 624              		.section	.text.vPortSetupTimerInterrupt,"ax",%progbits
 625              		.align	1
 626              		.weak	vPortSetupTimerInterrupt
 627              		.syntax unified
 628              		.thumb
 629              		.thumb_func
 631              	vPortSetupTimerInterrupt:
 632              	.LFB14:
 763:Middlewares/Third_Party/FreeRTOS/Source/portable/GCC/ARM_CM4F/port.c ****     /* Calculate the constants required to configure the tick interrupt. */
 633              		.loc 1 763 1 is_stmt 1 view -0
 634              		.cfi_startproc
 635              		@ args = 0, pretend = 0, frame = 0
 636              		@ frame_needed = 0, uses_anonymous_args = 0
 637              		@ link register save eliminated.
 774:Middlewares/Third_Party/FreeRTOS/Source/portable/GCC/ARM_CM4F/port.c ****     portNVIC_SYSTICK_CURRENT_VALUE_REG = 0UL;
 638              		.loc 1 774 5 view .LVU113
 774:Middlewares/Third_Party/FreeRTOS/Source/portable/GCC/ARM_CM4F/port.c ****     portNVIC_SYSTICK_CURRENT_VALUE_REG = 0UL;
 639              		.loc 1 774 31 is_stmt 0 view .LVU114
 640 0000 4FF0E022 		mov	r2, #-536813568
 641 0004 0023     		movs	r3, #0
 642 0006 1361     		str	r3, [r2, #16]
 775:Middlewares/Third_Party/FreeRTOS/Source/portable/GCC/ARM_CM4F/port.c **** 
 643              		.loc 1 775 5 is_stmt 1 view .LVU115
 775:Middlewares/Third_Party/FreeRTOS/Source/portable/GCC/ARM_CM4F/port.c **** 
 644              		.loc 1 775 40 is_stmt 0 view .LVU116
 645 0008 9361     		str	r3, [r2, #24]
 778:Middlewares/Third_Party/FreeRTOS/Source/portable/GCC/ARM_CM4F/port.c ****     portNVIC_SYSTICK_CTRL_REG = ( portNVIC_SYSTICK_CLK_BIT_CONFIG | portNVIC_SYSTICK_INT_BIT | port
 646              		.loc 1 778 5 is_stmt 1 view .LVU117
 778:Middlewares/Third_Party/FreeRTOS/Source/portable/GCC/ARM_CM4F/port.c ****     portNVIC_SYSTICK_CTRL_REG = ( portNVIC_SYSTICK_CLK_BIT_CONFIG | portNVIC_SYSTICK_INT_BIT | port
 647              		.loc 1 778 58 is_stmt 0 view .LVU118
 648 000a 054B     		ldr	r3, .L36
 649 000c 1B68     		ldr	r3, [r3]
 650 000e 0549     		ldr	r1, .L36+4
 651 0010 A1FB0313 		umull	r1, r3, r1, r3
 652 0014 9B09     		lsrs	r3, r3, #6
 778:Middlewares/Third_Party/FreeRTOS/Source/portable/GCC/ARM_CM4F/port.c ****     portNVIC_SYSTICK_CTRL_REG = ( portNVIC_SYSTICK_CLK_BIT_CONFIG | portNVIC_SYSTICK_INT_BIT | port
 653              		.loc 1 778 81 view .LVU119
 654 0016 013B     		subs	r3, r3, #1
 778:Middlewares/Third_Party/FreeRTOS/Source/portable/GCC/ARM_CM4F/port.c ****     portNVIC_SYSTICK_CTRL_REG = ( portNVIC_SYSTICK_CLK_BIT_CONFIG | portNVIC_SYSTICK_INT_BIT | port
 655              		.loc 1 778 31 view .LVU120
 656 0018 5361     		str	r3, [r2, #20]
 779:Middlewares/Third_Party/FreeRTOS/Source/portable/GCC/ARM_CM4F/port.c **** }
 657              		.loc 1 779 5 is_stmt 1 view .LVU121
 779:Middlewares/Third_Party/FreeRTOS/Source/portable/GCC/ARM_CM4F/port.c **** }
 658              		.loc 1 779 31 is_stmt 0 view .LVU122
ARM GAS  /tmp/ccBqI1NG.s 			page 32


 659 001a 0723     		movs	r3, #7
 660 001c 1361     		str	r3, [r2, #16]
 780:Middlewares/Third_Party/FreeRTOS/Source/portable/GCC/ARM_CM4F/port.c **** /*-----------------------------------------------------------*/
 661              		.loc 1 780 1 view .LVU123
 662 001e 7047     		bx	lr
 663              	.L37:
 664              		.align	2
 665              	.L36:
 666 0020 00000000 		.word	SystemCoreClock
 667 0024 D34D6210 		.word	274877907
 668              		.cfi_endproc
 669              	.LFE14:
 671              		.section	.text.xPortStartScheduler,"ax",%progbits
 672              		.align	1
 673              		.global	xPortStartScheduler
 674              		.syntax unified
 675              		.thumb
 676              		.thumb_func
 678              	xPortStartScheduler:
 679              	.LFB8:
 298:Middlewares/Third_Party/FreeRTOS/Source/portable/GCC/ARM_CM4F/port.c ****     /* This port can be used on all revisions of the Cortex-M7 core other than
 680              		.loc 1 298 1 is_stmt 1 view -0
 681              		.cfi_startproc
 682              		@ args = 0, pretend = 0, frame = 8
 683              		@ frame_needed = 0, uses_anonymous_args = 0
 302:Middlewares/Third_Party/FreeRTOS/Source/portable/GCC/ARM_CM4F/port.c ****     configASSERT( portCPUID != portCORTEX_M7_r0p0_ID );
 684              		.loc 1 302 5 view .LVU125
 685 0000 4FF0E023 		mov	r3, #-536813568
 686 0004 D3F8002D 		ldr	r2, [r3, #3328]
 687 0008 4A4B     		ldr	r3, .L56
 688 000a 9A42     		cmp	r2, r3
 689 000c 25D0     		beq	.L52
 302:Middlewares/Third_Party/FreeRTOS/Source/portable/GCC/ARM_CM4F/port.c ****     configASSERT( portCPUID != portCORTEX_M7_r0p0_ID );
 690              		.loc 1 302 55 discriminator 2 view .LVU126
 303:Middlewares/Third_Party/FreeRTOS/Source/portable/GCC/ARM_CM4F/port.c **** 
 691              		.loc 1 303 5 view .LVU127
 692 000e 4FF0E023 		mov	r3, #-536813568
 693 0012 D3F8002D 		ldr	r2, [r3, #3328]
 694 0016 484B     		ldr	r3, .L56+4
 695 0018 9A42     		cmp	r2, r3
 696 001a 27D0     		beq	.L53
 298:Middlewares/Third_Party/FreeRTOS/Source/portable/GCC/ARM_CM4F/port.c ****     /* This port can be used on all revisions of the Cortex-M7 core other than
 697              		.loc 1 298 1 is_stmt 0 view .LVU128
 698 001c 30B5     		push	{r4, r5, lr}
 699              	.LCFI3:
 700              		.cfi_def_cfa_offset 12
 701              		.cfi_offset 4, -12
 702              		.cfi_offset 5, -8
 703              		.cfi_offset 14, -4
 704 001e 83B0     		sub	sp, sp, #12
 705              	.LCFI4:
 706              		.cfi_def_cfa_offset 24
 303:Middlewares/Third_Party/FreeRTOS/Source/portable/GCC/ARM_CM4F/port.c **** 
 707              		.loc 1 303 55 is_stmt 1 discriminator 2 view .LVU129
 708              	.LBB51:
 307:Middlewares/Third_Party/FreeRTOS/Source/portable/GCC/ARM_CM4F/port.c ****         volatile uint32_t ulImplementedPrioBits = 0;
 709              		.loc 1 307 9 view .LVU130
ARM GAS  /tmp/ccBqI1NG.s 			page 33


 308:Middlewares/Third_Party/FreeRTOS/Source/portable/GCC/ARM_CM4F/port.c ****         volatile uint8_t * const pucFirstUserPriorityRegister = ( volatile uint8_t * const ) ( port
 710              		.loc 1 308 9 view .LVU131
 308:Middlewares/Third_Party/FreeRTOS/Source/portable/GCC/ARM_CM4F/port.c ****         volatile uint8_t * const pucFirstUserPriorityRegister = ( volatile uint8_t * const ) ( port
 711              		.loc 1 308 27 is_stmt 0 view .LVU132
 712 0020 0023     		movs	r3, #0
 713 0022 0193     		str	r3, [sp, #4]
 309:Middlewares/Third_Party/FreeRTOS/Source/portable/GCC/ARM_CM4F/port.c ****         volatile uint8_t ucMaxPriorityValue;
 714              		.loc 1 309 9 is_stmt 1 view .LVU133
 715              	.LVL13:
 310:Middlewares/Third_Party/FreeRTOS/Source/portable/GCC/ARM_CM4F/port.c **** 
 716              		.loc 1 310 9 view .LVU134
 318:Middlewares/Third_Party/FreeRTOS/Source/portable/GCC/ARM_CM4F/port.c **** 
 717              		.loc 1 318 9 view .LVU135
 318:Middlewares/Third_Party/FreeRTOS/Source/portable/GCC/ARM_CM4F/port.c **** 
 718              		.loc 1 318 30 is_stmt 0 view .LVU136
 719 0024 454B     		ldr	r3, .L56+8
 720 0026 1A78     		ldrb	r2, [r3]	@ zero_extendqisi2
 721 0028 D2B2     		uxtb	r2, r2
 318:Middlewares/Third_Party/FreeRTOS/Source/portable/GCC/ARM_CM4F/port.c **** 
 722              		.loc 1 318 28 view .LVU137
 723 002a 8DF80220 		strb	r2, [sp, #2]
 322:Middlewares/Third_Party/FreeRTOS/Source/portable/GCC/ARM_CM4F/port.c **** 
 724              		.loc 1 322 9 is_stmt 1 view .LVU138
 322:Middlewares/Third_Party/FreeRTOS/Source/portable/GCC/ARM_CM4F/port.c **** 
 725              		.loc 1 322 39 is_stmt 0 view .LVU139
 726 002e FF22     		movs	r2, #255
 727 0030 1A70     		strb	r2, [r3]
 325:Middlewares/Third_Party/FreeRTOS/Source/portable/GCC/ARM_CM4F/port.c **** 
 728              		.loc 1 325 9 is_stmt 1 view .LVU140
 325:Middlewares/Third_Party/FreeRTOS/Source/portable/GCC/ARM_CM4F/port.c **** 
 729              		.loc 1 325 30 is_stmt 0 view .LVU141
 730 0032 1B78     		ldrb	r3, [r3]	@ zero_extendqisi2
 731 0034 DBB2     		uxtb	r3, r3
 325:Middlewares/Third_Party/FreeRTOS/Source/portable/GCC/ARM_CM4F/port.c **** 
 732              		.loc 1 325 28 view .LVU142
 733 0036 8DF80330 		strb	r3, [sp, #3]
 328:Middlewares/Third_Party/FreeRTOS/Source/portable/GCC/ARM_CM4F/port.c **** 
 734              		.loc 1 328 9 is_stmt 1 view .LVU143
 328:Middlewares/Third_Party/FreeRTOS/Source/portable/GCC/ARM_CM4F/port.c **** 
 735              		.loc 1 328 69 is_stmt 0 view .LVU144
 736 003a 9DF80330 		ldrb	r3, [sp, #3]	@ zero_extendqisi2
 737 003e 03F05003 		and	r3, r3, #80
 328:Middlewares/Third_Party/FreeRTOS/Source/portable/GCC/ARM_CM4F/port.c **** 
 738              		.loc 1 328 30 view .LVU145
 739 0042 3F4A     		ldr	r2, .L56+12
 740 0044 1370     		strb	r3, [r2]
 336:Middlewares/Third_Party/FreeRTOS/Source/portable/GCC/ARM_CM4F/port.c **** 
 741              		.loc 1 336 9 is_stmt 1 view .LVU146
 742 0046 D3B9     		cbnz	r3, .L43
 336:Middlewares/Third_Party/FreeRTOS/Source/portable/GCC/ARM_CM4F/port.c **** 
 743              		.loc 1 336 9 discriminator 1 view .LVU147
 744              	.LBB52:
 745              	.LBI52:
 201:Middlewares/Third_Party/FreeRTOS/Source/portable/GCC/ARM_CM4F/portmacro.h ****     {
 746              		.loc 2 201 34 view .LVU148
 747              	.LBB53:
 203:Middlewares/Third_Party/FreeRTOS/Source/portable/GCC/ARM_CM4F/portmacro.h **** 
ARM GAS  /tmp/ccBqI1NG.s 			page 34


 748              		.loc 2 203 9 view .LVU149
 205:Middlewares/Third_Party/FreeRTOS/Source/portable/GCC/ARM_CM4F/portmacro.h ****         (
 749              		.loc 2 205 9 view .LVU150
 750              		.syntax unified
 751              	@ 205 "Middlewares/Third_Party/FreeRTOS/Source/portable/GCC/ARM_CM4F/portmacro.h" 1
 752 0048 4FF05003 		   mov r3, #80                                              
 753 004c 83F31188 	   msr basepri, r3                                         
 754 0050 BFF36F8F 	   isb                                                     
 755 0054 BFF34F8F 	   dsb                                                     
 756              	
 757              	@ 0 "" 2
 758              		.thumb
 759              		.syntax unified
 760              	.L44:
 761              	.LBE53:
 762              	.LBE52:
 336:Middlewares/Third_Party/FreeRTOS/Source/portable/GCC/ARM_CM4F/port.c **** 
 763              		.loc 1 336 9 discriminator 3 view .LVU151
 336:Middlewares/Third_Party/FreeRTOS/Source/portable/GCC/ARM_CM4F/port.c **** 
 764              		.loc 1 336 9 discriminator 3 view .LVU152
 765 0058 FEE7     		b	.L44
 766              	.LVL14:
 767              	.L52:
 768              	.LCFI5:
 769              		.cfi_def_cfa_offset 0
 770              		.cfi_restore 4
 771              		.cfi_restore 5
 772              		.cfi_restore 14
 336:Middlewares/Third_Party/FreeRTOS/Source/portable/GCC/ARM_CM4F/port.c **** 
 773              		.loc 1 336 9 is_stmt 0 discriminator 3 view .LVU153
 774              	.LBE51:
 302:Middlewares/Third_Party/FreeRTOS/Source/portable/GCC/ARM_CM4F/port.c ****     configASSERT( portCPUID != portCORTEX_M7_r0p0_ID );
 775              		.loc 1 302 5 is_stmt 1 discriminator 1 view .LVU154
 776              	.LBB56:
 777              	.LBI56:
 201:Middlewares/Third_Party/FreeRTOS/Source/portable/GCC/ARM_CM4F/portmacro.h ****     {
 778              		.loc 2 201 34 view .LVU155
 779              	.LBB57:
 203:Middlewares/Third_Party/FreeRTOS/Source/portable/GCC/ARM_CM4F/portmacro.h **** 
 780              		.loc 2 203 9 view .LVU156
 205:Middlewares/Third_Party/FreeRTOS/Source/portable/GCC/ARM_CM4F/portmacro.h ****         (
 781              		.loc 2 205 9 view .LVU157
 782              		.syntax unified
 783              	@ 205 "Middlewares/Third_Party/FreeRTOS/Source/portable/GCC/ARM_CM4F/portmacro.h" 1
 784 005a 4FF05003 		   mov r3, #80                                              
 785 005e 83F31188 	   msr basepri, r3                                         
 786 0062 BFF36F8F 	   isb                                                     
 787 0066 BFF34F8F 	   dsb                                                     
 788              	
 789              	@ 0 "" 2
 790              		.thumb
 791              		.syntax unified
 792              	.L40:
 793              	.LBE57:
 794              	.LBE56:
 302:Middlewares/Third_Party/FreeRTOS/Source/portable/GCC/ARM_CM4F/port.c ****     configASSERT( portCPUID != portCORTEX_M7_r0p0_ID );
 795              		.loc 1 302 5 discriminator 3 view .LVU158
ARM GAS  /tmp/ccBqI1NG.s 			page 35


 302:Middlewares/Third_Party/FreeRTOS/Source/portable/GCC/ARM_CM4F/port.c ****     configASSERT( portCPUID != portCORTEX_M7_r0p0_ID );
 796              		.loc 1 302 5 discriminator 3 view .LVU159
 797 006a FEE7     		b	.L40
 798              	.L53:
 303:Middlewares/Third_Party/FreeRTOS/Source/portable/GCC/ARM_CM4F/port.c **** 
 799              		.loc 1 303 5 discriminator 1 view .LVU160
 800              	.LBB58:
 801              	.LBI58:
 201:Middlewares/Third_Party/FreeRTOS/Source/portable/GCC/ARM_CM4F/portmacro.h ****     {
 802              		.loc 2 201 34 view .LVU161
 803              	.LBB59:
 203:Middlewares/Third_Party/FreeRTOS/Source/portable/GCC/ARM_CM4F/portmacro.h **** 
 804              		.loc 2 203 9 view .LVU162
 205:Middlewares/Third_Party/FreeRTOS/Source/portable/GCC/ARM_CM4F/portmacro.h ****         (
 805              		.loc 2 205 9 view .LVU163
 806              		.syntax unified
 807              	@ 205 "Middlewares/Third_Party/FreeRTOS/Source/portable/GCC/ARM_CM4F/portmacro.h" 1
 808 006c 4FF05003 		   mov r3, #80                                              
 809 0070 83F31188 	   msr basepri, r3                                         
 810 0074 BFF36F8F 	   isb                                                     
 811 0078 BFF34F8F 	   dsb                                                     
 812              	
 813              	@ 0 "" 2
 814              		.thumb
 815              		.syntax unified
 816              	.L42:
 817              	.LBE59:
 818              	.LBE58:
 303:Middlewares/Third_Party/FreeRTOS/Source/portable/GCC/ARM_CM4F/port.c **** 
 819              		.loc 1 303 5 discriminator 3 view .LVU164
 303:Middlewares/Third_Party/FreeRTOS/Source/portable/GCC/ARM_CM4F/port.c **** 
 820              		.loc 1 303 5 discriminator 3 view .LVU165
 821 007c FEE7     		b	.L42
 822              	.LVL15:
 823              	.L43:
 824              	.LCFI6:
 825              		.cfi_def_cfa_offset 24
 826              		.cfi_offset 4, -12
 827              		.cfi_offset 5, -8
 828              		.cfi_offset 14, -4
 829              	.LBB60:
 336:Middlewares/Third_Party/FreeRTOS/Source/portable/GCC/ARM_CM4F/port.c **** 
 830              		.loc 1 336 45 discriminator 2 view .LVU166
 340:Middlewares/Third_Party/FreeRTOS/Source/portable/GCC/ARM_CM4F/port.c **** 
 831              		.loc 1 340 9 view .LVU167
 832 007e 9DF80330 		ldrb	r3, [sp, #3]	@ zero_extendqisi2
 833 0082 DB43     		mvns	r3, r3
 834 0084 13F0500F 		tst	r3, #80
 835 0088 08D0     		beq	.L45
 340:Middlewares/Third_Party/FreeRTOS/Source/portable/GCC/ARM_CM4F/port.c **** 
 836              		.loc 1 340 9 discriminator 1 view .LVU168
 837              	.LBB54:
 838              	.LBI54:
 201:Middlewares/Third_Party/FreeRTOS/Source/portable/GCC/ARM_CM4F/portmacro.h ****     {
 839              		.loc 2 201 34 view .LVU169
 840              	.LBB55:
 203:Middlewares/Third_Party/FreeRTOS/Source/portable/GCC/ARM_CM4F/portmacro.h **** 
ARM GAS  /tmp/ccBqI1NG.s 			page 36


 841              		.loc 2 203 9 view .LVU170
 205:Middlewares/Third_Party/FreeRTOS/Source/portable/GCC/ARM_CM4F/portmacro.h ****         (
 842              		.loc 2 205 9 view .LVU171
 843              		.syntax unified
 844              	@ 205 "Middlewares/Third_Party/FreeRTOS/Source/portable/GCC/ARM_CM4F/portmacro.h" 1
 845 008a 4FF05003 		   mov r3, #80                                              
 846 008e 83F31188 	   msr basepri, r3                                         
 847 0092 BFF36F8F 	   isb                                                     
 848 0096 BFF34F8F 	   dsb                                                     
 849              	
 850              	@ 0 "" 2
 851              		.thumb
 852              		.syntax unified
 853              	.L46:
 854              	.LBE55:
 855              	.LBE54:
 340:Middlewares/Third_Party/FreeRTOS/Source/portable/GCC/ARM_CM4F/port.c **** 
 856              		.loc 1 340 9 discriminator 3 view .LVU172
 340:Middlewares/Third_Party/FreeRTOS/Source/portable/GCC/ARM_CM4F/port.c **** 
 857              		.loc 1 340 9 discriminator 3 view .LVU173
 858 009a FEE7     		b	.L46
 859              	.L45:
 345:Middlewares/Third_Party/FreeRTOS/Source/portable/GCC/ARM_CM4F/port.c ****         {
 860              		.loc 1 345 61 view .LVU174
 345:Middlewares/Third_Party/FreeRTOS/Source/portable/GCC/ARM_CM4F/port.c ****         {
 861              		.loc 1 345 37 is_stmt 0 view .LVU175
 862 009c 9DF80330 		ldrb	r3, [sp, #3]	@ zero_extendqisi2
 345:Middlewares/Third_Party/FreeRTOS/Source/portable/GCC/ARM_CM4F/port.c ****         {
 863              		.loc 1 345 61 view .LVU176
 864 00a0 13F0800F 		tst	r3, #128
 865 00a4 09D0     		beq	.L54
 347:Middlewares/Third_Party/FreeRTOS/Source/portable/GCC/ARM_CM4F/port.c ****             ucMaxPriorityValue <<= ( uint8_t ) 0x01;
 866              		.loc 1 347 13 is_stmt 1 view .LVU177
 347:Middlewares/Third_Party/FreeRTOS/Source/portable/GCC/ARM_CM4F/port.c ****             ucMaxPriorityValue <<= ( uint8_t ) 0x01;
 867              		.loc 1 347 34 is_stmt 0 view .LVU178
 868 00a6 019B     		ldr	r3, [sp, #4]
 869 00a8 0133     		adds	r3, r3, #1
 870 00aa 0193     		str	r3, [sp, #4]
 348:Middlewares/Third_Party/FreeRTOS/Source/portable/GCC/ARM_CM4F/port.c ****         }
 871              		.loc 1 348 13 is_stmt 1 view .LVU179
 348:Middlewares/Third_Party/FreeRTOS/Source/portable/GCC/ARM_CM4F/port.c ****         }
 872              		.loc 1 348 32 is_stmt 0 view .LVU180
 873 00ac 9DF80330 		ldrb	r3, [sp, #3]	@ zero_extendqisi2
 874 00b0 5B00     		lsls	r3, r3, #1
 875 00b2 DBB2     		uxtb	r3, r3
 876 00b4 8DF80330 		strb	r3, [sp, #3]
 877 00b8 F0E7     		b	.L45
 878              	.L54:
 351:Middlewares/Third_Party/FreeRTOS/Source/portable/GCC/ARM_CM4F/port.c ****         {
 879              		.loc 1 351 9 is_stmt 1 view .LVU181
 351:Middlewares/Third_Party/FreeRTOS/Source/portable/GCC/ARM_CM4F/port.c ****         {
 880              		.loc 1 351 35 is_stmt 0 view .LVU182
 881 00ba 019B     		ldr	r3, [sp, #4]
 351:Middlewares/Third_Party/FreeRTOS/Source/portable/GCC/ARM_CM4F/port.c ****         {
 882              		.loc 1 351 11 view .LVU183
 883 00bc 082B     		cmp	r3, #8
 884 00be 34D0     		beq	.L55
ARM GAS  /tmp/ccBqI1NG.s 			page 37


 375:Middlewares/Third_Party/FreeRTOS/Source/portable/GCC/ARM_CM4F/port.c ****         }
 885              		.loc 1 375 13 is_stmt 1 view .LVU184
 375:Middlewares/Third_Party/FreeRTOS/Source/portable/GCC/ARM_CM4F/port.c ****         }
 886              		.loc 1 375 56 is_stmt 0 view .LVU185
 887 00c0 019B     		ldr	r3, [sp, #4]
 888 00c2 C3F10703 		rsb	r3, r3, #7
 375:Middlewares/Third_Party/FreeRTOS/Source/portable/GCC/ARM_CM4F/port.c ****         }
 889              		.loc 1 375 32 view .LVU186
 890 00c6 1F4A     		ldr	r2, .L56+16
 891 00c8 1360     		str	r3, [r2]
 892              	.L49:
 380:Middlewares/Third_Party/FreeRTOS/Source/portable/GCC/ARM_CM4F/port.c ****         ulMaxPRIGROUPValue &= portPRIORITY_GROUP_MASK;
 893              		.loc 1 380 9 is_stmt 1 view .LVU187
 380:Middlewares/Third_Party/FreeRTOS/Source/portable/GCC/ARM_CM4F/port.c ****         ulMaxPRIGROUPValue &= portPRIORITY_GROUP_MASK;
 894              		.loc 1 380 28 is_stmt 0 view .LVU188
 895 00ca 1E4A     		ldr	r2, .L56+16
 896 00cc 1368     		ldr	r3, [r2]
 897 00ce 1B02     		lsls	r3, r3, #8
 898 00d0 1360     		str	r3, [r2]
 381:Middlewares/Third_Party/FreeRTOS/Source/portable/GCC/ARM_CM4F/port.c **** 
 899              		.loc 1 381 9 is_stmt 1 view .LVU189
 381:Middlewares/Third_Party/FreeRTOS/Source/portable/GCC/ARM_CM4F/port.c **** 
 900              		.loc 1 381 28 is_stmt 0 view .LVU190
 901 00d2 03F4E063 		and	r3, r3, #1792
 902 00d6 1360     		str	r3, [r2]
 385:Middlewares/Third_Party/FreeRTOS/Source/portable/GCC/ARM_CM4F/port.c ****     }
 903              		.loc 1 385 9 is_stmt 1 view .LVU191
 385:Middlewares/Third_Party/FreeRTOS/Source/portable/GCC/ARM_CM4F/port.c ****     }
 904              		.loc 1 385 39 is_stmt 0 view .LVU192
 905 00d8 9DF80230 		ldrb	r3, [sp, #2]	@ zero_extendqisi2
 906 00dc DBB2     		uxtb	r3, r3
 907 00de 174A     		ldr	r2, .L56+8
 908 00e0 1370     		strb	r3, [r2]
 909              	.LBE60:
 390:Middlewares/Third_Party/FreeRTOS/Source/portable/GCC/ARM_CM4F/port.c ****     portNVIC_SHPR3_REG |= portNVIC_SYSTICK_PRI;
 910              		.loc 1 390 5 is_stmt 1 view .LVU193
 911 00e2 4FF0E024 		mov	r4, #-536813568
 912 00e6 D4F8203D 		ldr	r3, [r4, #3360]
 390:Middlewares/Third_Party/FreeRTOS/Source/portable/GCC/ARM_CM4F/port.c ****     portNVIC_SHPR3_REG |= portNVIC_SYSTICK_PRI;
 913              		.loc 1 390 24 is_stmt 0 view .LVU194
 914 00ea 43F47F03 		orr	r3, r3, #16711680
 915 00ee C4F8203D 		str	r3, [r4, #3360]
 391:Middlewares/Third_Party/FreeRTOS/Source/portable/GCC/ARM_CM4F/port.c **** 
 916              		.loc 1 391 5 is_stmt 1 view .LVU195
 917 00f2 D4F8203D 		ldr	r3, [r4, #3360]
 391:Middlewares/Third_Party/FreeRTOS/Source/portable/GCC/ARM_CM4F/port.c **** 
 918              		.loc 1 391 24 is_stmt 0 view .LVU196
 919 00f6 43F07F43 		orr	r3, r3, #-16777216
 920 00fa C4F8203D 		str	r3, [r4, #3360]
 395:Middlewares/Third_Party/FreeRTOS/Source/portable/GCC/ARM_CM4F/port.c **** 
 921              		.loc 1 395 5 is_stmt 1 view .LVU197
 922 00fe FFF7FEFF 		bl	vPortSetupTimerInterrupt
 923              	.LVL16:
 398:Middlewares/Third_Party/FreeRTOS/Source/portable/GCC/ARM_CM4F/port.c **** 
 924              		.loc 1 398 5 view .LVU198
 398:Middlewares/Third_Party/FreeRTOS/Source/portable/GCC/ARM_CM4F/port.c **** 
 925              		.loc 1 398 23 is_stmt 0 view .LVU199
ARM GAS  /tmp/ccBqI1NG.s 			page 38


 926 0102 0025     		movs	r5, #0
 927 0104 104B     		ldr	r3, .L56+20
 928 0106 1D60     		str	r5, [r3]
 401:Middlewares/Third_Party/FreeRTOS/Source/portable/GCC/ARM_CM4F/port.c **** 
 929              		.loc 1 401 5 is_stmt 1 view .LVU200
 930 0108 FFF7FEFF 		bl	vPortEnableVFP
 931              	.LVL17:
 404:Middlewares/Third_Party/FreeRTOS/Source/portable/GCC/ARM_CM4F/port.c **** 
 932              		.loc 1 404 5 view .LVU201
 933 010c D4F8343F 		ldr	r3, [r4, #3892]
 404:Middlewares/Third_Party/FreeRTOS/Source/portable/GCC/ARM_CM4F/port.c **** 
 934              		.loc 1 404 20 is_stmt 0 view .LVU202
 935 0110 43F04043 		orr	r3, r3, #-1073741824
 936 0114 C4F8343F 		str	r3, [r4, #3892]
 407:Middlewares/Third_Party/FreeRTOS/Source/portable/GCC/ARM_CM4F/port.c **** 
 937              		.loc 1 407 5 is_stmt 1 view .LVU203
 938 0118 FFF7FEFF 		bl	prvPortStartFirstTask
 939              	.LVL18:
 415:Middlewares/Third_Party/FreeRTOS/Source/portable/GCC/ARM_CM4F/port.c ****     prvTaskExitError();
 940              		.loc 1 415 5 view .LVU204
 941 011c FFF7FEFF 		bl	vTaskSwitchContext
 942              	.LVL19:
 416:Middlewares/Third_Party/FreeRTOS/Source/portable/GCC/ARM_CM4F/port.c **** 
 943              		.loc 1 416 5 view .LVU205
 944 0120 FFF7FEFF 		bl	prvTaskExitError
 945              	.LVL20:
 419:Middlewares/Third_Party/FreeRTOS/Source/portable/GCC/ARM_CM4F/port.c **** }
 946              		.loc 1 419 5 view .LVU206
 420:Middlewares/Third_Party/FreeRTOS/Source/portable/GCC/ARM_CM4F/port.c **** /*-----------------------------------------------------------*/
 947              		.loc 1 420 1 is_stmt 0 view .LVU207
 948 0124 2846     		mov	r0, r5
 949 0126 03B0     		add	sp, sp, #12
 950              	.LCFI7:
 951              		.cfi_remember_state
 952              		.cfi_def_cfa_offset 12
 953              		@ sp needed
 954 0128 30BD     		pop	{r4, r5, pc}
 955              	.L55:
 956              	.LCFI8:
 957              		.cfi_restore_state
 958              	.LBB61:
 370:Middlewares/Third_Party/FreeRTOS/Source/portable/GCC/ARM_CM4F/port.c ****             ulMaxPRIGROUPValue = 0;
 959              		.loc 1 370 13 is_stmt 1 view .LVU208
 370:Middlewares/Third_Party/FreeRTOS/Source/portable/GCC/ARM_CM4F/port.c ****             ulMaxPRIGROUPValue = 0;
 960              		.loc 1 370 82 discriminator 2 view .LVU209
 371:Middlewares/Third_Party/FreeRTOS/Source/portable/GCC/ARM_CM4F/port.c ****         }
 961              		.loc 1 371 13 view .LVU210
 371:Middlewares/Third_Party/FreeRTOS/Source/portable/GCC/ARM_CM4F/port.c ****         }
 962              		.loc 1 371 32 is_stmt 0 view .LVU211
 963 012a 064B     		ldr	r3, .L56+16
 964 012c 0022     		movs	r2, #0
 965 012e 1A60     		str	r2, [r3]
 966 0130 CBE7     		b	.L49
 967              	.L57:
 968 0132 00BF     		.align	2
 969              	.L56:
 970 0134 71C20F41 		.word	1091551857
ARM GAS  /tmp/ccBqI1NG.s 			page 39


 971 0138 70C20F41 		.word	1091551856
 972 013c 00E400E0 		.word	-536812544
 973 0140 00000000 		.word	ucMaxSysCallPriority
 974 0144 00000000 		.word	ulMaxPRIGROUPValue
 975 0148 00000000 		.word	uxCriticalNesting
 976              	.LBE61:
 977              		.cfi_endproc
 978              	.LFE8:
 980              		.section	.text.vPortValidateInterruptPriority,"ax",%progbits
 981              		.align	1
 982              		.global	vPortValidateInterruptPriority
 983              		.syntax unified
 984              		.thumb
 985              		.thumb_func
 987              	vPortValidateInterruptPriority:
 988              	.LFB16:
 797:Middlewares/Third_Party/FreeRTOS/Source/portable/GCC/ARM_CM4F/port.c **** /*-----------------------------------------------------------*/
 798:Middlewares/Third_Party/FreeRTOS/Source/portable/GCC/ARM_CM4F/port.c **** 
 799:Middlewares/Third_Party/FreeRTOS/Source/portable/GCC/ARM_CM4F/port.c **** #if ( configASSERT_DEFINED == 1 )
 800:Middlewares/Third_Party/FreeRTOS/Source/portable/GCC/ARM_CM4F/port.c **** 
 801:Middlewares/Third_Party/FreeRTOS/Source/portable/GCC/ARM_CM4F/port.c ****     void vPortValidateInterruptPriority( void )
 802:Middlewares/Third_Party/FreeRTOS/Source/portable/GCC/ARM_CM4F/port.c ****     {
 989              		.loc 1 802 5 is_stmt 1 view -0
 990              		.cfi_startproc
 991              		@ args = 0, pretend = 0, frame = 0
 992              		@ frame_needed = 0, uses_anonymous_args = 0
 993              		@ link register save eliminated.
 803:Middlewares/Third_Party/FreeRTOS/Source/portable/GCC/ARM_CM4F/port.c ****         uint32_t ulCurrentInterrupt;
 994              		.loc 1 803 9 view .LVU213
 804:Middlewares/Third_Party/FreeRTOS/Source/portable/GCC/ARM_CM4F/port.c ****         uint8_t ucCurrentPriority;
 995              		.loc 1 804 9 view .LVU214
 805:Middlewares/Third_Party/FreeRTOS/Source/portable/GCC/ARM_CM4F/port.c **** 
 806:Middlewares/Third_Party/FreeRTOS/Source/portable/GCC/ARM_CM4F/port.c ****         /* Obtain the number of the currently executing interrupt. */
 807:Middlewares/Third_Party/FreeRTOS/Source/portable/GCC/ARM_CM4F/port.c ****         __asm volatile ( "mrs %0, ipsr" : "=r" ( ulCurrentInterrupt )::"memory" );
 996              		.loc 1 807 9 view .LVU215
 997              		.syntax unified
 998              	@ 807 "Middlewares/Third_Party/FreeRTOS/Source/portable/GCC/ARM_CM4F/port.c" 1
 999 0000 EFF30583 		mrs r3, ipsr
 1000              	@ 0 "" 2
 1001              	.LVL21:
 808:Middlewares/Third_Party/FreeRTOS/Source/portable/GCC/ARM_CM4F/port.c **** 
 809:Middlewares/Third_Party/FreeRTOS/Source/portable/GCC/ARM_CM4F/port.c ****         /* Is the interrupt number a user defined interrupt? */
 810:Middlewares/Third_Party/FreeRTOS/Source/portable/GCC/ARM_CM4F/port.c ****         if( ulCurrentInterrupt >= portFIRST_USER_INTERRUPT_NUMBER )
 1002              		.loc 1 810 9 view .LVU216
 1003              		.loc 1 810 11 is_stmt 0 view .LVU217
 1004              		.thumb
 1005              		.syntax unified
 1006 0004 0F2B     		cmp	r3, #15
 1007 0006 0ED9     		bls	.L59
 811:Middlewares/Third_Party/FreeRTOS/Source/portable/GCC/ARM_CM4F/port.c ****         {
 812:Middlewares/Third_Party/FreeRTOS/Source/portable/GCC/ARM_CM4F/port.c ****             /* Look up the interrupt's priority. */
 813:Middlewares/Third_Party/FreeRTOS/Source/portable/GCC/ARM_CM4F/port.c ****             ucCurrentPriority = pcInterruptPriorityRegisters[ ulCurrentInterrupt ];
 1008              		.loc 1 813 13 is_stmt 1 view .LVU218
 1009              		.loc 1 813 61 is_stmt 0 view .LVU219
 1010 0008 114A     		ldr	r2, .L63
 1011              		.loc 1 813 31 view .LVU220
 1012 000a 9A5C     		ldrb	r2, [r3, r2]	@ zero_extendqisi2
ARM GAS  /tmp/ccBqI1NG.s 			page 40


 1013              	.LVL22:
 814:Middlewares/Third_Party/FreeRTOS/Source/portable/GCC/ARM_CM4F/port.c **** 
 815:Middlewares/Third_Party/FreeRTOS/Source/portable/GCC/ARM_CM4F/port.c ****             /* The following assertion will fail if a service routine (ISR) for
 816:Middlewares/Third_Party/FreeRTOS/Source/portable/GCC/ARM_CM4F/port.c ****              * an interrupt that has been assigned a priority above
 817:Middlewares/Third_Party/FreeRTOS/Source/portable/GCC/ARM_CM4F/port.c ****              * configMAX_SYSCALL_INTERRUPT_PRIORITY calls an ISR safe FreeRTOS API
 818:Middlewares/Third_Party/FreeRTOS/Source/portable/GCC/ARM_CM4F/port.c ****              * function.  ISR safe FreeRTOS API functions must *only* be called
 819:Middlewares/Third_Party/FreeRTOS/Source/portable/GCC/ARM_CM4F/port.c ****              * from interrupts that have been assigned a priority at or below
 820:Middlewares/Third_Party/FreeRTOS/Source/portable/GCC/ARM_CM4F/port.c ****              * configMAX_SYSCALL_INTERRUPT_PRIORITY.
 821:Middlewares/Third_Party/FreeRTOS/Source/portable/GCC/ARM_CM4F/port.c ****              *
 822:Middlewares/Third_Party/FreeRTOS/Source/portable/GCC/ARM_CM4F/port.c ****              * Numerically low interrupt priority numbers represent logically high
 823:Middlewares/Third_Party/FreeRTOS/Source/portable/GCC/ARM_CM4F/port.c ****              * interrupt priorities, therefore the priority of the interrupt must
 824:Middlewares/Third_Party/FreeRTOS/Source/portable/GCC/ARM_CM4F/port.c ****              * be set to a value equal to or numerically *higher* than
 825:Middlewares/Third_Party/FreeRTOS/Source/portable/GCC/ARM_CM4F/port.c ****              * configMAX_SYSCALL_INTERRUPT_PRIORITY.
 826:Middlewares/Third_Party/FreeRTOS/Source/portable/GCC/ARM_CM4F/port.c ****              *
 827:Middlewares/Third_Party/FreeRTOS/Source/portable/GCC/ARM_CM4F/port.c ****              * Interrupts that  use the FreeRTOS API must not be left at their
 828:Middlewares/Third_Party/FreeRTOS/Source/portable/GCC/ARM_CM4F/port.c ****              * default priority of  zero as that is the highest possible priority,
 829:Middlewares/Third_Party/FreeRTOS/Source/portable/GCC/ARM_CM4F/port.c ****              * which is guaranteed to be above configMAX_SYSCALL_INTERRUPT_PRIORITY,
 830:Middlewares/Third_Party/FreeRTOS/Source/portable/GCC/ARM_CM4F/port.c ****              * and  therefore also guaranteed to be invalid.
 831:Middlewares/Third_Party/FreeRTOS/Source/portable/GCC/ARM_CM4F/port.c ****              *
 832:Middlewares/Third_Party/FreeRTOS/Source/portable/GCC/ARM_CM4F/port.c ****              * FreeRTOS maintains separate thread and ISR API functions to ensure
 833:Middlewares/Third_Party/FreeRTOS/Source/portable/GCC/ARM_CM4F/port.c ****              * interrupt entry is as fast and simple as possible.
 834:Middlewares/Third_Party/FreeRTOS/Source/portable/GCC/ARM_CM4F/port.c ****              *
 835:Middlewares/Third_Party/FreeRTOS/Source/portable/GCC/ARM_CM4F/port.c ****              * The following links provide detailed information:
 836:Middlewares/Third_Party/FreeRTOS/Source/portable/GCC/ARM_CM4F/port.c ****              * https://www.FreeRTOS.org/RTOS-Cortex-M3-M4.html
 837:Middlewares/Third_Party/FreeRTOS/Source/portable/GCC/ARM_CM4F/port.c ****              * https://www.FreeRTOS.org/FAQHelp.html */
 838:Middlewares/Third_Party/FreeRTOS/Source/portable/GCC/ARM_CM4F/port.c ****             configASSERT( ucCurrentPriority >= ucMaxSysCallPriority );
 1014              		.loc 1 838 13 is_stmt 1 view .LVU221
 1015 000c 114B     		ldr	r3, .L63+4
 1016              	.LVL23:
 1017              		.loc 1 838 13 is_stmt 0 view .LVU222
 1018 000e 1B78     		ldrb	r3, [r3]	@ zero_extendqisi2
 1019 0010 9A42     		cmp	r2, r3
 1020 0012 08D2     		bcs	.L59
 1021              		.loc 1 838 13 is_stmt 1 discriminator 1 view .LVU223
 1022              	.LBB62:
 1023              	.LBI62:
 201:Middlewares/Third_Party/FreeRTOS/Source/portable/GCC/ARM_CM4F/portmacro.h ****     {
 1024              		.loc 2 201 34 view .LVU224
 1025              	.LBB63:
 203:Middlewares/Third_Party/FreeRTOS/Source/portable/GCC/ARM_CM4F/portmacro.h **** 
 1026              		.loc 2 203 9 view .LVU225
 205:Middlewares/Third_Party/FreeRTOS/Source/portable/GCC/ARM_CM4F/portmacro.h ****         (
 1027              		.loc 2 205 9 view .LVU226
 1028              		.syntax unified
 1029              	@ 205 "Middlewares/Third_Party/FreeRTOS/Source/portable/GCC/ARM_CM4F/portmacro.h" 1
 1030 0014 4FF05003 		   mov r3, #80                                              
 1031 0018 83F31188 	   msr basepri, r3                                         
 1032 001c BFF36F8F 	   isb                                                     
 1033 0020 BFF34F8F 	   dsb                                                     
 1034              	
 1035              	@ 0 "" 2
 1036              		.thumb
 1037              		.syntax unified
 1038              	.L60:
 1039              	.LBE63:
 1040              	.LBE62:
 1041              		.loc 1 838 13 discriminator 3 view .LVU227
ARM GAS  /tmp/ccBqI1NG.s 			page 41


 1042              		.loc 1 838 13 discriminator 3 view .LVU228
 1043 0024 FEE7     		b	.L60
 1044              	.LVL24:
 1045              	.L59:
 1046              		.loc 1 838 70 discriminator 2 view .LVU229
 839:Middlewares/Third_Party/FreeRTOS/Source/portable/GCC/ARM_CM4F/port.c ****         }
 840:Middlewares/Third_Party/FreeRTOS/Source/portable/GCC/ARM_CM4F/port.c **** 
 841:Middlewares/Third_Party/FreeRTOS/Source/portable/GCC/ARM_CM4F/port.c ****         /* Priority grouping:  The interrupt controller (NVIC) allows the bits
 842:Middlewares/Third_Party/FreeRTOS/Source/portable/GCC/ARM_CM4F/port.c ****          * that define each interrupt's priority to be split between bits that
 843:Middlewares/Third_Party/FreeRTOS/Source/portable/GCC/ARM_CM4F/port.c ****          * define the interrupt's pre-emption priority bits and bits that define
 844:Middlewares/Third_Party/FreeRTOS/Source/portable/GCC/ARM_CM4F/port.c ****          * the interrupt's sub-priority.  For simplicity all bits must be defined
 845:Middlewares/Third_Party/FreeRTOS/Source/portable/GCC/ARM_CM4F/port.c ****          * to be pre-emption priority bits.  The following assertion will fail if
 846:Middlewares/Third_Party/FreeRTOS/Source/portable/GCC/ARM_CM4F/port.c ****          * this is not the case (if some bits represent a sub-priority).
 847:Middlewares/Third_Party/FreeRTOS/Source/portable/GCC/ARM_CM4F/port.c ****          *
 848:Middlewares/Third_Party/FreeRTOS/Source/portable/GCC/ARM_CM4F/port.c ****          * If the application only uses CMSIS libraries for interrupt
 849:Middlewares/Third_Party/FreeRTOS/Source/portable/GCC/ARM_CM4F/port.c ****          * configuration then the correct setting can be achieved on all Cortex-M
 850:Middlewares/Third_Party/FreeRTOS/Source/portable/GCC/ARM_CM4F/port.c ****          * devices by calling NVIC_SetPriorityGrouping( 0 ); before starting the
 851:Middlewares/Third_Party/FreeRTOS/Source/portable/GCC/ARM_CM4F/port.c ****          * scheduler.  Note however that some vendor specific peripheral libraries
 852:Middlewares/Third_Party/FreeRTOS/Source/portable/GCC/ARM_CM4F/port.c ****          * assume a non-zero priority group setting, in which cases using a value
 853:Middlewares/Third_Party/FreeRTOS/Source/portable/GCC/ARM_CM4F/port.c ****          * of zero will result in unpredictable behaviour. */
 854:Middlewares/Third_Party/FreeRTOS/Source/portable/GCC/ARM_CM4F/port.c ****         configASSERT( ( portAIRCR_REG & portPRIORITY_GROUP_MASK ) <= ulMaxPRIGROUPValue );
 1047              		.loc 1 854 9 view .LVU230
 1048 0026 4FF0E023 		mov	r3, #-536813568
 1049 002a D3F80C3D 		ldr	r3, [r3, #3340]
 1050 002e 03F4E063 		and	r3, r3, #1792
 1051 0032 094A     		ldr	r2, .L63+8
 1052 0034 1268     		ldr	r2, [r2]
 1053 0036 9342     		cmp	r3, r2
 1054 0038 08D9     		bls	.L58
 1055              		.loc 1 854 9 discriminator 1 view .LVU231
 1056              	.LBB64:
 1057              	.LBI64:
 201:Middlewares/Third_Party/FreeRTOS/Source/portable/GCC/ARM_CM4F/portmacro.h ****     {
 1058              		.loc 2 201 34 view .LVU232
 1059              	.LBB65:
 203:Middlewares/Third_Party/FreeRTOS/Source/portable/GCC/ARM_CM4F/portmacro.h **** 
 1060              		.loc 2 203 9 view .LVU233
 205:Middlewares/Third_Party/FreeRTOS/Source/portable/GCC/ARM_CM4F/portmacro.h ****         (
 1061              		.loc 2 205 9 view .LVU234
 1062              		.syntax unified
 1063              	@ 205 "Middlewares/Third_Party/FreeRTOS/Source/portable/GCC/ARM_CM4F/portmacro.h" 1
 1064 003a 4FF05003 		   mov r3, #80                                              
 1065 003e 83F31188 	   msr basepri, r3                                         
 1066 0042 BFF36F8F 	   isb                                                     
 1067 0046 BFF34F8F 	   dsb                                                     
 1068              	
 1069              	@ 0 "" 2
 1070              		.thumb
 1071              		.syntax unified
 1072              	.L62:
 1073              	.LBE65:
 1074              	.LBE64:
 1075              		.loc 1 854 9 discriminator 3 view .LVU235
 1076              		.loc 1 854 9 discriminator 3 view .LVU236
 1077 004a FEE7     		b	.L62
 1078              	.L58:
 855:Middlewares/Third_Party/FreeRTOS/Source/portable/GCC/ARM_CM4F/port.c ****     }
ARM GAS  /tmp/ccBqI1NG.s 			page 42


 1079              		.loc 1 855 5 is_stmt 0 view .LVU237
 1080 004c 7047     		bx	lr
 1081              	.L64:
 1082 004e 00BF     		.align	2
 1083              	.L63:
 1084 0050 F0E300E0 		.word	-536812560
 1085 0054 00000000 		.word	ucMaxSysCallPriority
 1086 0058 00000000 		.word	ulMaxPRIGROUPValue
 1087              		.cfi_endproc
 1088              	.LFE16:
 1090              		.section	.bss.ulMaxPRIGROUPValue,"aw",%nobits
 1091              		.align	2
 1094              	ulMaxPRIGROUPValue:
 1095 0000 00000000 		.space	4
 1096              		.section	.bss.ucMaxSysCallPriority,"aw",%nobits
 1099              	ucMaxSysCallPriority:
 1100 0000 00       		.space	1
 1101              		.section	.data.uxCriticalNesting,"aw"
 1102              		.align	2
 1105              	uxCriticalNesting:
 1106 0000 AAAAAAAA 		.word	-1431655766
 1107              		.text
 1108              	.Letext0:
 1109              		.file 3 "/usr/arm-none-eabi/include/machine/_default_types.h"
 1110              		.file 4 "/usr/arm-none-eabi/include/sys/_stdint.h"
 1111              		.file 5 "Middlewares/Third_Party/FreeRTOS/Source/include/projdefs.h"
 1112              		.file 6 "Core/Inc/FreeRTOSConfig.h"
 1113              		.file 7 "Middlewares/Third_Party/FreeRTOS/Source/include/task.h"
ARM GAS  /tmp/ccBqI1NG.s 			page 43


DEFINED SYMBOLS
                            *ABS*:00000000 port.c
     /tmp/ccBqI1NG.s:20     .text.prvTaskExitError:00000000 $t
     /tmp/ccBqI1NG.s:25     .text.prvTaskExitError:00000000 prvTaskExitError
     /tmp/ccBqI1NG.s:105    .text.prvTaskExitError:0000003c $d
     /tmp/ccBqI1NG.s:1105   .data.uxCriticalNesting:00000000 uxCriticalNesting
     /tmp/ccBqI1NG.s:110    .text.prvPortStartFirstTask:00000000 $t
     /tmp/ccBqI1NG.s:115    .text.prvPortStartFirstTask:00000000 prvPortStartFirstTask
     /tmp/ccBqI1NG.s:137    .text.prvPortStartFirstTask:00000022 $d
     /tmp/ccBqI1NG.s:137    .text.prvPortStartFirstTask:00000024 $d
     /tmp/ccBqI1NG.s:147    .text.vPortEnableVFP:00000000 $t
     /tmp/ccBqI1NG.s:152    .text.vPortEnableVFP:00000000 vPortEnableVFP
     /tmp/ccBqI1NG.s:168    .text.vPortEnableVFP:0000000e $d
     /tmp/ccBqI1NG.s:168    .text.vPortEnableVFP:00000010 $d
     /tmp/ccBqI1NG.s:178    .text.pxPortInitialiseStack:00000000 $t
     /tmp/ccBqI1NG.s:184    .text.pxPortInitialiseStack:00000000 pxPortInitialiseStack
     /tmp/ccBqI1NG.s:234    .text.pxPortInitialiseStack:00000028 $d
     /tmp/ccBqI1NG.s:239    .text.SVC_Handler:00000000 $t
     /tmp/ccBqI1NG.s:245    .text.SVC_Handler:00000000 SVC_Handler
     /tmp/ccBqI1NG.s:266    .text.SVC_Handler:00000020 pxCurrentTCBConst2
     /tmp/ccBqI1NG.s:266    .text.SVC_Handler:00000020 $d
     /tmp/ccBqI1NG.s:276    .text.vPortEndScheduler:00000000 $t
     /tmp/ccBqI1NG.s:282    .text.vPortEndScheduler:00000000 vPortEndScheduler
     /tmp/ccBqI1NG.s:323    .text.vPortEndScheduler:00000020 $d
     /tmp/ccBqI1NG.s:328    .text.vPortEnterCritical:00000000 $t
     /tmp/ccBqI1NG.s:334    .text.vPortEnterCritical:00000000 vPortEnterCritical
     /tmp/ccBqI1NG.s:405    .text.vPortEnterCritical:00000040 $d
     /tmp/ccBqI1NG.s:410    .text.vPortExitCritical:00000000 $t
     /tmp/ccBqI1NG.s:416    .text.vPortExitCritical:00000000 vPortExitCritical
     /tmp/ccBqI1NG.s:483    .text.vPortExitCritical:00000028 $d
     /tmp/ccBqI1NG.s:488    .text.PendSV_Handler:00000000 $t
     /tmp/ccBqI1NG.s:494    .text.PendSV_Handler:00000000 PendSV_Handler
     /tmp/ccBqI1NG.s:543    .text.PendSV_Handler:00000060 pxCurrentTCBConst
     /tmp/ccBqI1NG.s:543    .text.PendSV_Handler:00000060 $d
     /tmp/ccBqI1NG.s:553    .text.xPortSysTickHandler:00000000 $t
     /tmp/ccBqI1NG.s:559    .text.xPortSysTickHandler:00000000 xPortSysTickHandler
     /tmp/ccBqI1NG.s:625    .text.vPortSetupTimerInterrupt:00000000 $t
     /tmp/ccBqI1NG.s:631    .text.vPortSetupTimerInterrupt:00000000 vPortSetupTimerInterrupt
     /tmp/ccBqI1NG.s:666    .text.vPortSetupTimerInterrupt:00000020 $d
     /tmp/ccBqI1NG.s:672    .text.xPortStartScheduler:00000000 $t
     /tmp/ccBqI1NG.s:678    .text.xPortStartScheduler:00000000 xPortStartScheduler
     /tmp/ccBqI1NG.s:970    .text.xPortStartScheduler:00000134 $d
     /tmp/ccBqI1NG.s:1099   .bss.ucMaxSysCallPriority:00000000 ucMaxSysCallPriority
     /tmp/ccBqI1NG.s:1094   .bss.ulMaxPRIGROUPValue:00000000 ulMaxPRIGROUPValue
     /tmp/ccBqI1NG.s:981    .text.vPortValidateInterruptPriority:00000000 $t
     /tmp/ccBqI1NG.s:987    .text.vPortValidateInterruptPriority:00000000 vPortValidateInterruptPriority
     /tmp/ccBqI1NG.s:1084   .text.vPortValidateInterruptPriority:00000050 $d
     /tmp/ccBqI1NG.s:1091   .bss.ulMaxPRIGROUPValue:00000000 $d
     /tmp/ccBqI1NG.s:1100   .bss.ucMaxSysCallPriority:00000000 $d
     /tmp/ccBqI1NG.s:1102   .data.uxCriticalNesting:00000000 $d

UNDEFINED SYMBOLS
pxCurrentTCB
vTaskSwitchContext
xTaskIncrementTick
SystemCoreClock
