ARM GAS  /tmp/ccYmmrDD.s 			page 1


   1              		.cpu cortex-m7
   2              		.arch armv7e-m
   3              		.fpu fpv5-d16
   4              		.eabi_attribute 28, 1
   5              		.eabi_attribute 20, 1
   6              		.eabi_attribute 21, 1
   7              		.eabi_attribute 23, 3
   8              		.eabi_attribute 24, 1
   9              		.eabi_attribute 25, 1
  10              		.eabi_attribute 26, 1
  11              		.eabi_attribute 30, 1
  12              		.eabi_attribute 34, 1
  13              		.eabi_attribute 18, 4
  14              		.file	"stm32h7xx_hal_dma_ex.c"
  15              		.text
  16              	.Ltext0:
  17              		.cfi_sections	.debug_frame
  18              		.file 1 "Drivers/STM32H7xx_HAL_Driver/Src/stm32h7xx_hal_dma_ex.c"
  19              		.section	.text.DMA_MultiBufferSetConfig,"ax",%progbits
  20              		.align	1
  21              		.syntax unified
  22              		.thumb
  23              		.thumb_func
  25              	DMA_MultiBufferSetConfig:
  26              	.LVL0:
  27              	.LFB345:
   1:Drivers/STM32H7xx_HAL_Driver/Src/stm32h7xx_hal_dma_ex.c **** /**
   2:Drivers/STM32H7xx_HAL_Driver/Src/stm32h7xx_hal_dma_ex.c ****   ******************************************************************************
   3:Drivers/STM32H7xx_HAL_Driver/Src/stm32h7xx_hal_dma_ex.c ****   * @file    stm32h7xx_hal_dma_ex.c
   4:Drivers/STM32H7xx_HAL_Driver/Src/stm32h7xx_hal_dma_ex.c ****   * @author  MCD Application Team
   5:Drivers/STM32H7xx_HAL_Driver/Src/stm32h7xx_hal_dma_ex.c ****   * @brief   DMA Extension HAL module driver
   6:Drivers/STM32H7xx_HAL_Driver/Src/stm32h7xx_hal_dma_ex.c ****   *          This file provides firmware functions to manage the following
   7:Drivers/STM32H7xx_HAL_Driver/Src/stm32h7xx_hal_dma_ex.c ****   *          functionalities of the DMA Extension peripheral:
   8:Drivers/STM32H7xx_HAL_Driver/Src/stm32h7xx_hal_dma_ex.c ****   *           + Extended features functions
   9:Drivers/STM32H7xx_HAL_Driver/Src/stm32h7xx_hal_dma_ex.c ****   *
  10:Drivers/STM32H7xx_HAL_Driver/Src/stm32h7xx_hal_dma_ex.c ****   @verbatim
  11:Drivers/STM32H7xx_HAL_Driver/Src/stm32h7xx_hal_dma_ex.c ****   ==============================================================================
  12:Drivers/STM32H7xx_HAL_Driver/Src/stm32h7xx_hal_dma_ex.c ****                         ##### How to use this driver #####
  13:Drivers/STM32H7xx_HAL_Driver/Src/stm32h7xx_hal_dma_ex.c ****   ==============================================================================
  14:Drivers/STM32H7xx_HAL_Driver/Src/stm32h7xx_hal_dma_ex.c ****   [..]
  15:Drivers/STM32H7xx_HAL_Driver/Src/stm32h7xx_hal_dma_ex.c ****   The DMA Extension HAL driver can be used as follows:
  16:Drivers/STM32H7xx_HAL_Driver/Src/stm32h7xx_hal_dma_ex.c ****    (+) Start a multi buffer transfer using the HAL_DMA_MultiBufferStart() function
  17:Drivers/STM32H7xx_HAL_Driver/Src/stm32h7xx_hal_dma_ex.c ****        for polling mode or HAL_DMA_MultiBufferStart_IT() for interrupt mode.
  18:Drivers/STM32H7xx_HAL_Driver/Src/stm32h7xx_hal_dma_ex.c **** 
  19:Drivers/STM32H7xx_HAL_Driver/Src/stm32h7xx_hal_dma_ex.c ****    (+) Configure the DMA_MUX Synchronization Block using HAL_DMAEx_ConfigMuxSync function.
  20:Drivers/STM32H7xx_HAL_Driver/Src/stm32h7xx_hal_dma_ex.c ****    (+) Configure the DMA_MUX Request Generator Block using HAL_DMAEx_ConfigMuxRequestGenerator func
  21:Drivers/STM32H7xx_HAL_Driver/Src/stm32h7xx_hal_dma_ex.c ****        Functions HAL_DMAEx_EnableMuxRequestGenerator and HAL_DMAEx_DisableMuxRequestGenerator can t
  22:Drivers/STM32H7xx_HAL_Driver/Src/stm32h7xx_hal_dma_ex.c ****        to respectively enable/disable the request generator.
  23:Drivers/STM32H7xx_HAL_Driver/Src/stm32h7xx_hal_dma_ex.c **** 
  24:Drivers/STM32H7xx_HAL_Driver/Src/stm32h7xx_hal_dma_ex.c ****    (+) To handle the DMAMUX Interrupts, the function  HAL_DMAEx_MUX_IRQHandler should be called fro
  25:Drivers/STM32H7xx_HAL_Driver/Src/stm32h7xx_hal_dma_ex.c ****        the DMAMUX IRQ handler i.e DMAMUX1_OVR_IRQHandler or DMAMUX2_OVR_IRQHandler .
  26:Drivers/STM32H7xx_HAL_Driver/Src/stm32h7xx_hal_dma_ex.c ****        As only one interrupt line is available for all DMAMUX channels and request generators , HAL
  27:Drivers/STM32H7xx_HAL_Driver/Src/stm32h7xx_hal_dma_ex.c ****        called with, as parameter, the appropriate DMA handle as many as used DMAs in the user proje
  28:Drivers/STM32H7xx_HAL_Driver/Src/stm32h7xx_hal_dma_ex.c ****       (exception done if a given DMA is not using the DMAMUX SYNC block neither a request generator
  29:Drivers/STM32H7xx_HAL_Driver/Src/stm32h7xx_hal_dma_ex.c **** 
  30:Drivers/STM32H7xx_HAL_Driver/Src/stm32h7xx_hal_dma_ex.c ****      -@-  In Memory-to-Memory transfer mode, Multi (Double) Buffer mode is not allowed.
  31:Drivers/STM32H7xx_HAL_Driver/Src/stm32h7xx_hal_dma_ex.c ****      -@-  When Multi (Double) Buffer mode is enabled, the transfer is circular by default.
ARM GAS  /tmp/ccYmmrDD.s 			page 2


  32:Drivers/STM32H7xx_HAL_Driver/Src/stm32h7xx_hal_dma_ex.c ****      -@-  In Multi (Double) buffer mode, it is possible to update the base address for
  33:Drivers/STM32H7xx_HAL_Driver/Src/stm32h7xx_hal_dma_ex.c ****           the AHB memory port on the fly (DMA_SxM0AR or DMA_SxM1AR) when the stream is enabled.
  34:Drivers/STM32H7xx_HAL_Driver/Src/stm32h7xx_hal_dma_ex.c ****      -@-  Multi (Double) buffer mode is possible with DMA and BDMA instances.
  35:Drivers/STM32H7xx_HAL_Driver/Src/stm32h7xx_hal_dma_ex.c **** 
  36:Drivers/STM32H7xx_HAL_Driver/Src/stm32h7xx_hal_dma_ex.c ****   @endverbatim
  37:Drivers/STM32H7xx_HAL_Driver/Src/stm32h7xx_hal_dma_ex.c ****   ******************************************************************************
  38:Drivers/STM32H7xx_HAL_Driver/Src/stm32h7xx_hal_dma_ex.c ****   * @attention
  39:Drivers/STM32H7xx_HAL_Driver/Src/stm32h7xx_hal_dma_ex.c ****   *
  40:Drivers/STM32H7xx_HAL_Driver/Src/stm32h7xx_hal_dma_ex.c ****   * Copyright (c) 2017 STMicroelectronics.
  41:Drivers/STM32H7xx_HAL_Driver/Src/stm32h7xx_hal_dma_ex.c ****   * All rights reserved.
  42:Drivers/STM32H7xx_HAL_Driver/Src/stm32h7xx_hal_dma_ex.c ****   *
  43:Drivers/STM32H7xx_HAL_Driver/Src/stm32h7xx_hal_dma_ex.c ****   * This software is licensed under terms that can be found in the LICENSE file
  44:Drivers/STM32H7xx_HAL_Driver/Src/stm32h7xx_hal_dma_ex.c ****   * in the root directory of this software component.
  45:Drivers/STM32H7xx_HAL_Driver/Src/stm32h7xx_hal_dma_ex.c ****   * If no LICENSE file comes with this software, it is provided AS-IS.
  46:Drivers/STM32H7xx_HAL_Driver/Src/stm32h7xx_hal_dma_ex.c ****   *
  47:Drivers/STM32H7xx_HAL_Driver/Src/stm32h7xx_hal_dma_ex.c ****   ******************************************************************************
  48:Drivers/STM32H7xx_HAL_Driver/Src/stm32h7xx_hal_dma_ex.c ****   */
  49:Drivers/STM32H7xx_HAL_Driver/Src/stm32h7xx_hal_dma_ex.c **** 
  50:Drivers/STM32H7xx_HAL_Driver/Src/stm32h7xx_hal_dma_ex.c **** /* Includes ------------------------------------------------------------------*/
  51:Drivers/STM32H7xx_HAL_Driver/Src/stm32h7xx_hal_dma_ex.c **** #include "stm32h7xx_hal.h"
  52:Drivers/STM32H7xx_HAL_Driver/Src/stm32h7xx_hal_dma_ex.c **** 
  53:Drivers/STM32H7xx_HAL_Driver/Src/stm32h7xx_hal_dma_ex.c **** /** @addtogroup STM32H7xx_HAL_Driver
  54:Drivers/STM32H7xx_HAL_Driver/Src/stm32h7xx_hal_dma_ex.c ****   * @{
  55:Drivers/STM32H7xx_HAL_Driver/Src/stm32h7xx_hal_dma_ex.c ****   */
  56:Drivers/STM32H7xx_HAL_Driver/Src/stm32h7xx_hal_dma_ex.c **** 
  57:Drivers/STM32H7xx_HAL_Driver/Src/stm32h7xx_hal_dma_ex.c **** /** @defgroup DMAEx DMAEx
  58:Drivers/STM32H7xx_HAL_Driver/Src/stm32h7xx_hal_dma_ex.c ****   * @brief DMA Extended HAL module driver
  59:Drivers/STM32H7xx_HAL_Driver/Src/stm32h7xx_hal_dma_ex.c ****   * @{
  60:Drivers/STM32H7xx_HAL_Driver/Src/stm32h7xx_hal_dma_ex.c ****   */
  61:Drivers/STM32H7xx_HAL_Driver/Src/stm32h7xx_hal_dma_ex.c **** 
  62:Drivers/STM32H7xx_HAL_Driver/Src/stm32h7xx_hal_dma_ex.c **** #ifdef HAL_DMA_MODULE_ENABLED
  63:Drivers/STM32H7xx_HAL_Driver/Src/stm32h7xx_hal_dma_ex.c **** 
  64:Drivers/STM32H7xx_HAL_Driver/Src/stm32h7xx_hal_dma_ex.c **** /* Private types -------------------------------------------------------------*/
  65:Drivers/STM32H7xx_HAL_Driver/Src/stm32h7xx_hal_dma_ex.c **** /* Private variables ---------------------------------------------------------*/
  66:Drivers/STM32H7xx_HAL_Driver/Src/stm32h7xx_hal_dma_ex.c **** /* Private Constants ---------------------------------------------------------*/
  67:Drivers/STM32H7xx_HAL_Driver/Src/stm32h7xx_hal_dma_ex.c **** /* Private macros ------------------------------------------------------------*/
  68:Drivers/STM32H7xx_HAL_Driver/Src/stm32h7xx_hal_dma_ex.c **** /* Private functions ---------------------------------------------------------*/
  69:Drivers/STM32H7xx_HAL_Driver/Src/stm32h7xx_hal_dma_ex.c **** /** @addtogroup DMAEx_Private_Functions
  70:Drivers/STM32H7xx_HAL_Driver/Src/stm32h7xx_hal_dma_ex.c ****   * @{
  71:Drivers/STM32H7xx_HAL_Driver/Src/stm32h7xx_hal_dma_ex.c ****   */
  72:Drivers/STM32H7xx_HAL_Driver/Src/stm32h7xx_hal_dma_ex.c **** 
  73:Drivers/STM32H7xx_HAL_Driver/Src/stm32h7xx_hal_dma_ex.c **** static void DMA_MultiBufferSetConfig(DMA_HandleTypeDef *hdma, uint32_t SrcAddress, uint32_t DstAddr
  74:Drivers/STM32H7xx_HAL_Driver/Src/stm32h7xx_hal_dma_ex.c **** 
  75:Drivers/STM32H7xx_HAL_Driver/Src/stm32h7xx_hal_dma_ex.c **** /**
  76:Drivers/STM32H7xx_HAL_Driver/Src/stm32h7xx_hal_dma_ex.c ****   * @}
  77:Drivers/STM32H7xx_HAL_Driver/Src/stm32h7xx_hal_dma_ex.c ****   */
  78:Drivers/STM32H7xx_HAL_Driver/Src/stm32h7xx_hal_dma_ex.c **** 
  79:Drivers/STM32H7xx_HAL_Driver/Src/stm32h7xx_hal_dma_ex.c **** /* Exported functions ---------------------------------------------------------*/
  80:Drivers/STM32H7xx_HAL_Driver/Src/stm32h7xx_hal_dma_ex.c **** 
  81:Drivers/STM32H7xx_HAL_Driver/Src/stm32h7xx_hal_dma_ex.c **** /** @addtogroup DMAEx_Exported_Functions
  82:Drivers/STM32H7xx_HAL_Driver/Src/stm32h7xx_hal_dma_ex.c ****   * @{
  83:Drivers/STM32H7xx_HAL_Driver/Src/stm32h7xx_hal_dma_ex.c ****   */
  84:Drivers/STM32H7xx_HAL_Driver/Src/stm32h7xx_hal_dma_ex.c **** 
  85:Drivers/STM32H7xx_HAL_Driver/Src/stm32h7xx_hal_dma_ex.c **** 
  86:Drivers/STM32H7xx_HAL_Driver/Src/stm32h7xx_hal_dma_ex.c **** /** @addtogroup DMAEx_Exported_Functions_Group1
  87:Drivers/STM32H7xx_HAL_Driver/Src/stm32h7xx_hal_dma_ex.c ****   *
  88:Drivers/STM32H7xx_HAL_Driver/Src/stm32h7xx_hal_dma_ex.c **** @verbatim
ARM GAS  /tmp/ccYmmrDD.s 			page 3


  89:Drivers/STM32H7xx_HAL_Driver/Src/stm32h7xx_hal_dma_ex.c ****  ===============================================================================
  90:Drivers/STM32H7xx_HAL_Driver/Src/stm32h7xx_hal_dma_ex.c ****                 #####  Extended features functions  #####
  91:Drivers/STM32H7xx_HAL_Driver/Src/stm32h7xx_hal_dma_ex.c ****  ===============================================================================
  92:Drivers/STM32H7xx_HAL_Driver/Src/stm32h7xx_hal_dma_ex.c ****     [..]  This section provides functions allowing to:
  93:Drivers/STM32H7xx_HAL_Driver/Src/stm32h7xx_hal_dma_ex.c ****       (+) Configure the source, destination address and data length and
  94:Drivers/STM32H7xx_HAL_Driver/Src/stm32h7xx_hal_dma_ex.c ****           Start MultiBuffer DMA transfer
  95:Drivers/STM32H7xx_HAL_Driver/Src/stm32h7xx_hal_dma_ex.c ****       (+) Configure the source, destination address and data length and
  96:Drivers/STM32H7xx_HAL_Driver/Src/stm32h7xx_hal_dma_ex.c ****           Start MultiBuffer DMA transfer with interrupt
  97:Drivers/STM32H7xx_HAL_Driver/Src/stm32h7xx_hal_dma_ex.c ****       (+) Change on the fly the memory0 or memory1 address.
  98:Drivers/STM32H7xx_HAL_Driver/Src/stm32h7xx_hal_dma_ex.c ****       (+) Configure the DMA_MUX Synchronization Block using HAL_DMAEx_ConfigMuxSync function.
  99:Drivers/STM32H7xx_HAL_Driver/Src/stm32h7xx_hal_dma_ex.c ****       (+) Configure the DMA_MUX Request Generator Block using HAL_DMAEx_ConfigMuxRequestGenerator f
 100:Drivers/STM32H7xx_HAL_Driver/Src/stm32h7xx_hal_dma_ex.c ****       (+) Functions HAL_DMAEx_EnableMuxRequestGenerator and HAL_DMAEx_DisableMuxRequestGenerator ca
 101:Drivers/STM32H7xx_HAL_Driver/Src/stm32h7xx_hal_dma_ex.c ****           to respectively enable/disable the request generator.
 102:Drivers/STM32H7xx_HAL_Driver/Src/stm32h7xx_hal_dma_ex.c ****       (+) Handle DMAMUX interrupts using HAL_DMAEx_MUX_IRQHandler : should be called from
 103:Drivers/STM32H7xx_HAL_Driver/Src/stm32h7xx_hal_dma_ex.c ****           the DMAMUX IRQ handler i.e DMAMUX1_OVR_IRQHandler or DMAMUX2_OVR_IRQHandler
 104:Drivers/STM32H7xx_HAL_Driver/Src/stm32h7xx_hal_dma_ex.c **** 
 105:Drivers/STM32H7xx_HAL_Driver/Src/stm32h7xx_hal_dma_ex.c **** @endverbatim
 106:Drivers/STM32H7xx_HAL_Driver/Src/stm32h7xx_hal_dma_ex.c ****   * @{
 107:Drivers/STM32H7xx_HAL_Driver/Src/stm32h7xx_hal_dma_ex.c ****   */
 108:Drivers/STM32H7xx_HAL_Driver/Src/stm32h7xx_hal_dma_ex.c **** 
 109:Drivers/STM32H7xx_HAL_Driver/Src/stm32h7xx_hal_dma_ex.c **** 
 110:Drivers/STM32H7xx_HAL_Driver/Src/stm32h7xx_hal_dma_ex.c **** /**
 111:Drivers/STM32H7xx_HAL_Driver/Src/stm32h7xx_hal_dma_ex.c ****   * @brief  Starts the multi_buffer DMA Transfer.
 112:Drivers/STM32H7xx_HAL_Driver/Src/stm32h7xx_hal_dma_ex.c ****   * @param  hdma      : pointer to a DMA_HandleTypeDef structure that contains
 113:Drivers/STM32H7xx_HAL_Driver/Src/stm32h7xx_hal_dma_ex.c ****   *                     the configuration information for the specified DMA Stream.
 114:Drivers/STM32H7xx_HAL_Driver/Src/stm32h7xx_hal_dma_ex.c ****   * @param  SrcAddress: The source memory Buffer address
 115:Drivers/STM32H7xx_HAL_Driver/Src/stm32h7xx_hal_dma_ex.c ****   * @param  DstAddress: The destination memory Buffer address
 116:Drivers/STM32H7xx_HAL_Driver/Src/stm32h7xx_hal_dma_ex.c ****   * @param  SecondMemAddress: The second memory Buffer address in case of multi buffer Transfer
 117:Drivers/STM32H7xx_HAL_Driver/Src/stm32h7xx_hal_dma_ex.c ****   * @param  DataLength: The length of data to be transferred from source to destination
 118:Drivers/STM32H7xx_HAL_Driver/Src/stm32h7xx_hal_dma_ex.c ****   * @retval HAL status
 119:Drivers/STM32H7xx_HAL_Driver/Src/stm32h7xx_hal_dma_ex.c ****   */
 120:Drivers/STM32H7xx_HAL_Driver/Src/stm32h7xx_hal_dma_ex.c **** HAL_StatusTypeDef HAL_DMAEx_MultiBufferStart(DMA_HandleTypeDef *hdma, uint32_t SrcAddress, uint32_t
 121:Drivers/STM32H7xx_HAL_Driver/Src/stm32h7xx_hal_dma_ex.c **** {
 122:Drivers/STM32H7xx_HAL_Driver/Src/stm32h7xx_hal_dma_ex.c ****   HAL_StatusTypeDef status = HAL_OK;
 123:Drivers/STM32H7xx_HAL_Driver/Src/stm32h7xx_hal_dma_ex.c ****   __IO uint32_t *ifcRegister_Base; /* DMA Stream Interrupt Clear register */
 124:Drivers/STM32H7xx_HAL_Driver/Src/stm32h7xx_hal_dma_ex.c **** 
 125:Drivers/STM32H7xx_HAL_Driver/Src/stm32h7xx_hal_dma_ex.c ****   /* Check the parameters */
 126:Drivers/STM32H7xx_HAL_Driver/Src/stm32h7xx_hal_dma_ex.c ****   assert_param(IS_DMA_BUFFER_SIZE(DataLength));
 127:Drivers/STM32H7xx_HAL_Driver/Src/stm32h7xx_hal_dma_ex.c ****   assert_param(IS_DMA_ALL_INSTANCE(hdma->Instance));
 128:Drivers/STM32H7xx_HAL_Driver/Src/stm32h7xx_hal_dma_ex.c **** 
 129:Drivers/STM32H7xx_HAL_Driver/Src/stm32h7xx_hal_dma_ex.c ****   /* Memory-to-memory transfer not supported in double buffering mode */
 130:Drivers/STM32H7xx_HAL_Driver/Src/stm32h7xx_hal_dma_ex.c ****   if (hdma->Init.Direction == DMA_MEMORY_TO_MEMORY)
 131:Drivers/STM32H7xx_HAL_Driver/Src/stm32h7xx_hal_dma_ex.c ****   {
 132:Drivers/STM32H7xx_HAL_Driver/Src/stm32h7xx_hal_dma_ex.c ****     hdma->ErrorCode = HAL_DMA_ERROR_NOT_SUPPORTED;
 133:Drivers/STM32H7xx_HAL_Driver/Src/stm32h7xx_hal_dma_ex.c ****     status = HAL_ERROR;
 134:Drivers/STM32H7xx_HAL_Driver/Src/stm32h7xx_hal_dma_ex.c ****   }
 135:Drivers/STM32H7xx_HAL_Driver/Src/stm32h7xx_hal_dma_ex.c ****   else
 136:Drivers/STM32H7xx_HAL_Driver/Src/stm32h7xx_hal_dma_ex.c ****   {
 137:Drivers/STM32H7xx_HAL_Driver/Src/stm32h7xx_hal_dma_ex.c ****     /* Process Locked */
 138:Drivers/STM32H7xx_HAL_Driver/Src/stm32h7xx_hal_dma_ex.c ****     __HAL_LOCK(hdma);
 139:Drivers/STM32H7xx_HAL_Driver/Src/stm32h7xx_hal_dma_ex.c **** 
 140:Drivers/STM32H7xx_HAL_Driver/Src/stm32h7xx_hal_dma_ex.c ****     if(HAL_DMA_STATE_READY == hdma->State)
 141:Drivers/STM32H7xx_HAL_Driver/Src/stm32h7xx_hal_dma_ex.c ****     {
 142:Drivers/STM32H7xx_HAL_Driver/Src/stm32h7xx_hal_dma_ex.c ****       /* Change DMA peripheral state */
 143:Drivers/STM32H7xx_HAL_Driver/Src/stm32h7xx_hal_dma_ex.c ****       hdma->State = HAL_DMA_STATE_BUSY;
 144:Drivers/STM32H7xx_HAL_Driver/Src/stm32h7xx_hal_dma_ex.c **** 
 145:Drivers/STM32H7xx_HAL_Driver/Src/stm32h7xx_hal_dma_ex.c ****       /* Initialize the error code */
ARM GAS  /tmp/ccYmmrDD.s 			page 4


 146:Drivers/STM32H7xx_HAL_Driver/Src/stm32h7xx_hal_dma_ex.c ****       hdma->ErrorCode = HAL_DMA_ERROR_NONE;
 147:Drivers/STM32H7xx_HAL_Driver/Src/stm32h7xx_hal_dma_ex.c **** 
 148:Drivers/STM32H7xx_HAL_Driver/Src/stm32h7xx_hal_dma_ex.c ****       if(IS_DMA_STREAM_INSTANCE(hdma->Instance) != 0U) /* DMA1 or DMA2 instance */
 149:Drivers/STM32H7xx_HAL_Driver/Src/stm32h7xx_hal_dma_ex.c ****       {
 150:Drivers/STM32H7xx_HAL_Driver/Src/stm32h7xx_hal_dma_ex.c ****         /* Enable the Double buffer mode */
 151:Drivers/STM32H7xx_HAL_Driver/Src/stm32h7xx_hal_dma_ex.c ****         ((DMA_Stream_TypeDef   *)hdma->Instance)->CR |= DMA_SxCR_DBM;
 152:Drivers/STM32H7xx_HAL_Driver/Src/stm32h7xx_hal_dma_ex.c **** 
 153:Drivers/STM32H7xx_HAL_Driver/Src/stm32h7xx_hal_dma_ex.c ****         /* Configure DMA Stream destination address */
 154:Drivers/STM32H7xx_HAL_Driver/Src/stm32h7xx_hal_dma_ex.c ****         ((DMA_Stream_TypeDef   *)hdma->Instance)->M1AR = SecondMemAddress;
 155:Drivers/STM32H7xx_HAL_Driver/Src/stm32h7xx_hal_dma_ex.c **** 
 156:Drivers/STM32H7xx_HAL_Driver/Src/stm32h7xx_hal_dma_ex.c ****         /* Calculate the interrupt clear flag register (IFCR) base address  */
 157:Drivers/STM32H7xx_HAL_Driver/Src/stm32h7xx_hal_dma_ex.c ****         ifcRegister_Base = (uint32_t *)((uint32_t)(hdma->StreamBaseAddress + 8U));
 158:Drivers/STM32H7xx_HAL_Driver/Src/stm32h7xx_hal_dma_ex.c **** 
 159:Drivers/STM32H7xx_HAL_Driver/Src/stm32h7xx_hal_dma_ex.c ****         /* Clear all flags */
 160:Drivers/STM32H7xx_HAL_Driver/Src/stm32h7xx_hal_dma_ex.c ****         *ifcRegister_Base = 0x3FUL << (hdma->StreamIndex & 0x1FU);
 161:Drivers/STM32H7xx_HAL_Driver/Src/stm32h7xx_hal_dma_ex.c ****       }
 162:Drivers/STM32H7xx_HAL_Driver/Src/stm32h7xx_hal_dma_ex.c ****       else /* BDMA instance(s) */
 163:Drivers/STM32H7xx_HAL_Driver/Src/stm32h7xx_hal_dma_ex.c ****       {
 164:Drivers/STM32H7xx_HAL_Driver/Src/stm32h7xx_hal_dma_ex.c ****         /* Enable the Double buffer mode */
 165:Drivers/STM32H7xx_HAL_Driver/Src/stm32h7xx_hal_dma_ex.c ****         ((BDMA_Channel_TypeDef   *)hdma->Instance)->CCR |= (BDMA_CCR_DBM | BDMA_CCR_CIRC);
 166:Drivers/STM32H7xx_HAL_Driver/Src/stm32h7xx_hal_dma_ex.c **** 
 167:Drivers/STM32H7xx_HAL_Driver/Src/stm32h7xx_hal_dma_ex.c ****         /* Configure DMA Stream destination address */
 168:Drivers/STM32H7xx_HAL_Driver/Src/stm32h7xx_hal_dma_ex.c ****         ((BDMA_Channel_TypeDef   *)hdma->Instance)->CM1AR = SecondMemAddress;
 169:Drivers/STM32H7xx_HAL_Driver/Src/stm32h7xx_hal_dma_ex.c **** 
 170:Drivers/STM32H7xx_HAL_Driver/Src/stm32h7xx_hal_dma_ex.c ****         /* Calculate the interrupt clear flag register (IFCR) base address  */
 171:Drivers/STM32H7xx_HAL_Driver/Src/stm32h7xx_hal_dma_ex.c ****         ifcRegister_Base = (uint32_t *)((uint32_t)(hdma->StreamBaseAddress + 4U));
 172:Drivers/STM32H7xx_HAL_Driver/Src/stm32h7xx_hal_dma_ex.c **** 
 173:Drivers/STM32H7xx_HAL_Driver/Src/stm32h7xx_hal_dma_ex.c ****         /* Clear all flags */
 174:Drivers/STM32H7xx_HAL_Driver/Src/stm32h7xx_hal_dma_ex.c ****         *ifcRegister_Base = (BDMA_ISR_GIF0) << (hdma->StreamIndex & 0x1FU);
 175:Drivers/STM32H7xx_HAL_Driver/Src/stm32h7xx_hal_dma_ex.c ****       }
 176:Drivers/STM32H7xx_HAL_Driver/Src/stm32h7xx_hal_dma_ex.c **** 
 177:Drivers/STM32H7xx_HAL_Driver/Src/stm32h7xx_hal_dma_ex.c ****       if(IS_DMA_DMAMUX_ALL_INSTANCE(hdma->Instance) != 0U) /* No DMAMUX available for BDMA1 */
 178:Drivers/STM32H7xx_HAL_Driver/Src/stm32h7xx_hal_dma_ex.c ****       {
 179:Drivers/STM32H7xx_HAL_Driver/Src/stm32h7xx_hal_dma_ex.c ****         /* Configure the source, destination address and the data length */
 180:Drivers/STM32H7xx_HAL_Driver/Src/stm32h7xx_hal_dma_ex.c ****         DMA_MultiBufferSetConfig(hdma, SrcAddress, DstAddress, DataLength);
 181:Drivers/STM32H7xx_HAL_Driver/Src/stm32h7xx_hal_dma_ex.c **** 
 182:Drivers/STM32H7xx_HAL_Driver/Src/stm32h7xx_hal_dma_ex.c ****         /* Clear the DMAMUX synchro overrun flag */
 183:Drivers/STM32H7xx_HAL_Driver/Src/stm32h7xx_hal_dma_ex.c ****         hdma->DMAmuxChannelStatus->CFR = hdma->DMAmuxChannelStatusMask;
 184:Drivers/STM32H7xx_HAL_Driver/Src/stm32h7xx_hal_dma_ex.c **** 
 185:Drivers/STM32H7xx_HAL_Driver/Src/stm32h7xx_hal_dma_ex.c ****         if(hdma->DMAmuxRequestGen != 0U)
 186:Drivers/STM32H7xx_HAL_Driver/Src/stm32h7xx_hal_dma_ex.c ****         {
 187:Drivers/STM32H7xx_HAL_Driver/Src/stm32h7xx_hal_dma_ex.c ****           /* Clear the DMAMUX request generator overrun flag */
 188:Drivers/STM32H7xx_HAL_Driver/Src/stm32h7xx_hal_dma_ex.c ****           hdma->DMAmuxRequestGenStatus->RGCFR = hdma->DMAmuxRequestGenStatusMask;
 189:Drivers/STM32H7xx_HAL_Driver/Src/stm32h7xx_hal_dma_ex.c ****         }
 190:Drivers/STM32H7xx_HAL_Driver/Src/stm32h7xx_hal_dma_ex.c ****       }
 191:Drivers/STM32H7xx_HAL_Driver/Src/stm32h7xx_hal_dma_ex.c **** 
 192:Drivers/STM32H7xx_HAL_Driver/Src/stm32h7xx_hal_dma_ex.c ****       /* Enable the peripheral */
 193:Drivers/STM32H7xx_HAL_Driver/Src/stm32h7xx_hal_dma_ex.c ****       __HAL_DMA_ENABLE(hdma);
 194:Drivers/STM32H7xx_HAL_Driver/Src/stm32h7xx_hal_dma_ex.c ****     }
 195:Drivers/STM32H7xx_HAL_Driver/Src/stm32h7xx_hal_dma_ex.c ****     else
 196:Drivers/STM32H7xx_HAL_Driver/Src/stm32h7xx_hal_dma_ex.c ****     {
 197:Drivers/STM32H7xx_HAL_Driver/Src/stm32h7xx_hal_dma_ex.c ****       /* Set the error code to busy */
 198:Drivers/STM32H7xx_HAL_Driver/Src/stm32h7xx_hal_dma_ex.c ****       hdma->ErrorCode = HAL_DMA_ERROR_BUSY;
 199:Drivers/STM32H7xx_HAL_Driver/Src/stm32h7xx_hal_dma_ex.c **** 
 200:Drivers/STM32H7xx_HAL_Driver/Src/stm32h7xx_hal_dma_ex.c ****       /* Return error status */
 201:Drivers/STM32H7xx_HAL_Driver/Src/stm32h7xx_hal_dma_ex.c ****       status = HAL_ERROR;
 202:Drivers/STM32H7xx_HAL_Driver/Src/stm32h7xx_hal_dma_ex.c ****     }
ARM GAS  /tmp/ccYmmrDD.s 			page 5


 203:Drivers/STM32H7xx_HAL_Driver/Src/stm32h7xx_hal_dma_ex.c ****   }
 204:Drivers/STM32H7xx_HAL_Driver/Src/stm32h7xx_hal_dma_ex.c ****   return status;
 205:Drivers/STM32H7xx_HAL_Driver/Src/stm32h7xx_hal_dma_ex.c **** }
 206:Drivers/STM32H7xx_HAL_Driver/Src/stm32h7xx_hal_dma_ex.c **** 
 207:Drivers/STM32H7xx_HAL_Driver/Src/stm32h7xx_hal_dma_ex.c **** /**
 208:Drivers/STM32H7xx_HAL_Driver/Src/stm32h7xx_hal_dma_ex.c ****   * @brief  Starts the multi_buffer DMA Transfer with interrupt enabled.
 209:Drivers/STM32H7xx_HAL_Driver/Src/stm32h7xx_hal_dma_ex.c ****   * @param  hdma:       pointer to a DMA_HandleTypeDef structure that contains
 210:Drivers/STM32H7xx_HAL_Driver/Src/stm32h7xx_hal_dma_ex.c ****   *                     the configuration information for the specified DMA Stream.
 211:Drivers/STM32H7xx_HAL_Driver/Src/stm32h7xx_hal_dma_ex.c ****   * @param  SrcAddress: The source memory Buffer address
 212:Drivers/STM32H7xx_HAL_Driver/Src/stm32h7xx_hal_dma_ex.c ****   * @param  DstAddress: The destination memory Buffer address
 213:Drivers/STM32H7xx_HAL_Driver/Src/stm32h7xx_hal_dma_ex.c ****   * @param  SecondMemAddress: The second memory Buffer address in case of multi buffer Transfer
 214:Drivers/STM32H7xx_HAL_Driver/Src/stm32h7xx_hal_dma_ex.c ****   * @param  DataLength: The length of data to be transferred from source to destination
 215:Drivers/STM32H7xx_HAL_Driver/Src/stm32h7xx_hal_dma_ex.c ****   * @retval HAL status
 216:Drivers/STM32H7xx_HAL_Driver/Src/stm32h7xx_hal_dma_ex.c ****   */
 217:Drivers/STM32H7xx_HAL_Driver/Src/stm32h7xx_hal_dma_ex.c **** HAL_StatusTypeDef HAL_DMAEx_MultiBufferStart_IT(DMA_HandleTypeDef *hdma, uint32_t SrcAddress, uint3
 218:Drivers/STM32H7xx_HAL_Driver/Src/stm32h7xx_hal_dma_ex.c **** {
 219:Drivers/STM32H7xx_HAL_Driver/Src/stm32h7xx_hal_dma_ex.c ****   HAL_StatusTypeDef status = HAL_OK;
 220:Drivers/STM32H7xx_HAL_Driver/Src/stm32h7xx_hal_dma_ex.c ****   __IO uint32_t *ifcRegister_Base; /* DMA Stream Interrupt Clear register */
 221:Drivers/STM32H7xx_HAL_Driver/Src/stm32h7xx_hal_dma_ex.c **** 
 222:Drivers/STM32H7xx_HAL_Driver/Src/stm32h7xx_hal_dma_ex.c ****   /* Check the parameters */
 223:Drivers/STM32H7xx_HAL_Driver/Src/stm32h7xx_hal_dma_ex.c ****   assert_param(IS_DMA_BUFFER_SIZE(DataLength));
 224:Drivers/STM32H7xx_HAL_Driver/Src/stm32h7xx_hal_dma_ex.c ****   assert_param(IS_DMA_ALL_INSTANCE(hdma->Instance));
 225:Drivers/STM32H7xx_HAL_Driver/Src/stm32h7xx_hal_dma_ex.c **** 
 226:Drivers/STM32H7xx_HAL_Driver/Src/stm32h7xx_hal_dma_ex.c ****   /* Memory-to-memory transfer not supported in double buffering mode */
 227:Drivers/STM32H7xx_HAL_Driver/Src/stm32h7xx_hal_dma_ex.c ****   if(hdma->Init.Direction == DMA_MEMORY_TO_MEMORY)
 228:Drivers/STM32H7xx_HAL_Driver/Src/stm32h7xx_hal_dma_ex.c ****   {
 229:Drivers/STM32H7xx_HAL_Driver/Src/stm32h7xx_hal_dma_ex.c ****     hdma->ErrorCode = HAL_DMA_ERROR_NOT_SUPPORTED;
 230:Drivers/STM32H7xx_HAL_Driver/Src/stm32h7xx_hal_dma_ex.c ****     return HAL_ERROR;
 231:Drivers/STM32H7xx_HAL_Driver/Src/stm32h7xx_hal_dma_ex.c ****   }
 232:Drivers/STM32H7xx_HAL_Driver/Src/stm32h7xx_hal_dma_ex.c **** 
 233:Drivers/STM32H7xx_HAL_Driver/Src/stm32h7xx_hal_dma_ex.c ****   /* Process locked */
 234:Drivers/STM32H7xx_HAL_Driver/Src/stm32h7xx_hal_dma_ex.c ****   __HAL_LOCK(hdma);
 235:Drivers/STM32H7xx_HAL_Driver/Src/stm32h7xx_hal_dma_ex.c **** 
 236:Drivers/STM32H7xx_HAL_Driver/Src/stm32h7xx_hal_dma_ex.c ****   if(HAL_DMA_STATE_READY == hdma->State)
 237:Drivers/STM32H7xx_HAL_Driver/Src/stm32h7xx_hal_dma_ex.c ****   {
 238:Drivers/STM32H7xx_HAL_Driver/Src/stm32h7xx_hal_dma_ex.c ****     /* Change DMA peripheral state */
 239:Drivers/STM32H7xx_HAL_Driver/Src/stm32h7xx_hal_dma_ex.c ****     hdma->State = HAL_DMA_STATE_BUSY;
 240:Drivers/STM32H7xx_HAL_Driver/Src/stm32h7xx_hal_dma_ex.c **** 
 241:Drivers/STM32H7xx_HAL_Driver/Src/stm32h7xx_hal_dma_ex.c ****     /* Initialize the error code */
 242:Drivers/STM32H7xx_HAL_Driver/Src/stm32h7xx_hal_dma_ex.c ****     hdma->ErrorCode = HAL_DMA_ERROR_NONE;
 243:Drivers/STM32H7xx_HAL_Driver/Src/stm32h7xx_hal_dma_ex.c **** 
 244:Drivers/STM32H7xx_HAL_Driver/Src/stm32h7xx_hal_dma_ex.c ****     if(IS_DMA_STREAM_INSTANCE(hdma->Instance) != 0U) /* DMA1 or DMA2 instance */
 245:Drivers/STM32H7xx_HAL_Driver/Src/stm32h7xx_hal_dma_ex.c ****     {
 246:Drivers/STM32H7xx_HAL_Driver/Src/stm32h7xx_hal_dma_ex.c ****       /* Enable the Double buffer mode */
 247:Drivers/STM32H7xx_HAL_Driver/Src/stm32h7xx_hal_dma_ex.c ****       ((DMA_Stream_TypeDef   *)hdma->Instance)->CR |= DMA_SxCR_DBM;
 248:Drivers/STM32H7xx_HAL_Driver/Src/stm32h7xx_hal_dma_ex.c **** 
 249:Drivers/STM32H7xx_HAL_Driver/Src/stm32h7xx_hal_dma_ex.c ****       /* Configure DMA Stream destination address */
 250:Drivers/STM32H7xx_HAL_Driver/Src/stm32h7xx_hal_dma_ex.c ****       ((DMA_Stream_TypeDef   *)hdma->Instance)->M1AR = SecondMemAddress;
 251:Drivers/STM32H7xx_HAL_Driver/Src/stm32h7xx_hal_dma_ex.c **** 
 252:Drivers/STM32H7xx_HAL_Driver/Src/stm32h7xx_hal_dma_ex.c ****       /* Calculate the interrupt clear flag register (IFCR) base address  */
 253:Drivers/STM32H7xx_HAL_Driver/Src/stm32h7xx_hal_dma_ex.c ****       ifcRegister_Base = (uint32_t *)((uint32_t)(hdma->StreamBaseAddress + 8U));
 254:Drivers/STM32H7xx_HAL_Driver/Src/stm32h7xx_hal_dma_ex.c **** 
 255:Drivers/STM32H7xx_HAL_Driver/Src/stm32h7xx_hal_dma_ex.c ****       /* Clear all flags */
 256:Drivers/STM32H7xx_HAL_Driver/Src/stm32h7xx_hal_dma_ex.c ****       *ifcRegister_Base = 0x3FUL << (hdma->StreamIndex & 0x1FU);
 257:Drivers/STM32H7xx_HAL_Driver/Src/stm32h7xx_hal_dma_ex.c ****     }
 258:Drivers/STM32H7xx_HAL_Driver/Src/stm32h7xx_hal_dma_ex.c ****     else /* BDMA instance(s) */
 259:Drivers/STM32H7xx_HAL_Driver/Src/stm32h7xx_hal_dma_ex.c ****     {
ARM GAS  /tmp/ccYmmrDD.s 			page 6


 260:Drivers/STM32H7xx_HAL_Driver/Src/stm32h7xx_hal_dma_ex.c ****       /* Enable the Double buffer mode */
 261:Drivers/STM32H7xx_HAL_Driver/Src/stm32h7xx_hal_dma_ex.c ****       ((BDMA_Channel_TypeDef   *)hdma->Instance)->CCR |= (BDMA_CCR_DBM | BDMA_CCR_CIRC);
 262:Drivers/STM32H7xx_HAL_Driver/Src/stm32h7xx_hal_dma_ex.c **** 
 263:Drivers/STM32H7xx_HAL_Driver/Src/stm32h7xx_hal_dma_ex.c ****       /* Configure DMA Stream destination address */
 264:Drivers/STM32H7xx_HAL_Driver/Src/stm32h7xx_hal_dma_ex.c ****       ((BDMA_Channel_TypeDef   *)hdma->Instance)->CM1AR = SecondMemAddress;
 265:Drivers/STM32H7xx_HAL_Driver/Src/stm32h7xx_hal_dma_ex.c **** 
 266:Drivers/STM32H7xx_HAL_Driver/Src/stm32h7xx_hal_dma_ex.c ****       /* Calculate the interrupt clear flag register (IFCR) base address  */
 267:Drivers/STM32H7xx_HAL_Driver/Src/stm32h7xx_hal_dma_ex.c ****       ifcRegister_Base = (uint32_t *)((uint32_t)(hdma->StreamBaseAddress + 4U));
 268:Drivers/STM32H7xx_HAL_Driver/Src/stm32h7xx_hal_dma_ex.c **** 
 269:Drivers/STM32H7xx_HAL_Driver/Src/stm32h7xx_hal_dma_ex.c ****       /* Clear all flags */
 270:Drivers/STM32H7xx_HAL_Driver/Src/stm32h7xx_hal_dma_ex.c ****       *ifcRegister_Base = (BDMA_ISR_GIF0) << (hdma->StreamIndex & 0x1FU);
 271:Drivers/STM32H7xx_HAL_Driver/Src/stm32h7xx_hal_dma_ex.c ****     }
 272:Drivers/STM32H7xx_HAL_Driver/Src/stm32h7xx_hal_dma_ex.c **** 
 273:Drivers/STM32H7xx_HAL_Driver/Src/stm32h7xx_hal_dma_ex.c ****     /* Configure the source, destination address and the data length */
 274:Drivers/STM32H7xx_HAL_Driver/Src/stm32h7xx_hal_dma_ex.c ****     DMA_MultiBufferSetConfig(hdma, SrcAddress, DstAddress, DataLength);
 275:Drivers/STM32H7xx_HAL_Driver/Src/stm32h7xx_hal_dma_ex.c **** 
 276:Drivers/STM32H7xx_HAL_Driver/Src/stm32h7xx_hal_dma_ex.c ****     if(IS_DMA_DMAMUX_ALL_INSTANCE(hdma->Instance) != 0U) /* No DMAMUX available for BDMA1 */
 277:Drivers/STM32H7xx_HAL_Driver/Src/stm32h7xx_hal_dma_ex.c ****     {
 278:Drivers/STM32H7xx_HAL_Driver/Src/stm32h7xx_hal_dma_ex.c ****       /* Clear the DMAMUX synchro overrun flag */
 279:Drivers/STM32H7xx_HAL_Driver/Src/stm32h7xx_hal_dma_ex.c ****       hdma->DMAmuxChannelStatus->CFR = hdma->DMAmuxChannelStatusMask;
 280:Drivers/STM32H7xx_HAL_Driver/Src/stm32h7xx_hal_dma_ex.c **** 
 281:Drivers/STM32H7xx_HAL_Driver/Src/stm32h7xx_hal_dma_ex.c ****       if(hdma->DMAmuxRequestGen != 0U)
 282:Drivers/STM32H7xx_HAL_Driver/Src/stm32h7xx_hal_dma_ex.c ****       {
 283:Drivers/STM32H7xx_HAL_Driver/Src/stm32h7xx_hal_dma_ex.c ****         /* Clear the DMAMUX request generator overrun flag */
 284:Drivers/STM32H7xx_HAL_Driver/Src/stm32h7xx_hal_dma_ex.c ****         hdma->DMAmuxRequestGenStatus->RGCFR = hdma->DMAmuxRequestGenStatusMask;
 285:Drivers/STM32H7xx_HAL_Driver/Src/stm32h7xx_hal_dma_ex.c ****       }
 286:Drivers/STM32H7xx_HAL_Driver/Src/stm32h7xx_hal_dma_ex.c ****     }
 287:Drivers/STM32H7xx_HAL_Driver/Src/stm32h7xx_hal_dma_ex.c **** 
 288:Drivers/STM32H7xx_HAL_Driver/Src/stm32h7xx_hal_dma_ex.c ****     if(IS_DMA_STREAM_INSTANCE(hdma->Instance) != 0U) /* DMA1 or DMA2 instance */
 289:Drivers/STM32H7xx_HAL_Driver/Src/stm32h7xx_hal_dma_ex.c ****     {
 290:Drivers/STM32H7xx_HAL_Driver/Src/stm32h7xx_hal_dma_ex.c ****       /* Enable Common interrupts*/
 291:Drivers/STM32H7xx_HAL_Driver/Src/stm32h7xx_hal_dma_ex.c ****       MODIFY_REG(((DMA_Stream_TypeDef   *)hdma->Instance)->CR, (DMA_IT_TC | DMA_IT_TE | DMA_IT_DME 
 292:Drivers/STM32H7xx_HAL_Driver/Src/stm32h7xx_hal_dma_ex.c ****       ((DMA_Stream_TypeDef   *)hdma->Instance)->FCR |= DMA_IT_FE;
 293:Drivers/STM32H7xx_HAL_Driver/Src/stm32h7xx_hal_dma_ex.c **** 
 294:Drivers/STM32H7xx_HAL_Driver/Src/stm32h7xx_hal_dma_ex.c ****       if((hdma->XferHalfCpltCallback != NULL) || (hdma->XferM1HalfCpltCallback != NULL))
 295:Drivers/STM32H7xx_HAL_Driver/Src/stm32h7xx_hal_dma_ex.c ****       {
 296:Drivers/STM32H7xx_HAL_Driver/Src/stm32h7xx_hal_dma_ex.c ****         /*Enable Half Transfer IT if corresponding Callback is set*/
 297:Drivers/STM32H7xx_HAL_Driver/Src/stm32h7xx_hal_dma_ex.c ****         ((DMA_Stream_TypeDef   *)hdma->Instance)->CR  |= DMA_IT_HT;
 298:Drivers/STM32H7xx_HAL_Driver/Src/stm32h7xx_hal_dma_ex.c ****       }
 299:Drivers/STM32H7xx_HAL_Driver/Src/stm32h7xx_hal_dma_ex.c ****     }
 300:Drivers/STM32H7xx_HAL_Driver/Src/stm32h7xx_hal_dma_ex.c ****     else /* BDMA instance(s) */
 301:Drivers/STM32H7xx_HAL_Driver/Src/stm32h7xx_hal_dma_ex.c ****     {
 302:Drivers/STM32H7xx_HAL_Driver/Src/stm32h7xx_hal_dma_ex.c ****       /* Enable Common interrupts*/
 303:Drivers/STM32H7xx_HAL_Driver/Src/stm32h7xx_hal_dma_ex.c ****       MODIFY_REG(((BDMA_Channel_TypeDef   *)hdma->Instance)->CCR, (BDMA_CCR_TCIE | BDMA_CCR_HTIE | 
 304:Drivers/STM32H7xx_HAL_Driver/Src/stm32h7xx_hal_dma_ex.c **** 
 305:Drivers/STM32H7xx_HAL_Driver/Src/stm32h7xx_hal_dma_ex.c ****       if((hdma->XferHalfCpltCallback != NULL) || (hdma->XferM1HalfCpltCallback != NULL))
 306:Drivers/STM32H7xx_HAL_Driver/Src/stm32h7xx_hal_dma_ex.c ****       {
 307:Drivers/STM32H7xx_HAL_Driver/Src/stm32h7xx_hal_dma_ex.c ****         /*Enable Half Transfer IT if corresponding Callback is set*/
 308:Drivers/STM32H7xx_HAL_Driver/Src/stm32h7xx_hal_dma_ex.c ****         ((BDMA_Channel_TypeDef   *)hdma->Instance)->CCR  |= BDMA_CCR_HTIE;
 309:Drivers/STM32H7xx_HAL_Driver/Src/stm32h7xx_hal_dma_ex.c ****       }
 310:Drivers/STM32H7xx_HAL_Driver/Src/stm32h7xx_hal_dma_ex.c ****     }
 311:Drivers/STM32H7xx_HAL_Driver/Src/stm32h7xx_hal_dma_ex.c **** 
 312:Drivers/STM32H7xx_HAL_Driver/Src/stm32h7xx_hal_dma_ex.c ****     if(IS_DMA_DMAMUX_ALL_INSTANCE(hdma->Instance) != 0U) /* No DMAMUX available for BDMA1 */
 313:Drivers/STM32H7xx_HAL_Driver/Src/stm32h7xx_hal_dma_ex.c ****     {
 314:Drivers/STM32H7xx_HAL_Driver/Src/stm32h7xx_hal_dma_ex.c ****       /* Check if DMAMUX Synchronization is enabled*/
 315:Drivers/STM32H7xx_HAL_Driver/Src/stm32h7xx_hal_dma_ex.c ****       if((hdma->DMAmuxChannel->CCR & DMAMUX_CxCR_SE) != 0U)
 316:Drivers/STM32H7xx_HAL_Driver/Src/stm32h7xx_hal_dma_ex.c ****       {
ARM GAS  /tmp/ccYmmrDD.s 			page 7


 317:Drivers/STM32H7xx_HAL_Driver/Src/stm32h7xx_hal_dma_ex.c ****         /* Enable DMAMUX sync overrun IT*/
 318:Drivers/STM32H7xx_HAL_Driver/Src/stm32h7xx_hal_dma_ex.c ****         hdma->DMAmuxChannel->CCR |= DMAMUX_CxCR_SOIE;
 319:Drivers/STM32H7xx_HAL_Driver/Src/stm32h7xx_hal_dma_ex.c ****       }
 320:Drivers/STM32H7xx_HAL_Driver/Src/stm32h7xx_hal_dma_ex.c **** 
 321:Drivers/STM32H7xx_HAL_Driver/Src/stm32h7xx_hal_dma_ex.c ****       if(hdma->DMAmuxRequestGen != 0U)
 322:Drivers/STM32H7xx_HAL_Driver/Src/stm32h7xx_hal_dma_ex.c ****       {
 323:Drivers/STM32H7xx_HAL_Driver/Src/stm32h7xx_hal_dma_ex.c ****         /* if using DMAMUX request generator, enable the DMAMUX request generator overrun IT*/
 324:Drivers/STM32H7xx_HAL_Driver/Src/stm32h7xx_hal_dma_ex.c ****         /* enable the request gen overrun IT*/
 325:Drivers/STM32H7xx_HAL_Driver/Src/stm32h7xx_hal_dma_ex.c ****         hdma->DMAmuxRequestGen->RGCR |= DMAMUX_RGxCR_OIE;
 326:Drivers/STM32H7xx_HAL_Driver/Src/stm32h7xx_hal_dma_ex.c ****       }
 327:Drivers/STM32H7xx_HAL_Driver/Src/stm32h7xx_hal_dma_ex.c ****     }
 328:Drivers/STM32H7xx_HAL_Driver/Src/stm32h7xx_hal_dma_ex.c **** 
 329:Drivers/STM32H7xx_HAL_Driver/Src/stm32h7xx_hal_dma_ex.c ****     /* Enable the peripheral */
 330:Drivers/STM32H7xx_HAL_Driver/Src/stm32h7xx_hal_dma_ex.c ****     __HAL_DMA_ENABLE(hdma);
 331:Drivers/STM32H7xx_HAL_Driver/Src/stm32h7xx_hal_dma_ex.c ****   }
 332:Drivers/STM32H7xx_HAL_Driver/Src/stm32h7xx_hal_dma_ex.c ****   else
 333:Drivers/STM32H7xx_HAL_Driver/Src/stm32h7xx_hal_dma_ex.c ****   {
 334:Drivers/STM32H7xx_HAL_Driver/Src/stm32h7xx_hal_dma_ex.c ****     /* Set the error code to busy */
 335:Drivers/STM32H7xx_HAL_Driver/Src/stm32h7xx_hal_dma_ex.c ****     hdma->ErrorCode = HAL_DMA_ERROR_BUSY;
 336:Drivers/STM32H7xx_HAL_Driver/Src/stm32h7xx_hal_dma_ex.c **** 
 337:Drivers/STM32H7xx_HAL_Driver/Src/stm32h7xx_hal_dma_ex.c ****     /* Return error status */
 338:Drivers/STM32H7xx_HAL_Driver/Src/stm32h7xx_hal_dma_ex.c ****     status = HAL_ERROR;
 339:Drivers/STM32H7xx_HAL_Driver/Src/stm32h7xx_hal_dma_ex.c ****   }
 340:Drivers/STM32H7xx_HAL_Driver/Src/stm32h7xx_hal_dma_ex.c ****   return status;
 341:Drivers/STM32H7xx_HAL_Driver/Src/stm32h7xx_hal_dma_ex.c **** }
 342:Drivers/STM32H7xx_HAL_Driver/Src/stm32h7xx_hal_dma_ex.c **** 
 343:Drivers/STM32H7xx_HAL_Driver/Src/stm32h7xx_hal_dma_ex.c **** /**
 344:Drivers/STM32H7xx_HAL_Driver/Src/stm32h7xx_hal_dma_ex.c ****   * @brief  Change the memory0 or memory1 address on the fly.
 345:Drivers/STM32H7xx_HAL_Driver/Src/stm32h7xx_hal_dma_ex.c ****   * @param  hdma:       pointer to a DMA_HandleTypeDef structure that contains
 346:Drivers/STM32H7xx_HAL_Driver/Src/stm32h7xx_hal_dma_ex.c ****   *                     the configuration information for the specified DMA Stream.
 347:Drivers/STM32H7xx_HAL_Driver/Src/stm32h7xx_hal_dma_ex.c ****   * @param  Address:    The new address
 348:Drivers/STM32H7xx_HAL_Driver/Src/stm32h7xx_hal_dma_ex.c ****   * @param  memory:     the memory to be changed, This parameter can be one of
 349:Drivers/STM32H7xx_HAL_Driver/Src/stm32h7xx_hal_dma_ex.c ****   *                     the following values:
 350:Drivers/STM32H7xx_HAL_Driver/Src/stm32h7xx_hal_dma_ex.c ****   *                      MEMORY0 /
 351:Drivers/STM32H7xx_HAL_Driver/Src/stm32h7xx_hal_dma_ex.c ****   *                      MEMORY1
 352:Drivers/STM32H7xx_HAL_Driver/Src/stm32h7xx_hal_dma_ex.c ****   * @note   The MEMORY0 address can be changed only when the current transfer use
 353:Drivers/STM32H7xx_HAL_Driver/Src/stm32h7xx_hal_dma_ex.c ****   *         MEMORY1 and the MEMORY1 address can be changed only when the current
 354:Drivers/STM32H7xx_HAL_Driver/Src/stm32h7xx_hal_dma_ex.c ****   *         transfer use MEMORY0.
 355:Drivers/STM32H7xx_HAL_Driver/Src/stm32h7xx_hal_dma_ex.c ****   * @retval HAL status
 356:Drivers/STM32H7xx_HAL_Driver/Src/stm32h7xx_hal_dma_ex.c ****   */
 357:Drivers/STM32H7xx_HAL_Driver/Src/stm32h7xx_hal_dma_ex.c **** HAL_StatusTypeDef HAL_DMAEx_ChangeMemory(DMA_HandleTypeDef *hdma, uint32_t Address, HAL_DMA_MemoryT
 358:Drivers/STM32H7xx_HAL_Driver/Src/stm32h7xx_hal_dma_ex.c **** {
 359:Drivers/STM32H7xx_HAL_Driver/Src/stm32h7xx_hal_dma_ex.c ****   if(IS_DMA_STREAM_INSTANCE(hdma->Instance) != 0U) /* DMA1 or DMA2 instance */
 360:Drivers/STM32H7xx_HAL_Driver/Src/stm32h7xx_hal_dma_ex.c ****   {
 361:Drivers/STM32H7xx_HAL_Driver/Src/stm32h7xx_hal_dma_ex.c ****     if(memory == MEMORY0)
 362:Drivers/STM32H7xx_HAL_Driver/Src/stm32h7xx_hal_dma_ex.c ****     {
 363:Drivers/STM32H7xx_HAL_Driver/Src/stm32h7xx_hal_dma_ex.c ****       /* change the memory0 address */
 364:Drivers/STM32H7xx_HAL_Driver/Src/stm32h7xx_hal_dma_ex.c ****       ((DMA_Stream_TypeDef   *)hdma->Instance)->M0AR = Address;
 365:Drivers/STM32H7xx_HAL_Driver/Src/stm32h7xx_hal_dma_ex.c ****     }
 366:Drivers/STM32H7xx_HAL_Driver/Src/stm32h7xx_hal_dma_ex.c ****     else
 367:Drivers/STM32H7xx_HAL_Driver/Src/stm32h7xx_hal_dma_ex.c ****     {
 368:Drivers/STM32H7xx_HAL_Driver/Src/stm32h7xx_hal_dma_ex.c ****       /* change the memory1 address */
 369:Drivers/STM32H7xx_HAL_Driver/Src/stm32h7xx_hal_dma_ex.c ****       ((DMA_Stream_TypeDef   *)hdma->Instance)->M1AR = Address;
 370:Drivers/STM32H7xx_HAL_Driver/Src/stm32h7xx_hal_dma_ex.c ****     }
 371:Drivers/STM32H7xx_HAL_Driver/Src/stm32h7xx_hal_dma_ex.c ****   }
 372:Drivers/STM32H7xx_HAL_Driver/Src/stm32h7xx_hal_dma_ex.c ****   else /* BDMA instance(s) */
 373:Drivers/STM32H7xx_HAL_Driver/Src/stm32h7xx_hal_dma_ex.c ****   {
ARM GAS  /tmp/ccYmmrDD.s 			page 8


 374:Drivers/STM32H7xx_HAL_Driver/Src/stm32h7xx_hal_dma_ex.c ****     if(memory == MEMORY0)
 375:Drivers/STM32H7xx_HAL_Driver/Src/stm32h7xx_hal_dma_ex.c ****     {
 376:Drivers/STM32H7xx_HAL_Driver/Src/stm32h7xx_hal_dma_ex.c ****       /* change the memory0 address */
 377:Drivers/STM32H7xx_HAL_Driver/Src/stm32h7xx_hal_dma_ex.c ****       ((BDMA_Channel_TypeDef   *)hdma->Instance)->CM0AR = Address;
 378:Drivers/STM32H7xx_HAL_Driver/Src/stm32h7xx_hal_dma_ex.c ****     }
 379:Drivers/STM32H7xx_HAL_Driver/Src/stm32h7xx_hal_dma_ex.c ****     else
 380:Drivers/STM32H7xx_HAL_Driver/Src/stm32h7xx_hal_dma_ex.c ****     {
 381:Drivers/STM32H7xx_HAL_Driver/Src/stm32h7xx_hal_dma_ex.c ****       /* change the memory1 address */
 382:Drivers/STM32H7xx_HAL_Driver/Src/stm32h7xx_hal_dma_ex.c ****       ((BDMA_Channel_TypeDef   *)hdma->Instance)->CM1AR = Address;
 383:Drivers/STM32H7xx_HAL_Driver/Src/stm32h7xx_hal_dma_ex.c ****     }
 384:Drivers/STM32H7xx_HAL_Driver/Src/stm32h7xx_hal_dma_ex.c ****   }
 385:Drivers/STM32H7xx_HAL_Driver/Src/stm32h7xx_hal_dma_ex.c **** 
 386:Drivers/STM32H7xx_HAL_Driver/Src/stm32h7xx_hal_dma_ex.c ****   return HAL_OK;
 387:Drivers/STM32H7xx_HAL_Driver/Src/stm32h7xx_hal_dma_ex.c **** }
 388:Drivers/STM32H7xx_HAL_Driver/Src/stm32h7xx_hal_dma_ex.c **** 
 389:Drivers/STM32H7xx_HAL_Driver/Src/stm32h7xx_hal_dma_ex.c **** /**
 390:Drivers/STM32H7xx_HAL_Driver/Src/stm32h7xx_hal_dma_ex.c ****   * @brief  Configure the DMAMUX synchronization parameters for a given DMA stream (instance).
 391:Drivers/STM32H7xx_HAL_Driver/Src/stm32h7xx_hal_dma_ex.c ****   * @param  hdma:       pointer to a DMA_HandleTypeDef structure that contains
 392:Drivers/STM32H7xx_HAL_Driver/Src/stm32h7xx_hal_dma_ex.c ****   *                     the configuration information for the specified DMA Stream.
 393:Drivers/STM32H7xx_HAL_Driver/Src/stm32h7xx_hal_dma_ex.c ****   * @param  pSyncConfig : pointer to HAL_DMA_MuxSyncConfigTypeDef : contains the DMAMUX synchroniza
 394:Drivers/STM32H7xx_HAL_Driver/Src/stm32h7xx_hal_dma_ex.c ****   * @retval HAL status
 395:Drivers/STM32H7xx_HAL_Driver/Src/stm32h7xx_hal_dma_ex.c ****   */
 396:Drivers/STM32H7xx_HAL_Driver/Src/stm32h7xx_hal_dma_ex.c **** HAL_StatusTypeDef HAL_DMAEx_ConfigMuxSync(DMA_HandleTypeDef *hdma, HAL_DMA_MuxSyncConfigTypeDef *pS
 397:Drivers/STM32H7xx_HAL_Driver/Src/stm32h7xx_hal_dma_ex.c **** {
 398:Drivers/STM32H7xx_HAL_Driver/Src/stm32h7xx_hal_dma_ex.c ****   uint32_t syncSignalID = 0;
 399:Drivers/STM32H7xx_HAL_Driver/Src/stm32h7xx_hal_dma_ex.c ****   uint32_t syncPolarity = 0;
 400:Drivers/STM32H7xx_HAL_Driver/Src/stm32h7xx_hal_dma_ex.c **** 
 401:Drivers/STM32H7xx_HAL_Driver/Src/stm32h7xx_hal_dma_ex.c ****   /* Check the parameters */
 402:Drivers/STM32H7xx_HAL_Driver/Src/stm32h7xx_hal_dma_ex.c ****   assert_param(IS_DMA_DMAMUX_ALL_INSTANCE(hdma->Instance));
 403:Drivers/STM32H7xx_HAL_Driver/Src/stm32h7xx_hal_dma_ex.c ****   assert_param(IS_DMAMUX_SYNC_STATE(pSyncConfig->SyncEnable));
 404:Drivers/STM32H7xx_HAL_Driver/Src/stm32h7xx_hal_dma_ex.c ****   assert_param(IS_DMAMUX_SYNC_EVENT(pSyncConfig->EventEnable));
 405:Drivers/STM32H7xx_HAL_Driver/Src/stm32h7xx_hal_dma_ex.c ****   assert_param(IS_DMAMUX_SYNC_REQUEST_NUMBER(pSyncConfig->RequestNumber));
 406:Drivers/STM32H7xx_HAL_Driver/Src/stm32h7xx_hal_dma_ex.c **** 
 407:Drivers/STM32H7xx_HAL_Driver/Src/stm32h7xx_hal_dma_ex.c ****   if(pSyncConfig->SyncEnable == ENABLE)
 408:Drivers/STM32H7xx_HAL_Driver/Src/stm32h7xx_hal_dma_ex.c ****   {
 409:Drivers/STM32H7xx_HAL_Driver/Src/stm32h7xx_hal_dma_ex.c ****     assert_param(IS_DMAMUX_SYNC_POLARITY(pSyncConfig->SyncPolarity));
 410:Drivers/STM32H7xx_HAL_Driver/Src/stm32h7xx_hal_dma_ex.c **** 
 411:Drivers/STM32H7xx_HAL_Driver/Src/stm32h7xx_hal_dma_ex.c ****     if(IS_DMA_STREAM_INSTANCE(hdma->Instance) != 0U) /* DMA1 or DMA2 instance */
 412:Drivers/STM32H7xx_HAL_Driver/Src/stm32h7xx_hal_dma_ex.c ****     {
 413:Drivers/STM32H7xx_HAL_Driver/Src/stm32h7xx_hal_dma_ex.c ****       assert_param(IS_DMA_DMAMUX_SYNC_SIGNAL_ID(pSyncConfig->SyncSignalID));
 414:Drivers/STM32H7xx_HAL_Driver/Src/stm32h7xx_hal_dma_ex.c ****     }
 415:Drivers/STM32H7xx_HAL_Driver/Src/stm32h7xx_hal_dma_ex.c ****     else
 416:Drivers/STM32H7xx_HAL_Driver/Src/stm32h7xx_hal_dma_ex.c ****     {
 417:Drivers/STM32H7xx_HAL_Driver/Src/stm32h7xx_hal_dma_ex.c ****       assert_param(IS_BDMA_DMAMUX_SYNC_SIGNAL_ID(pSyncConfig->SyncSignalID));
 418:Drivers/STM32H7xx_HAL_Driver/Src/stm32h7xx_hal_dma_ex.c ****     }
 419:Drivers/STM32H7xx_HAL_Driver/Src/stm32h7xx_hal_dma_ex.c ****     syncSignalID = pSyncConfig->SyncSignalID;
 420:Drivers/STM32H7xx_HAL_Driver/Src/stm32h7xx_hal_dma_ex.c ****     syncPolarity = pSyncConfig->SyncPolarity;
 421:Drivers/STM32H7xx_HAL_Driver/Src/stm32h7xx_hal_dma_ex.c ****   }
 422:Drivers/STM32H7xx_HAL_Driver/Src/stm32h7xx_hal_dma_ex.c **** 
 423:Drivers/STM32H7xx_HAL_Driver/Src/stm32h7xx_hal_dma_ex.c ****   /*Check if the DMA state is ready */
 424:Drivers/STM32H7xx_HAL_Driver/Src/stm32h7xx_hal_dma_ex.c ****   if(hdma->State == HAL_DMA_STATE_READY)
 425:Drivers/STM32H7xx_HAL_Driver/Src/stm32h7xx_hal_dma_ex.c ****   {
 426:Drivers/STM32H7xx_HAL_Driver/Src/stm32h7xx_hal_dma_ex.c ****     /* Process Locked */
 427:Drivers/STM32H7xx_HAL_Driver/Src/stm32h7xx_hal_dma_ex.c ****     __HAL_LOCK(hdma);
 428:Drivers/STM32H7xx_HAL_Driver/Src/stm32h7xx_hal_dma_ex.c **** 
 429:Drivers/STM32H7xx_HAL_Driver/Src/stm32h7xx_hal_dma_ex.c ****     /* Disable the synchronization and event generation before applying a new config */
 430:Drivers/STM32H7xx_HAL_Driver/Src/stm32h7xx_hal_dma_ex.c ****     CLEAR_BIT(hdma->DMAmuxChannel->CCR,(DMAMUX_CxCR_SE | DMAMUX_CxCR_EGE));
ARM GAS  /tmp/ccYmmrDD.s 			page 9


 431:Drivers/STM32H7xx_HAL_Driver/Src/stm32h7xx_hal_dma_ex.c **** 
 432:Drivers/STM32H7xx_HAL_Driver/Src/stm32h7xx_hal_dma_ex.c ****     /* Set the new synchronization parameters (and keep the request ID filled during the Init)*/
 433:Drivers/STM32H7xx_HAL_Driver/Src/stm32h7xx_hal_dma_ex.c ****     MODIFY_REG( hdma->DMAmuxChannel->CCR, \
 434:Drivers/STM32H7xx_HAL_Driver/Src/stm32h7xx_hal_dma_ex.c ****                (~DMAMUX_CxCR_DMAREQ_ID) , \
 435:Drivers/STM32H7xx_HAL_Driver/Src/stm32h7xx_hal_dma_ex.c ****                (syncSignalID << DMAMUX_CxCR_SYNC_ID_Pos)       | \
 436:Drivers/STM32H7xx_HAL_Driver/Src/stm32h7xx_hal_dma_ex.c ****                ((pSyncConfig->RequestNumber - 1U) << DMAMUX_CxCR_NBREQ_Pos) | \
 437:Drivers/STM32H7xx_HAL_Driver/Src/stm32h7xx_hal_dma_ex.c ****                syncPolarity | ((uint32_t)pSyncConfig->SyncEnable << DMAMUX_CxCR_SE_Pos)    | \
 438:Drivers/STM32H7xx_HAL_Driver/Src/stm32h7xx_hal_dma_ex.c ****                ((uint32_t)pSyncConfig->EventEnable << DMAMUX_CxCR_EGE_Pos));
 439:Drivers/STM32H7xx_HAL_Driver/Src/stm32h7xx_hal_dma_ex.c **** 
 440:Drivers/STM32H7xx_HAL_Driver/Src/stm32h7xx_hal_dma_ex.c ****       /* Process Locked */
 441:Drivers/STM32H7xx_HAL_Driver/Src/stm32h7xx_hal_dma_ex.c ****     __HAL_UNLOCK(hdma);
 442:Drivers/STM32H7xx_HAL_Driver/Src/stm32h7xx_hal_dma_ex.c **** 
 443:Drivers/STM32H7xx_HAL_Driver/Src/stm32h7xx_hal_dma_ex.c ****     return HAL_OK;
 444:Drivers/STM32H7xx_HAL_Driver/Src/stm32h7xx_hal_dma_ex.c ****   }
 445:Drivers/STM32H7xx_HAL_Driver/Src/stm32h7xx_hal_dma_ex.c ****   else
 446:Drivers/STM32H7xx_HAL_Driver/Src/stm32h7xx_hal_dma_ex.c ****   {
 447:Drivers/STM32H7xx_HAL_Driver/Src/stm32h7xx_hal_dma_ex.c ****     /* Set the error code to busy */
 448:Drivers/STM32H7xx_HAL_Driver/Src/stm32h7xx_hal_dma_ex.c ****     hdma->ErrorCode = HAL_DMA_ERROR_BUSY;
 449:Drivers/STM32H7xx_HAL_Driver/Src/stm32h7xx_hal_dma_ex.c **** 
 450:Drivers/STM32H7xx_HAL_Driver/Src/stm32h7xx_hal_dma_ex.c ****     /* Return error status */
 451:Drivers/STM32H7xx_HAL_Driver/Src/stm32h7xx_hal_dma_ex.c ****     return HAL_ERROR;
 452:Drivers/STM32H7xx_HAL_Driver/Src/stm32h7xx_hal_dma_ex.c ****   }
 453:Drivers/STM32H7xx_HAL_Driver/Src/stm32h7xx_hal_dma_ex.c **** }
 454:Drivers/STM32H7xx_HAL_Driver/Src/stm32h7xx_hal_dma_ex.c **** 
 455:Drivers/STM32H7xx_HAL_Driver/Src/stm32h7xx_hal_dma_ex.c **** /**
 456:Drivers/STM32H7xx_HAL_Driver/Src/stm32h7xx_hal_dma_ex.c ****   * @brief  Configure the DMAMUX request generator block used by the given DMA stream (instance).
 457:Drivers/STM32H7xx_HAL_Driver/Src/stm32h7xx_hal_dma_ex.c ****   * @param  hdma:       pointer to a DMA_HandleTypeDef structure that contains
 458:Drivers/STM32H7xx_HAL_Driver/Src/stm32h7xx_hal_dma_ex.c ****   *                     the configuration information for the specified DMA Stream.
 459:Drivers/STM32H7xx_HAL_Driver/Src/stm32h7xx_hal_dma_ex.c ****   * @param  pRequestGeneratorConfig : pointer to HAL_DMA_MuxRequestGeneratorConfigTypeDef :
 460:Drivers/STM32H7xx_HAL_Driver/Src/stm32h7xx_hal_dma_ex.c ****   *         contains the request generator parameters.
 461:Drivers/STM32H7xx_HAL_Driver/Src/stm32h7xx_hal_dma_ex.c ****   *
 462:Drivers/STM32H7xx_HAL_Driver/Src/stm32h7xx_hal_dma_ex.c ****   * @retval HAL status
 463:Drivers/STM32H7xx_HAL_Driver/Src/stm32h7xx_hal_dma_ex.c ****   */
 464:Drivers/STM32H7xx_HAL_Driver/Src/stm32h7xx_hal_dma_ex.c **** HAL_StatusTypeDef HAL_DMAEx_ConfigMuxRequestGenerator (DMA_HandleTypeDef *hdma, HAL_DMA_MuxRequestG
 465:Drivers/STM32H7xx_HAL_Driver/Src/stm32h7xx_hal_dma_ex.c **** {
 466:Drivers/STM32H7xx_HAL_Driver/Src/stm32h7xx_hal_dma_ex.c ****   HAL_StatusTypeDef status;
 467:Drivers/STM32H7xx_HAL_Driver/Src/stm32h7xx_hal_dma_ex.c ****   HAL_DMA_StateTypeDef temp_state = hdma->State;
 468:Drivers/STM32H7xx_HAL_Driver/Src/stm32h7xx_hal_dma_ex.c **** 
 469:Drivers/STM32H7xx_HAL_Driver/Src/stm32h7xx_hal_dma_ex.c ****   /* Check the parameters */
 470:Drivers/STM32H7xx_HAL_Driver/Src/stm32h7xx_hal_dma_ex.c ****   assert_param(IS_DMA_DMAMUX_ALL_INSTANCE(hdma->Instance));
 471:Drivers/STM32H7xx_HAL_Driver/Src/stm32h7xx_hal_dma_ex.c **** 
 472:Drivers/STM32H7xx_HAL_Driver/Src/stm32h7xx_hal_dma_ex.c ****   if(IS_DMA_STREAM_INSTANCE(hdma->Instance) != 0U) /* DMA1 or DMA2 instance */
 473:Drivers/STM32H7xx_HAL_Driver/Src/stm32h7xx_hal_dma_ex.c ****   {
 474:Drivers/STM32H7xx_HAL_Driver/Src/stm32h7xx_hal_dma_ex.c ****     assert_param(IS_DMA_DMAMUX_REQUEST_GEN_SIGNAL_ID(pRequestGeneratorConfig->SignalID));
 475:Drivers/STM32H7xx_HAL_Driver/Src/stm32h7xx_hal_dma_ex.c ****   }
 476:Drivers/STM32H7xx_HAL_Driver/Src/stm32h7xx_hal_dma_ex.c ****   else
 477:Drivers/STM32H7xx_HAL_Driver/Src/stm32h7xx_hal_dma_ex.c ****   {
 478:Drivers/STM32H7xx_HAL_Driver/Src/stm32h7xx_hal_dma_ex.c ****     assert_param(IS_BDMA_DMAMUX_REQUEST_GEN_SIGNAL_ID(pRequestGeneratorConfig->SignalID));
 479:Drivers/STM32H7xx_HAL_Driver/Src/stm32h7xx_hal_dma_ex.c ****   }
 480:Drivers/STM32H7xx_HAL_Driver/Src/stm32h7xx_hal_dma_ex.c **** 
 481:Drivers/STM32H7xx_HAL_Driver/Src/stm32h7xx_hal_dma_ex.c **** 
 482:Drivers/STM32H7xx_HAL_Driver/Src/stm32h7xx_hal_dma_ex.c ****   assert_param(IS_DMAMUX_REQUEST_GEN_POLARITY(pRequestGeneratorConfig->Polarity));
 483:Drivers/STM32H7xx_HAL_Driver/Src/stm32h7xx_hal_dma_ex.c ****   assert_param(IS_DMAMUX_REQUEST_GEN_REQUEST_NUMBER(pRequestGeneratorConfig->RequestNumber));
 484:Drivers/STM32H7xx_HAL_Driver/Src/stm32h7xx_hal_dma_ex.c **** 
 485:Drivers/STM32H7xx_HAL_Driver/Src/stm32h7xx_hal_dma_ex.c ****   /* check if the DMA state is ready
 486:Drivers/STM32H7xx_HAL_Driver/Src/stm32h7xx_hal_dma_ex.c ****      and DMA is using a DMAMUX request generator block
 487:Drivers/STM32H7xx_HAL_Driver/Src/stm32h7xx_hal_dma_ex.c ****   */
ARM GAS  /tmp/ccYmmrDD.s 			page 10


 488:Drivers/STM32H7xx_HAL_Driver/Src/stm32h7xx_hal_dma_ex.c ****   if(hdma->DMAmuxRequestGen == 0U)
 489:Drivers/STM32H7xx_HAL_Driver/Src/stm32h7xx_hal_dma_ex.c ****   {
 490:Drivers/STM32H7xx_HAL_Driver/Src/stm32h7xx_hal_dma_ex.c ****     /* Set the error code to busy */
 491:Drivers/STM32H7xx_HAL_Driver/Src/stm32h7xx_hal_dma_ex.c ****     hdma->ErrorCode = HAL_DMA_ERROR_PARAM;
 492:Drivers/STM32H7xx_HAL_Driver/Src/stm32h7xx_hal_dma_ex.c **** 
 493:Drivers/STM32H7xx_HAL_Driver/Src/stm32h7xx_hal_dma_ex.c ****     /* error status */
 494:Drivers/STM32H7xx_HAL_Driver/Src/stm32h7xx_hal_dma_ex.c ****     status = HAL_ERROR;
 495:Drivers/STM32H7xx_HAL_Driver/Src/stm32h7xx_hal_dma_ex.c ****   }
 496:Drivers/STM32H7xx_HAL_Driver/Src/stm32h7xx_hal_dma_ex.c ****   else if(((hdma->DMAmuxRequestGen->RGCR & DMAMUX_RGxCR_GE) == 0U) && (temp_state == HAL_DMA_STATE_
 497:Drivers/STM32H7xx_HAL_Driver/Src/stm32h7xx_hal_dma_ex.c ****   {
 498:Drivers/STM32H7xx_HAL_Driver/Src/stm32h7xx_hal_dma_ex.c ****     /* RequestGenerator must be disable prior to the configuration i.e GE bit is 0 */
 499:Drivers/STM32H7xx_HAL_Driver/Src/stm32h7xx_hal_dma_ex.c **** 
 500:Drivers/STM32H7xx_HAL_Driver/Src/stm32h7xx_hal_dma_ex.c ****     /* Process Locked */
 501:Drivers/STM32H7xx_HAL_Driver/Src/stm32h7xx_hal_dma_ex.c ****     __HAL_LOCK(hdma);
 502:Drivers/STM32H7xx_HAL_Driver/Src/stm32h7xx_hal_dma_ex.c **** 
 503:Drivers/STM32H7xx_HAL_Driver/Src/stm32h7xx_hal_dma_ex.c ****     /* Set the request generator new parameters */
 504:Drivers/STM32H7xx_HAL_Driver/Src/stm32h7xx_hal_dma_ex.c ****     hdma->DMAmuxRequestGen->RGCR = pRequestGeneratorConfig->SignalID | \
 505:Drivers/STM32H7xx_HAL_Driver/Src/stm32h7xx_hal_dma_ex.c ****                                   ((pRequestGeneratorConfig->RequestNumber - 1U) << DMAMUX_RGxCR_GN
 506:Drivers/STM32H7xx_HAL_Driver/Src/stm32h7xx_hal_dma_ex.c ****                                   pRequestGeneratorConfig->Polarity;
 507:Drivers/STM32H7xx_HAL_Driver/Src/stm32h7xx_hal_dma_ex.c ****     /* Process Locked */
 508:Drivers/STM32H7xx_HAL_Driver/Src/stm32h7xx_hal_dma_ex.c ****     __HAL_UNLOCK(hdma);
 509:Drivers/STM32H7xx_HAL_Driver/Src/stm32h7xx_hal_dma_ex.c **** 
 510:Drivers/STM32H7xx_HAL_Driver/Src/stm32h7xx_hal_dma_ex.c ****     return HAL_OK;
 511:Drivers/STM32H7xx_HAL_Driver/Src/stm32h7xx_hal_dma_ex.c ****   }
 512:Drivers/STM32H7xx_HAL_Driver/Src/stm32h7xx_hal_dma_ex.c ****   else
 513:Drivers/STM32H7xx_HAL_Driver/Src/stm32h7xx_hal_dma_ex.c ****   {
 514:Drivers/STM32H7xx_HAL_Driver/Src/stm32h7xx_hal_dma_ex.c ****     /* Set the error code to busy */
 515:Drivers/STM32H7xx_HAL_Driver/Src/stm32h7xx_hal_dma_ex.c ****     hdma->ErrorCode = HAL_DMA_ERROR_BUSY;
 516:Drivers/STM32H7xx_HAL_Driver/Src/stm32h7xx_hal_dma_ex.c **** 
 517:Drivers/STM32H7xx_HAL_Driver/Src/stm32h7xx_hal_dma_ex.c ****     /* error status */
 518:Drivers/STM32H7xx_HAL_Driver/Src/stm32h7xx_hal_dma_ex.c ****     status = HAL_ERROR;
 519:Drivers/STM32H7xx_HAL_Driver/Src/stm32h7xx_hal_dma_ex.c ****   }
 520:Drivers/STM32H7xx_HAL_Driver/Src/stm32h7xx_hal_dma_ex.c **** 
 521:Drivers/STM32H7xx_HAL_Driver/Src/stm32h7xx_hal_dma_ex.c ****   return status;
 522:Drivers/STM32H7xx_HAL_Driver/Src/stm32h7xx_hal_dma_ex.c **** }
 523:Drivers/STM32H7xx_HAL_Driver/Src/stm32h7xx_hal_dma_ex.c **** 
 524:Drivers/STM32H7xx_HAL_Driver/Src/stm32h7xx_hal_dma_ex.c **** /**
 525:Drivers/STM32H7xx_HAL_Driver/Src/stm32h7xx_hal_dma_ex.c ****   * @brief  Enable the DMAMUX request generator block used by the given DMA stream (instance).
 526:Drivers/STM32H7xx_HAL_Driver/Src/stm32h7xx_hal_dma_ex.c ****   * @param  hdma:       pointer to a DMA_HandleTypeDef structure that contains
 527:Drivers/STM32H7xx_HAL_Driver/Src/stm32h7xx_hal_dma_ex.c ****   *                     the configuration information for the specified DMA Stream.
 528:Drivers/STM32H7xx_HAL_Driver/Src/stm32h7xx_hal_dma_ex.c ****   * @retval HAL status
 529:Drivers/STM32H7xx_HAL_Driver/Src/stm32h7xx_hal_dma_ex.c ****   */
 530:Drivers/STM32H7xx_HAL_Driver/Src/stm32h7xx_hal_dma_ex.c **** HAL_StatusTypeDef HAL_DMAEx_EnableMuxRequestGenerator (DMA_HandleTypeDef *hdma)
 531:Drivers/STM32H7xx_HAL_Driver/Src/stm32h7xx_hal_dma_ex.c **** {
 532:Drivers/STM32H7xx_HAL_Driver/Src/stm32h7xx_hal_dma_ex.c ****   /* Check the parameters */
 533:Drivers/STM32H7xx_HAL_Driver/Src/stm32h7xx_hal_dma_ex.c ****   assert_param(IS_DMA_DMAMUX_ALL_INSTANCE(hdma->Instance));
 534:Drivers/STM32H7xx_HAL_Driver/Src/stm32h7xx_hal_dma_ex.c **** 
 535:Drivers/STM32H7xx_HAL_Driver/Src/stm32h7xx_hal_dma_ex.c ****   /* check if the DMA state is ready
 536:Drivers/STM32H7xx_HAL_Driver/Src/stm32h7xx_hal_dma_ex.c ****      and DMA is using a DMAMUX request generator block */
 537:Drivers/STM32H7xx_HAL_Driver/Src/stm32h7xx_hal_dma_ex.c ****   if((hdma->State != HAL_DMA_STATE_RESET) && (hdma->DMAmuxRequestGen != 0U))
 538:Drivers/STM32H7xx_HAL_Driver/Src/stm32h7xx_hal_dma_ex.c ****   {
 539:Drivers/STM32H7xx_HAL_Driver/Src/stm32h7xx_hal_dma_ex.c ****     /* Enable the request generator*/
 540:Drivers/STM32H7xx_HAL_Driver/Src/stm32h7xx_hal_dma_ex.c ****     hdma->DMAmuxRequestGen->RGCR |= DMAMUX_RGxCR_GE;
 541:Drivers/STM32H7xx_HAL_Driver/Src/stm32h7xx_hal_dma_ex.c **** 
 542:Drivers/STM32H7xx_HAL_Driver/Src/stm32h7xx_hal_dma_ex.c ****    return HAL_OK;
 543:Drivers/STM32H7xx_HAL_Driver/Src/stm32h7xx_hal_dma_ex.c ****  }
 544:Drivers/STM32H7xx_HAL_Driver/Src/stm32h7xx_hal_dma_ex.c ****  else
ARM GAS  /tmp/ccYmmrDD.s 			page 11


 545:Drivers/STM32H7xx_HAL_Driver/Src/stm32h7xx_hal_dma_ex.c ****  {
 546:Drivers/STM32H7xx_HAL_Driver/Src/stm32h7xx_hal_dma_ex.c ****    return HAL_ERROR;
 547:Drivers/STM32H7xx_HAL_Driver/Src/stm32h7xx_hal_dma_ex.c ****  }
 548:Drivers/STM32H7xx_HAL_Driver/Src/stm32h7xx_hal_dma_ex.c **** }
 549:Drivers/STM32H7xx_HAL_Driver/Src/stm32h7xx_hal_dma_ex.c **** 
 550:Drivers/STM32H7xx_HAL_Driver/Src/stm32h7xx_hal_dma_ex.c **** /**
 551:Drivers/STM32H7xx_HAL_Driver/Src/stm32h7xx_hal_dma_ex.c ****   * @brief  Disable the DMAMUX request generator block used by the given DMA stream (instance).
 552:Drivers/STM32H7xx_HAL_Driver/Src/stm32h7xx_hal_dma_ex.c ****   * @param  hdma:       pointer to a DMA_HandleTypeDef structure that contains
 553:Drivers/STM32H7xx_HAL_Driver/Src/stm32h7xx_hal_dma_ex.c ****   *                     the configuration information for the specified DMA Stream.
 554:Drivers/STM32H7xx_HAL_Driver/Src/stm32h7xx_hal_dma_ex.c ****   * @retval HAL status
 555:Drivers/STM32H7xx_HAL_Driver/Src/stm32h7xx_hal_dma_ex.c ****   */
 556:Drivers/STM32H7xx_HAL_Driver/Src/stm32h7xx_hal_dma_ex.c **** HAL_StatusTypeDef HAL_DMAEx_DisableMuxRequestGenerator (DMA_HandleTypeDef *hdma)
 557:Drivers/STM32H7xx_HAL_Driver/Src/stm32h7xx_hal_dma_ex.c **** {
 558:Drivers/STM32H7xx_HAL_Driver/Src/stm32h7xx_hal_dma_ex.c ****   /* Check the parameters */
 559:Drivers/STM32H7xx_HAL_Driver/Src/stm32h7xx_hal_dma_ex.c ****   assert_param(IS_DMA_DMAMUX_ALL_INSTANCE(hdma->Instance));
 560:Drivers/STM32H7xx_HAL_Driver/Src/stm32h7xx_hal_dma_ex.c **** 
 561:Drivers/STM32H7xx_HAL_Driver/Src/stm32h7xx_hal_dma_ex.c ****   /* check if the DMA state is ready
 562:Drivers/STM32H7xx_HAL_Driver/Src/stm32h7xx_hal_dma_ex.c ****      and DMA is using a DMAMUX request generator block */
 563:Drivers/STM32H7xx_HAL_Driver/Src/stm32h7xx_hal_dma_ex.c ****   if((hdma->State != HAL_DMA_STATE_RESET) && (hdma->DMAmuxRequestGen != 0U))
 564:Drivers/STM32H7xx_HAL_Driver/Src/stm32h7xx_hal_dma_ex.c ****   {
 565:Drivers/STM32H7xx_HAL_Driver/Src/stm32h7xx_hal_dma_ex.c ****     /* Disable the request generator*/
 566:Drivers/STM32H7xx_HAL_Driver/Src/stm32h7xx_hal_dma_ex.c ****     hdma->DMAmuxRequestGen->RGCR &= ~DMAMUX_RGxCR_GE;
 567:Drivers/STM32H7xx_HAL_Driver/Src/stm32h7xx_hal_dma_ex.c **** 
 568:Drivers/STM32H7xx_HAL_Driver/Src/stm32h7xx_hal_dma_ex.c ****    return HAL_OK;
 569:Drivers/STM32H7xx_HAL_Driver/Src/stm32h7xx_hal_dma_ex.c ****  }
 570:Drivers/STM32H7xx_HAL_Driver/Src/stm32h7xx_hal_dma_ex.c ****  else
 571:Drivers/STM32H7xx_HAL_Driver/Src/stm32h7xx_hal_dma_ex.c ****  {
 572:Drivers/STM32H7xx_HAL_Driver/Src/stm32h7xx_hal_dma_ex.c ****    return HAL_ERROR;
 573:Drivers/STM32H7xx_HAL_Driver/Src/stm32h7xx_hal_dma_ex.c ****  }
 574:Drivers/STM32H7xx_HAL_Driver/Src/stm32h7xx_hal_dma_ex.c **** }
 575:Drivers/STM32H7xx_HAL_Driver/Src/stm32h7xx_hal_dma_ex.c **** 
 576:Drivers/STM32H7xx_HAL_Driver/Src/stm32h7xx_hal_dma_ex.c **** /**
 577:Drivers/STM32H7xx_HAL_Driver/Src/stm32h7xx_hal_dma_ex.c ****   * @brief  Handles DMAMUX interrupt request.
 578:Drivers/STM32H7xx_HAL_Driver/Src/stm32h7xx_hal_dma_ex.c ****   * @param  hdma: pointer to a DMA_HandleTypeDef structure that contains
 579:Drivers/STM32H7xx_HAL_Driver/Src/stm32h7xx_hal_dma_ex.c ****   *               the configuration information for the specified DMA Stream.
 580:Drivers/STM32H7xx_HAL_Driver/Src/stm32h7xx_hal_dma_ex.c ****   * @retval None
 581:Drivers/STM32H7xx_HAL_Driver/Src/stm32h7xx_hal_dma_ex.c ****   */
 582:Drivers/STM32H7xx_HAL_Driver/Src/stm32h7xx_hal_dma_ex.c **** void HAL_DMAEx_MUX_IRQHandler(DMA_HandleTypeDef *hdma)
 583:Drivers/STM32H7xx_HAL_Driver/Src/stm32h7xx_hal_dma_ex.c **** {
 584:Drivers/STM32H7xx_HAL_Driver/Src/stm32h7xx_hal_dma_ex.c ****   /* Check for DMAMUX Synchronization overrun */
 585:Drivers/STM32H7xx_HAL_Driver/Src/stm32h7xx_hal_dma_ex.c ****   if((hdma->DMAmuxChannelStatus->CSR & hdma->DMAmuxChannelStatusMask) != 0U)
 586:Drivers/STM32H7xx_HAL_Driver/Src/stm32h7xx_hal_dma_ex.c ****   {
 587:Drivers/STM32H7xx_HAL_Driver/Src/stm32h7xx_hal_dma_ex.c ****     /* Disable the synchro overrun interrupt */
 588:Drivers/STM32H7xx_HAL_Driver/Src/stm32h7xx_hal_dma_ex.c ****     hdma->DMAmuxChannel->CCR &= ~DMAMUX_CxCR_SOIE;
 589:Drivers/STM32H7xx_HAL_Driver/Src/stm32h7xx_hal_dma_ex.c **** 
 590:Drivers/STM32H7xx_HAL_Driver/Src/stm32h7xx_hal_dma_ex.c ****     /* Clear the DMAMUX synchro overrun flag */
 591:Drivers/STM32H7xx_HAL_Driver/Src/stm32h7xx_hal_dma_ex.c ****     hdma->DMAmuxChannelStatus->CFR = hdma->DMAmuxChannelStatusMask;
 592:Drivers/STM32H7xx_HAL_Driver/Src/stm32h7xx_hal_dma_ex.c **** 
 593:Drivers/STM32H7xx_HAL_Driver/Src/stm32h7xx_hal_dma_ex.c ****     /* Update error code */
 594:Drivers/STM32H7xx_HAL_Driver/Src/stm32h7xx_hal_dma_ex.c ****     hdma->ErrorCode |= HAL_DMA_ERROR_SYNC;
 595:Drivers/STM32H7xx_HAL_Driver/Src/stm32h7xx_hal_dma_ex.c **** 
 596:Drivers/STM32H7xx_HAL_Driver/Src/stm32h7xx_hal_dma_ex.c ****     if(hdma->XferErrorCallback != NULL)
 597:Drivers/STM32H7xx_HAL_Driver/Src/stm32h7xx_hal_dma_ex.c ****     {
 598:Drivers/STM32H7xx_HAL_Driver/Src/stm32h7xx_hal_dma_ex.c ****       /* Transfer error callback */
 599:Drivers/STM32H7xx_HAL_Driver/Src/stm32h7xx_hal_dma_ex.c ****       hdma->XferErrorCallback(hdma);
 600:Drivers/STM32H7xx_HAL_Driver/Src/stm32h7xx_hal_dma_ex.c ****     }
 601:Drivers/STM32H7xx_HAL_Driver/Src/stm32h7xx_hal_dma_ex.c ****   }
ARM GAS  /tmp/ccYmmrDD.s 			page 12


 602:Drivers/STM32H7xx_HAL_Driver/Src/stm32h7xx_hal_dma_ex.c **** 
 603:Drivers/STM32H7xx_HAL_Driver/Src/stm32h7xx_hal_dma_ex.c ****   if(hdma->DMAmuxRequestGen != 0)
 604:Drivers/STM32H7xx_HAL_Driver/Src/stm32h7xx_hal_dma_ex.c ****   {
 605:Drivers/STM32H7xx_HAL_Driver/Src/stm32h7xx_hal_dma_ex.c ****    /* if using a DMAMUX request generator block Check for DMAMUX request generator overrun */
 606:Drivers/STM32H7xx_HAL_Driver/Src/stm32h7xx_hal_dma_ex.c ****     if((hdma->DMAmuxRequestGenStatus->RGSR & hdma->DMAmuxRequestGenStatusMask) != 0U)
 607:Drivers/STM32H7xx_HAL_Driver/Src/stm32h7xx_hal_dma_ex.c ****     {
 608:Drivers/STM32H7xx_HAL_Driver/Src/stm32h7xx_hal_dma_ex.c ****       /* Disable the request gen overrun interrupt */
 609:Drivers/STM32H7xx_HAL_Driver/Src/stm32h7xx_hal_dma_ex.c ****       hdma->DMAmuxRequestGen->RGCR &= ~DMAMUX_RGxCR_OIE;
 610:Drivers/STM32H7xx_HAL_Driver/Src/stm32h7xx_hal_dma_ex.c **** 
 611:Drivers/STM32H7xx_HAL_Driver/Src/stm32h7xx_hal_dma_ex.c ****       /* Clear the DMAMUX request generator overrun flag */
 612:Drivers/STM32H7xx_HAL_Driver/Src/stm32h7xx_hal_dma_ex.c ****       hdma->DMAmuxRequestGenStatus->RGCFR = hdma->DMAmuxRequestGenStatusMask;
 613:Drivers/STM32H7xx_HAL_Driver/Src/stm32h7xx_hal_dma_ex.c **** 
 614:Drivers/STM32H7xx_HAL_Driver/Src/stm32h7xx_hal_dma_ex.c ****       /* Update error code */
 615:Drivers/STM32H7xx_HAL_Driver/Src/stm32h7xx_hal_dma_ex.c ****       hdma->ErrorCode |= HAL_DMA_ERROR_REQGEN;
 616:Drivers/STM32H7xx_HAL_Driver/Src/stm32h7xx_hal_dma_ex.c **** 
 617:Drivers/STM32H7xx_HAL_Driver/Src/stm32h7xx_hal_dma_ex.c ****       if(hdma->XferErrorCallback != NULL)
 618:Drivers/STM32H7xx_HAL_Driver/Src/stm32h7xx_hal_dma_ex.c ****       {
 619:Drivers/STM32H7xx_HAL_Driver/Src/stm32h7xx_hal_dma_ex.c ****         /* Transfer error callback */
 620:Drivers/STM32H7xx_HAL_Driver/Src/stm32h7xx_hal_dma_ex.c ****         hdma->XferErrorCallback(hdma);
 621:Drivers/STM32H7xx_HAL_Driver/Src/stm32h7xx_hal_dma_ex.c ****       }
 622:Drivers/STM32H7xx_HAL_Driver/Src/stm32h7xx_hal_dma_ex.c ****     }
 623:Drivers/STM32H7xx_HAL_Driver/Src/stm32h7xx_hal_dma_ex.c ****   }
 624:Drivers/STM32H7xx_HAL_Driver/Src/stm32h7xx_hal_dma_ex.c **** }
 625:Drivers/STM32H7xx_HAL_Driver/Src/stm32h7xx_hal_dma_ex.c **** 
 626:Drivers/STM32H7xx_HAL_Driver/Src/stm32h7xx_hal_dma_ex.c **** 
 627:Drivers/STM32H7xx_HAL_Driver/Src/stm32h7xx_hal_dma_ex.c **** /**
 628:Drivers/STM32H7xx_HAL_Driver/Src/stm32h7xx_hal_dma_ex.c ****   * @}
 629:Drivers/STM32H7xx_HAL_Driver/Src/stm32h7xx_hal_dma_ex.c ****   */
 630:Drivers/STM32H7xx_HAL_Driver/Src/stm32h7xx_hal_dma_ex.c **** 
 631:Drivers/STM32H7xx_HAL_Driver/Src/stm32h7xx_hal_dma_ex.c **** /**
 632:Drivers/STM32H7xx_HAL_Driver/Src/stm32h7xx_hal_dma_ex.c ****   * @}
 633:Drivers/STM32H7xx_HAL_Driver/Src/stm32h7xx_hal_dma_ex.c ****   */
 634:Drivers/STM32H7xx_HAL_Driver/Src/stm32h7xx_hal_dma_ex.c **** 
 635:Drivers/STM32H7xx_HAL_Driver/Src/stm32h7xx_hal_dma_ex.c **** /** @addtogroup DMAEx_Private_Functions
 636:Drivers/STM32H7xx_HAL_Driver/Src/stm32h7xx_hal_dma_ex.c ****   * @{
 637:Drivers/STM32H7xx_HAL_Driver/Src/stm32h7xx_hal_dma_ex.c ****   */
 638:Drivers/STM32H7xx_HAL_Driver/Src/stm32h7xx_hal_dma_ex.c **** 
 639:Drivers/STM32H7xx_HAL_Driver/Src/stm32h7xx_hal_dma_ex.c **** /**
 640:Drivers/STM32H7xx_HAL_Driver/Src/stm32h7xx_hal_dma_ex.c ****   * @brief  Set the DMA Transfer parameter.
 641:Drivers/STM32H7xx_HAL_Driver/Src/stm32h7xx_hal_dma_ex.c ****   * @param  hdma:       pointer to a DMA_HandleTypeDef structure that contains
 642:Drivers/STM32H7xx_HAL_Driver/Src/stm32h7xx_hal_dma_ex.c ****   *                     the configuration information for the specified DMA Stream.
 643:Drivers/STM32H7xx_HAL_Driver/Src/stm32h7xx_hal_dma_ex.c ****   * @param  SrcAddress: The source memory Buffer address
 644:Drivers/STM32H7xx_HAL_Driver/Src/stm32h7xx_hal_dma_ex.c ****   * @param  DstAddress: The destination memory Buffer address
 645:Drivers/STM32H7xx_HAL_Driver/Src/stm32h7xx_hal_dma_ex.c ****   * @param  DataLength: The length of data to be transferred from source to destination
 646:Drivers/STM32H7xx_HAL_Driver/Src/stm32h7xx_hal_dma_ex.c ****   * @retval HAL status
 647:Drivers/STM32H7xx_HAL_Driver/Src/stm32h7xx_hal_dma_ex.c ****   */
 648:Drivers/STM32H7xx_HAL_Driver/Src/stm32h7xx_hal_dma_ex.c **** static void DMA_MultiBufferSetConfig(DMA_HandleTypeDef *hdma, uint32_t SrcAddress, uint32_t DstAddr
 649:Drivers/STM32H7xx_HAL_Driver/Src/stm32h7xx_hal_dma_ex.c **** {
  28              		.loc 1 649 1 view -0
  29              		.cfi_startproc
  30              		@ args = 0, pretend = 0, frame = 0
  31              		@ frame_needed = 0, uses_anonymous_args = 0
  32              		@ link register save eliminated.
  33              		.loc 1 649 1 is_stmt 0 view .LVU1
  34 0000 70B4     		push	{r4, r5, r6}
  35              	.LCFI0:
  36              		.cfi_def_cfa_offset 12
ARM GAS  /tmp/ccYmmrDD.s 			page 13


  37              		.cfi_offset 4, -12
  38              		.cfi_offset 5, -8
  39              		.cfi_offset 6, -4
 650:Drivers/STM32H7xx_HAL_Driver/Src/stm32h7xx_hal_dma_ex.c ****   if(IS_DMA_STREAM_INSTANCE(hdma->Instance) != 0U) /* DMA1 or DMA2 instance */
  40              		.loc 1 650 3 is_stmt 1 view .LVU2
  41              		.loc 1 650 6 is_stmt 0 view .LVU3
  42 0002 0468     		ldr	r4, [r0]
  43 0004 264E     		ldr	r6, .L11
  44 0006 274D     		ldr	r5, .L11+4
  45 0008 AC42     		cmp	r4, r5
  46 000a 18BF     		it	ne
  47 000c B442     		cmpne	r4, r6
  48 000e 33D0     		beq	.L2
  49              		.loc 1 650 6 discriminator 2 view .LVU4
  50 0010 1835     		adds	r5, r5, #24
  51 0012 AC42     		cmp	r4, r5
  52 0014 30D0     		beq	.L2
  53              		.loc 1 650 6 discriminator 4 view .LVU5
  54 0016 1835     		adds	r5, r5, #24
  55 0018 AC42     		cmp	r4, r5
  56 001a 2DD0     		beq	.L2
  57              		.loc 1 650 6 discriminator 6 view .LVU6
  58 001c 1835     		adds	r5, r5, #24
  59 001e AC42     		cmp	r4, r5
  60 0020 2AD0     		beq	.L2
  61              		.loc 1 650 6 discriminator 8 view .LVU7
  62 0022 1835     		adds	r5, r5, #24
  63 0024 AC42     		cmp	r4, r5
  64 0026 27D0     		beq	.L2
  65              		.loc 1 650 6 discriminator 10 view .LVU8
  66 0028 1835     		adds	r5, r5, #24
  67 002a AC42     		cmp	r4, r5
  68 002c 24D0     		beq	.L2
  69              		.loc 1 650 6 discriminator 12 view .LVU9
  70 002e 1835     		adds	r5, r5, #24
  71 0030 AC42     		cmp	r4, r5
  72 0032 21D0     		beq	.L2
  73              		.loc 1 650 6 discriminator 14 view .LVU10
  74 0034 05F55675 		add	r5, r5, #856
  75 0038 AC42     		cmp	r4, r5
  76 003a 1DD0     		beq	.L2
  77              		.loc 1 650 6 discriminator 16 view .LVU11
  78 003c 1835     		adds	r5, r5, #24
  79 003e AC42     		cmp	r4, r5
  80 0040 1AD0     		beq	.L2
  81              		.loc 1 650 6 discriminator 18 view .LVU12
  82 0042 1835     		adds	r5, r5, #24
  83 0044 AC42     		cmp	r4, r5
  84 0046 17D0     		beq	.L2
  85              		.loc 1 650 6 discriminator 20 view .LVU13
  86 0048 1835     		adds	r5, r5, #24
  87 004a AC42     		cmp	r4, r5
  88 004c 14D0     		beq	.L2
  89              		.loc 1 650 6 discriminator 22 view .LVU14
  90 004e 1835     		adds	r5, r5, #24
  91 0050 AC42     		cmp	r4, r5
  92 0052 11D0     		beq	.L2
ARM GAS  /tmp/ccYmmrDD.s 			page 14


  93              		.loc 1 650 6 discriminator 24 view .LVU15
  94 0054 1835     		adds	r5, r5, #24
  95 0056 AC42     		cmp	r4, r5
  96 0058 0ED0     		beq	.L2
  97              		.loc 1 650 6 discriminator 26 view .LVU16
  98 005a 1835     		adds	r5, r5, #24
  99 005c AC42     		cmp	r4, r5
 100 005e 0BD0     		beq	.L2
 101              		.loc 1 650 6 discriminator 28 view .LVU17
 102 0060 1835     		adds	r5, r5, #24
 103 0062 AC42     		cmp	r4, r5
 104 0064 08D0     		beq	.L2
 651:Drivers/STM32H7xx_HAL_Driver/Src/stm32h7xx_hal_dma_ex.c ****   {
 652:Drivers/STM32H7xx_HAL_Driver/Src/stm32h7xx_hal_dma_ex.c ****     /* Configure DMA Stream data length */
 653:Drivers/STM32H7xx_HAL_Driver/Src/stm32h7xx_hal_dma_ex.c ****     ((DMA_Stream_TypeDef   *)hdma->Instance)->NDTR = DataLength;
 654:Drivers/STM32H7xx_HAL_Driver/Src/stm32h7xx_hal_dma_ex.c **** 
 655:Drivers/STM32H7xx_HAL_Driver/Src/stm32h7xx_hal_dma_ex.c ****     /* Peripheral to Memory */
 656:Drivers/STM32H7xx_HAL_Driver/Src/stm32h7xx_hal_dma_ex.c ****     if((hdma->Init.Direction) == DMA_MEMORY_TO_PERIPH)
 657:Drivers/STM32H7xx_HAL_Driver/Src/stm32h7xx_hal_dma_ex.c ****     {
 658:Drivers/STM32H7xx_HAL_Driver/Src/stm32h7xx_hal_dma_ex.c ****       /* Configure DMA Stream destination address */
 659:Drivers/STM32H7xx_HAL_Driver/Src/stm32h7xx_hal_dma_ex.c ****       ((DMA_Stream_TypeDef   *)hdma->Instance)->PAR = DstAddress;
 660:Drivers/STM32H7xx_HAL_Driver/Src/stm32h7xx_hal_dma_ex.c **** 
 661:Drivers/STM32H7xx_HAL_Driver/Src/stm32h7xx_hal_dma_ex.c ****       /* Configure DMA Stream source address */
 662:Drivers/STM32H7xx_HAL_Driver/Src/stm32h7xx_hal_dma_ex.c ****       ((DMA_Stream_TypeDef   *)hdma->Instance)->M0AR = SrcAddress;
 663:Drivers/STM32H7xx_HAL_Driver/Src/stm32h7xx_hal_dma_ex.c ****     }
 664:Drivers/STM32H7xx_HAL_Driver/Src/stm32h7xx_hal_dma_ex.c ****     /* Memory to Peripheral */
 665:Drivers/STM32H7xx_HAL_Driver/Src/stm32h7xx_hal_dma_ex.c ****     else
 666:Drivers/STM32H7xx_HAL_Driver/Src/stm32h7xx_hal_dma_ex.c ****     {
 667:Drivers/STM32H7xx_HAL_Driver/Src/stm32h7xx_hal_dma_ex.c ****       /* Configure DMA Stream source address */
 668:Drivers/STM32H7xx_HAL_Driver/Src/stm32h7xx_hal_dma_ex.c ****       ((DMA_Stream_TypeDef   *)hdma->Instance)->PAR = SrcAddress;
 669:Drivers/STM32H7xx_HAL_Driver/Src/stm32h7xx_hal_dma_ex.c **** 
 670:Drivers/STM32H7xx_HAL_Driver/Src/stm32h7xx_hal_dma_ex.c ****       /* Configure DMA Stream destination address */
 671:Drivers/STM32H7xx_HAL_Driver/Src/stm32h7xx_hal_dma_ex.c ****       ((DMA_Stream_TypeDef   *)hdma->Instance)->M0AR = DstAddress;
 672:Drivers/STM32H7xx_HAL_Driver/Src/stm32h7xx_hal_dma_ex.c ****     }
 673:Drivers/STM32H7xx_HAL_Driver/Src/stm32h7xx_hal_dma_ex.c ****   }
 674:Drivers/STM32H7xx_HAL_Driver/Src/stm32h7xx_hal_dma_ex.c ****   else /* BDMA instance(s) */
 675:Drivers/STM32H7xx_HAL_Driver/Src/stm32h7xx_hal_dma_ex.c ****   {
 676:Drivers/STM32H7xx_HAL_Driver/Src/stm32h7xx_hal_dma_ex.c ****     /* Configure DMA Stream data length */
 677:Drivers/STM32H7xx_HAL_Driver/Src/stm32h7xx_hal_dma_ex.c ****     ((BDMA_Channel_TypeDef   *)hdma->Instance)->CNDTR = DataLength;
 105              		.loc 1 677 5 is_stmt 1 view .LVU18
 106              		.loc 1 677 55 is_stmt 0 view .LVU19
 107 0066 6360     		str	r3, [r4, #4]
 678:Drivers/STM32H7xx_HAL_Driver/Src/stm32h7xx_hal_dma_ex.c **** 
 679:Drivers/STM32H7xx_HAL_Driver/Src/stm32h7xx_hal_dma_ex.c ****     /* Peripheral to Memory */
 680:Drivers/STM32H7xx_HAL_Driver/Src/stm32h7xx_hal_dma_ex.c ****     if((hdma->Init.Direction) == DMA_MEMORY_TO_PERIPH)
 108              		.loc 1 680 5 is_stmt 1 view .LVU20
 109              		.loc 1 680 19 is_stmt 0 view .LVU21
 110 0068 8368     		ldr	r3, [r0, #8]
 111              	.LVL1:
 112              		.loc 1 680 7 view .LVU22
 113 006a 402B     		cmp	r3, #64
 114 006c 13D0     		beq	.L9
 681:Drivers/STM32H7xx_HAL_Driver/Src/stm32h7xx_hal_dma_ex.c ****     {
 682:Drivers/STM32H7xx_HAL_Driver/Src/stm32h7xx_hal_dma_ex.c ****       /* Configure DMA Stream destination address */
 683:Drivers/STM32H7xx_HAL_Driver/Src/stm32h7xx_hal_dma_ex.c ****       ((BDMA_Channel_TypeDef   *)hdma->Instance)->CPAR = DstAddress;
 684:Drivers/STM32H7xx_HAL_Driver/Src/stm32h7xx_hal_dma_ex.c **** 
 685:Drivers/STM32H7xx_HAL_Driver/Src/stm32h7xx_hal_dma_ex.c ****       /* Configure DMA Stream source address */
ARM GAS  /tmp/ccYmmrDD.s 			page 15


 686:Drivers/STM32H7xx_HAL_Driver/Src/stm32h7xx_hal_dma_ex.c ****       ((BDMA_Channel_TypeDef   *)hdma->Instance)->CM0AR = SrcAddress;
 687:Drivers/STM32H7xx_HAL_Driver/Src/stm32h7xx_hal_dma_ex.c ****     }
 688:Drivers/STM32H7xx_HAL_Driver/Src/stm32h7xx_hal_dma_ex.c ****     /* Memory to Peripheral */
 689:Drivers/STM32H7xx_HAL_Driver/Src/stm32h7xx_hal_dma_ex.c ****     else
 690:Drivers/STM32H7xx_HAL_Driver/Src/stm32h7xx_hal_dma_ex.c ****     {
 691:Drivers/STM32H7xx_HAL_Driver/Src/stm32h7xx_hal_dma_ex.c ****       /* Configure DMA Stream source address */
 692:Drivers/STM32H7xx_HAL_Driver/Src/stm32h7xx_hal_dma_ex.c ****       ((BDMA_Channel_TypeDef   *)hdma->Instance)->CPAR = SrcAddress;
 115              		.loc 1 692 7 is_stmt 1 view .LVU23
 116              		.loc 1 692 38 is_stmt 0 view .LVU24
 117 006e 0368     		ldr	r3, [r0]
 118              		.loc 1 692 56 view .LVU25
 119 0070 9960     		str	r1, [r3, #8]
 120              	.LVL2:
 693:Drivers/STM32H7xx_HAL_Driver/Src/stm32h7xx_hal_dma_ex.c **** 
 694:Drivers/STM32H7xx_HAL_Driver/Src/stm32h7xx_hal_dma_ex.c ****       /* Configure DMA Stream destination address */
 695:Drivers/STM32H7xx_HAL_Driver/Src/stm32h7xx_hal_dma_ex.c ****       ((BDMA_Channel_TypeDef   *)hdma->Instance)->CM0AR = DstAddress;
 121              		.loc 1 695 7 is_stmt 1 view .LVU26
 122              		.loc 1 695 38 is_stmt 0 view .LVU27
 123 0072 0368     		ldr	r3, [r0]
 124              		.loc 1 695 57 view .LVU28
 125 0074 DA60     		str	r2, [r3, #12]
 696:Drivers/STM32H7xx_HAL_Driver/Src/stm32h7xx_hal_dma_ex.c ****     }
 697:Drivers/STM32H7xx_HAL_Driver/Src/stm32h7xx_hal_dma_ex.c ****   }
 698:Drivers/STM32H7xx_HAL_Driver/Src/stm32h7xx_hal_dma_ex.c **** }
 126              		.loc 1 698 1 view .LVU29
 127 0076 07E0     		b	.L1
 128              	.LVL3:
 129              	.L2:
 653:Drivers/STM32H7xx_HAL_Driver/Src/stm32h7xx_hal_dma_ex.c **** 
 130              		.loc 1 653 5 is_stmt 1 view .LVU30
 653:Drivers/STM32H7xx_HAL_Driver/Src/stm32h7xx_hal_dma_ex.c **** 
 131              		.loc 1 653 52 is_stmt 0 view .LVU31
 132 0078 6360     		str	r3, [r4, #4]
 656:Drivers/STM32H7xx_HAL_Driver/Src/stm32h7xx_hal_dma_ex.c ****     {
 133              		.loc 1 656 5 is_stmt 1 view .LVU32
 656:Drivers/STM32H7xx_HAL_Driver/Src/stm32h7xx_hal_dma_ex.c ****     {
 134              		.loc 1 656 19 is_stmt 0 view .LVU33
 135 007a 8368     		ldr	r3, [r0, #8]
 136              	.LVL4:
 656:Drivers/STM32H7xx_HAL_Driver/Src/stm32h7xx_hal_dma_ex.c ****     {
 137              		.loc 1 656 7 view .LVU34
 138 007c 402B     		cmp	r3, #64
 139 007e 05D0     		beq	.L10
 668:Drivers/STM32H7xx_HAL_Driver/Src/stm32h7xx_hal_dma_ex.c **** 
 140              		.loc 1 668 7 is_stmt 1 view .LVU35
 668:Drivers/STM32H7xx_HAL_Driver/Src/stm32h7xx_hal_dma_ex.c **** 
 141              		.loc 1 668 36 is_stmt 0 view .LVU36
 142 0080 0368     		ldr	r3, [r0]
 668:Drivers/STM32H7xx_HAL_Driver/Src/stm32h7xx_hal_dma_ex.c **** 
 143              		.loc 1 668 53 view .LVU37
 144 0082 9960     		str	r1, [r3, #8]
 145              	.LVL5:
 671:Drivers/STM32H7xx_HAL_Driver/Src/stm32h7xx_hal_dma_ex.c ****     }
 146              		.loc 1 671 7 is_stmt 1 view .LVU38
 671:Drivers/STM32H7xx_HAL_Driver/Src/stm32h7xx_hal_dma_ex.c ****     }
 147              		.loc 1 671 36 is_stmt 0 view .LVU39
 148 0084 0368     		ldr	r3, [r0]
ARM GAS  /tmp/ccYmmrDD.s 			page 16


 671:Drivers/STM32H7xx_HAL_Driver/Src/stm32h7xx_hal_dma_ex.c ****     }
 149              		.loc 1 671 54 view .LVU40
 150 0086 DA60     		str	r2, [r3, #12]
 151              	.L1:
 152              		.loc 1 698 1 view .LVU41
 153 0088 70BC     		pop	{r4, r5, r6}
 154              	.LCFI1:
 155              		.cfi_remember_state
 156              		.cfi_restore 6
 157              		.cfi_restore 5
 158              		.cfi_restore 4
 159              		.cfi_def_cfa_offset 0
 160 008a 7047     		bx	lr
 161              	.LVL6:
 162              	.L10:
 163              	.LCFI2:
 164              		.cfi_restore_state
 659:Drivers/STM32H7xx_HAL_Driver/Src/stm32h7xx_hal_dma_ex.c **** 
 165              		.loc 1 659 7 is_stmt 1 view .LVU42
 659:Drivers/STM32H7xx_HAL_Driver/Src/stm32h7xx_hal_dma_ex.c **** 
 166              		.loc 1 659 36 is_stmt 0 view .LVU43
 167 008c 0368     		ldr	r3, [r0]
 659:Drivers/STM32H7xx_HAL_Driver/Src/stm32h7xx_hal_dma_ex.c **** 
 168              		.loc 1 659 53 view .LVU44
 169 008e 9A60     		str	r2, [r3, #8]
 170              	.LVL7:
 662:Drivers/STM32H7xx_HAL_Driver/Src/stm32h7xx_hal_dma_ex.c ****     }
 171              		.loc 1 662 7 is_stmt 1 view .LVU45
 662:Drivers/STM32H7xx_HAL_Driver/Src/stm32h7xx_hal_dma_ex.c ****     }
 172              		.loc 1 662 36 is_stmt 0 view .LVU46
 173 0090 0368     		ldr	r3, [r0]
 662:Drivers/STM32H7xx_HAL_Driver/Src/stm32h7xx_hal_dma_ex.c ****     }
 174              		.loc 1 662 54 view .LVU47
 175 0092 D960     		str	r1, [r3, #12]
 176 0094 F8E7     		b	.L1
 177              	.LVL8:
 178              	.L9:
 683:Drivers/STM32H7xx_HAL_Driver/Src/stm32h7xx_hal_dma_ex.c **** 
 179              		.loc 1 683 7 is_stmt 1 view .LVU48
 683:Drivers/STM32H7xx_HAL_Driver/Src/stm32h7xx_hal_dma_ex.c **** 
 180              		.loc 1 683 38 is_stmt 0 view .LVU49
 181 0096 0368     		ldr	r3, [r0]
 683:Drivers/STM32H7xx_HAL_Driver/Src/stm32h7xx_hal_dma_ex.c **** 
 182              		.loc 1 683 56 view .LVU50
 183 0098 9A60     		str	r2, [r3, #8]
 184              	.LVL9:
 686:Drivers/STM32H7xx_HAL_Driver/Src/stm32h7xx_hal_dma_ex.c ****     }
 185              		.loc 1 686 7 is_stmt 1 view .LVU51
 686:Drivers/STM32H7xx_HAL_Driver/Src/stm32h7xx_hal_dma_ex.c ****     }
 186              		.loc 1 686 38 is_stmt 0 view .LVU52
 187 009a 0368     		ldr	r3, [r0]
 686:Drivers/STM32H7xx_HAL_Driver/Src/stm32h7xx_hal_dma_ex.c ****     }
 188              		.loc 1 686 57 view .LVU53
 189 009c D960     		str	r1, [r3, #12]
 190 009e F3E7     		b	.L1
 191              	.L12:
 192              		.align	2
ARM GAS  /tmp/ccYmmrDD.s 			page 17


 193              	.L11:
 194 00a0 10000240 		.word	1073872912
 195 00a4 28000240 		.word	1073872936
 196              		.cfi_endproc
 197              	.LFE345:
 199              		.section	.text.HAL_DMAEx_MultiBufferStart,"ax",%progbits
 200              		.align	1
 201              		.global	HAL_DMAEx_MultiBufferStart
 202              		.syntax unified
 203              		.thumb
 204              		.thumb_func
 206              	HAL_DMAEx_MultiBufferStart:
 207              	.LVL10:
 208              	.LFB337:
 121:Drivers/STM32H7xx_HAL_Driver/Src/stm32h7xx_hal_dma_ex.c ****   HAL_StatusTypeDef status = HAL_OK;
 209              		.loc 1 121 1 is_stmt 1 view -0
 210              		.cfi_startproc
 211              		@ args = 4, pretend = 0, frame = 0
 212              		@ frame_needed = 0, uses_anonymous_args = 0
 121:Drivers/STM32H7xx_HAL_Driver/Src/stm32h7xx_hal_dma_ex.c ****   HAL_StatusTypeDef status = HAL_OK;
 213              		.loc 1 121 1 is_stmt 0 view .LVU55
 214 0000 70B5     		push	{r4, r5, r6, lr}
 215              	.LCFI3:
 216              		.cfi_def_cfa_offset 16
 217              		.cfi_offset 4, -16
 218              		.cfi_offset 5, -12
 219              		.cfi_offset 6, -8
 220              		.cfi_offset 14, -4
 221 0002 0446     		mov	r4, r0
 122:Drivers/STM32H7xx_HAL_Driver/Src/stm32h7xx_hal_dma_ex.c ****   __IO uint32_t *ifcRegister_Base; /* DMA Stream Interrupt Clear register */
 222              		.loc 1 122 3 is_stmt 1 view .LVU56
 223              	.LVL11:
 123:Drivers/STM32H7xx_HAL_Driver/Src/stm32h7xx_hal_dma_ex.c **** 
 224              		.loc 1 123 3 view .LVU57
 126:Drivers/STM32H7xx_HAL_Driver/Src/stm32h7xx_hal_dma_ex.c ****   assert_param(IS_DMA_ALL_INSTANCE(hdma->Instance));
 225              		.loc 1 126 3 view .LVU58
 127:Drivers/STM32H7xx_HAL_Driver/Src/stm32h7xx_hal_dma_ex.c **** 
 226              		.loc 1 127 3 view .LVU59
 130:Drivers/STM32H7xx_HAL_Driver/Src/stm32h7xx_hal_dma_ex.c ****   {
 227              		.loc 1 130 3 view .LVU60
 130:Drivers/STM32H7xx_HAL_Driver/Src/stm32h7xx_hal_dma_ex.c ****   {
 228              		.loc 1 130 17 is_stmt 0 view .LVU61
 229 0004 8068     		ldr	r0, [r0, #8]
 230              	.LVL12:
 130:Drivers/STM32H7xx_HAL_Driver/Src/stm32h7xx_hal_dma_ex.c ****   {
 231              		.loc 1 130 6 view .LVU62
 232 0006 8028     		cmp	r0, #128
 233 0008 10D0     		beq	.L25
 138:Drivers/STM32H7xx_HAL_Driver/Src/stm32h7xx_hal_dma_ex.c **** 
 234              		.loc 1 138 5 is_stmt 1 view .LVU63
 138:Drivers/STM32H7xx_HAL_Driver/Src/stm32h7xx_hal_dma_ex.c **** 
 235              		.loc 1 138 5 view .LVU64
 236 000a 94F83400 		ldrb	r0, [r4, #52]	@ zero_extendqisi2
 237 000e 0128     		cmp	r0, #1
 238 0010 00F0F880 		beq	.L23
 138:Drivers/STM32H7xx_HAL_Driver/Src/stm32h7xx_hal_dma_ex.c **** 
 239              		.loc 1 138 5 discriminator 2 view .LVU65
ARM GAS  /tmp/ccYmmrDD.s 			page 18


 240 0014 0120     		movs	r0, #1
 241 0016 84F83400 		strb	r0, [r4, #52]
 138:Drivers/STM32H7xx_HAL_Driver/Src/stm32h7xx_hal_dma_ex.c **** 
 242              		.loc 1 138 5 view .LVU66
 140:Drivers/STM32H7xx_HAL_Driver/Src/stm32h7xx_hal_dma_ex.c ****     {
 243              		.loc 1 140 5 view .LVU67
 140:Drivers/STM32H7xx_HAL_Driver/Src/stm32h7xx_hal_dma_ex.c ****     {
 244              		.loc 1 140 35 is_stmt 0 view .LVU68
 245 001a 94F83500 		ldrb	r0, [r4, #53]	@ zero_extendqisi2
 140:Drivers/STM32H7xx_HAL_Driver/Src/stm32h7xx_hal_dma_ex.c ****     {
 246              		.loc 1 140 7 view .LVU69
 247 001e 0128     		cmp	r0, #1
 248 0020 09D0     		beq	.L26
 198:Drivers/STM32H7xx_HAL_Driver/Src/stm32h7xx_hal_dma_ex.c **** 
 249              		.loc 1 198 7 is_stmt 1 view .LVU70
 198:Drivers/STM32H7xx_HAL_Driver/Src/stm32h7xx_hal_dma_ex.c **** 
 250              		.loc 1 198 23 is_stmt 0 view .LVU71
 251 0022 4FF40063 		mov	r3, #2048
 252              	.LVL13:
 198:Drivers/STM32H7xx_HAL_Driver/Src/stm32h7xx_hal_dma_ex.c **** 
 253              		.loc 1 198 23 view .LVU72
 254 0026 6365     		str	r3, [r4, #84]
 201:Drivers/STM32H7xx_HAL_Driver/Src/stm32h7xx_hal_dma_ex.c ****     }
 255              		.loc 1 201 7 is_stmt 1 view .LVU73
 256              	.LVL14:
 201:Drivers/STM32H7xx_HAL_Driver/Src/stm32h7xx_hal_dma_ex.c ****     }
 257              		.loc 1 201 14 is_stmt 0 view .LVU74
 258 0028 0120     		movs	r0, #1
 259              	.LVL15:
 260              	.L15:
 205:Drivers/STM32H7xx_HAL_Driver/Src/stm32h7xx_hal_dma_ex.c **** 
 261              		.loc 1 205 1 view .LVU75
 262 002a 70BD     		pop	{r4, r5, r6, pc}
 263              	.LVL16:
 264              	.L25:
 132:Drivers/STM32H7xx_HAL_Driver/Src/stm32h7xx_hal_dma_ex.c ****     status = HAL_ERROR;
 265              		.loc 1 132 5 is_stmt 1 view .LVU76
 132:Drivers/STM32H7xx_HAL_Driver/Src/stm32h7xx_hal_dma_ex.c ****     status = HAL_ERROR;
 266              		.loc 1 132 21 is_stmt 0 view .LVU77
 267 002c 4FF48073 		mov	r3, #256
 268              	.LVL17:
 132:Drivers/STM32H7xx_HAL_Driver/Src/stm32h7xx_hal_dma_ex.c ****     status = HAL_ERROR;
 269              		.loc 1 132 21 view .LVU78
 270 0030 6365     		str	r3, [r4, #84]
 133:Drivers/STM32H7xx_HAL_Driver/Src/stm32h7xx_hal_dma_ex.c ****   }
 271              		.loc 1 133 5 is_stmt 1 view .LVU79
 272              	.LVL18:
 133:Drivers/STM32H7xx_HAL_Driver/Src/stm32h7xx_hal_dma_ex.c ****   }
 273              		.loc 1 133 12 is_stmt 0 view .LVU80
 274 0032 0120     		movs	r0, #1
 275 0034 F9E7     		b	.L15
 276              	.LVL19:
 277              	.L26:
 143:Drivers/STM32H7xx_HAL_Driver/Src/stm32h7xx_hal_dma_ex.c **** 
 278              		.loc 1 143 7 is_stmt 1 view .LVU81
 143:Drivers/STM32H7xx_HAL_Driver/Src/stm32h7xx_hal_dma_ex.c **** 
 279              		.loc 1 143 19 is_stmt 0 view .LVU82
ARM GAS  /tmp/ccYmmrDD.s 			page 19


 280 0036 0220     		movs	r0, #2
 281 0038 84F83500 		strb	r0, [r4, #53]
 146:Drivers/STM32H7xx_HAL_Driver/Src/stm32h7xx_hal_dma_ex.c **** 
 282              		.loc 1 146 7 is_stmt 1 view .LVU83
 146:Drivers/STM32H7xx_HAL_Driver/Src/stm32h7xx_hal_dma_ex.c **** 
 283              		.loc 1 146 23 is_stmt 0 view .LVU84
 284 003c 0020     		movs	r0, #0
 285 003e 6065     		str	r0, [r4, #84]
 148:Drivers/STM32H7xx_HAL_Driver/Src/stm32h7xx_hal_dma_ex.c ****       {
 286              		.loc 1 148 7 is_stmt 1 view .LVU85
 148:Drivers/STM32H7xx_HAL_Driver/Src/stm32h7xx_hal_dma_ex.c ****       {
 287              		.loc 1 148 10 is_stmt 0 view .LVU86
 288 0040 2068     		ldr	r0, [r4]
 289 0042 714E     		ldr	r6, .L27
 290 0044 714D     		ldr	r5, .L27+4
 291 0046 A842     		cmp	r0, r5
 292 0048 18BF     		it	ne
 293 004a B042     		cmpne	r0, r6
 294 004c 39D0     		beq	.L17
 148:Drivers/STM32H7xx_HAL_Driver/Src/stm32h7xx_hal_dma_ex.c ****       {
 295              		.loc 1 148 10 discriminator 2 view .LVU87
 296 004e 1835     		adds	r5, r5, #24
 297 0050 A842     		cmp	r0, r5
 298 0052 36D0     		beq	.L17
 148:Drivers/STM32H7xx_HAL_Driver/Src/stm32h7xx_hal_dma_ex.c ****       {
 299              		.loc 1 148 10 discriminator 4 view .LVU88
 300 0054 1835     		adds	r5, r5, #24
 301 0056 A842     		cmp	r0, r5
 302 0058 33D0     		beq	.L17
 148:Drivers/STM32H7xx_HAL_Driver/Src/stm32h7xx_hal_dma_ex.c ****       {
 303              		.loc 1 148 10 discriminator 6 view .LVU89
 304 005a 1835     		adds	r5, r5, #24
 305 005c A842     		cmp	r0, r5
 306 005e 30D0     		beq	.L17
 148:Drivers/STM32H7xx_HAL_Driver/Src/stm32h7xx_hal_dma_ex.c ****       {
 307              		.loc 1 148 10 discriminator 8 view .LVU90
 308 0060 1835     		adds	r5, r5, #24
 309 0062 A842     		cmp	r0, r5
 310 0064 2DD0     		beq	.L17
 148:Drivers/STM32H7xx_HAL_Driver/Src/stm32h7xx_hal_dma_ex.c ****       {
 311              		.loc 1 148 10 discriminator 10 view .LVU91
 312 0066 1835     		adds	r5, r5, #24
 313 0068 A842     		cmp	r0, r5
 314 006a 2AD0     		beq	.L17
 148:Drivers/STM32H7xx_HAL_Driver/Src/stm32h7xx_hal_dma_ex.c ****       {
 315              		.loc 1 148 10 discriminator 12 view .LVU92
 316 006c 1835     		adds	r5, r5, #24
 317 006e A842     		cmp	r0, r5
 318 0070 27D0     		beq	.L17
 148:Drivers/STM32H7xx_HAL_Driver/Src/stm32h7xx_hal_dma_ex.c ****       {
 319              		.loc 1 148 10 discriminator 14 view .LVU93
 320 0072 05F55675 		add	r5, r5, #856
 321 0076 A842     		cmp	r0, r5
 322 0078 23D0     		beq	.L17
 148:Drivers/STM32H7xx_HAL_Driver/Src/stm32h7xx_hal_dma_ex.c ****       {
 323              		.loc 1 148 10 discriminator 16 view .LVU94
 324 007a 1835     		adds	r5, r5, #24
ARM GAS  /tmp/ccYmmrDD.s 			page 20


 325 007c A842     		cmp	r0, r5
 326 007e 20D0     		beq	.L17
 148:Drivers/STM32H7xx_HAL_Driver/Src/stm32h7xx_hal_dma_ex.c ****       {
 327              		.loc 1 148 10 discriminator 18 view .LVU95
 328 0080 1835     		adds	r5, r5, #24
 329 0082 A842     		cmp	r0, r5
 330 0084 1DD0     		beq	.L17
 148:Drivers/STM32H7xx_HAL_Driver/Src/stm32h7xx_hal_dma_ex.c ****       {
 331              		.loc 1 148 10 discriminator 20 view .LVU96
 332 0086 1835     		adds	r5, r5, #24
 333 0088 A842     		cmp	r0, r5
 334 008a 1AD0     		beq	.L17
 148:Drivers/STM32H7xx_HAL_Driver/Src/stm32h7xx_hal_dma_ex.c ****       {
 335              		.loc 1 148 10 discriminator 22 view .LVU97
 336 008c 1835     		adds	r5, r5, #24
 337 008e A842     		cmp	r0, r5
 338 0090 17D0     		beq	.L17
 148:Drivers/STM32H7xx_HAL_Driver/Src/stm32h7xx_hal_dma_ex.c ****       {
 339              		.loc 1 148 10 discriminator 24 view .LVU98
 340 0092 1835     		adds	r5, r5, #24
 341 0094 A842     		cmp	r0, r5
 342 0096 14D0     		beq	.L17
 148:Drivers/STM32H7xx_HAL_Driver/Src/stm32h7xx_hal_dma_ex.c ****       {
 343              		.loc 1 148 10 discriminator 26 view .LVU99
 344 0098 1835     		adds	r5, r5, #24
 345 009a A842     		cmp	r0, r5
 346 009c 11D0     		beq	.L17
 148:Drivers/STM32H7xx_HAL_Driver/Src/stm32h7xx_hal_dma_ex.c ****       {
 347              		.loc 1 148 10 discriminator 28 view .LVU100
 348 009e 1835     		adds	r5, r5, #24
 349 00a0 A842     		cmp	r0, r5
 350 00a2 0ED0     		beq	.L17
 165:Drivers/STM32H7xx_HAL_Driver/Src/stm32h7xx_hal_dma_ex.c **** 
 351              		.loc 1 165 9 is_stmt 1 view .LVU101
 165:Drivers/STM32H7xx_HAL_Driver/Src/stm32h7xx_hal_dma_ex.c **** 
 352              		.loc 1 165 51 is_stmt 0 view .LVU102
 353 00a4 0668     		ldr	r6, [r0]
 165:Drivers/STM32H7xx_HAL_Driver/Src/stm32h7xx_hal_dma_ex.c **** 
 354              		.loc 1 165 57 view .LVU103
 355 00a6 48F22005 		movw	r5, #32800
 356 00aa 3543     		orrs	r5, r5, r6
 357 00ac 0560     		str	r5, [r0]
 168:Drivers/STM32H7xx_HAL_Driver/Src/stm32h7xx_hal_dma_ex.c **** 
 358              		.loc 1 168 9 is_stmt 1 view .LVU104
 168:Drivers/STM32H7xx_HAL_Driver/Src/stm32h7xx_hal_dma_ex.c **** 
 359              		.loc 1 168 40 is_stmt 0 view .LVU105
 360 00ae 2068     		ldr	r0, [r4]
 168:Drivers/STM32H7xx_HAL_Driver/Src/stm32h7xx_hal_dma_ex.c **** 
 361              		.loc 1 168 59 view .LVU106
 362 00b0 0361     		str	r3, [r0, #16]
 171:Drivers/STM32H7xx_HAL_Driver/Src/stm32h7xx_hal_dma_ex.c **** 
 363              		.loc 1 171 9 is_stmt 1 view .LVU107
 171:Drivers/STM32H7xx_HAL_Driver/Src/stm32h7xx_hal_dma_ex.c **** 
 364              		.loc 1 171 56 is_stmt 0 view .LVU108
 365 00b2 A56D     		ldr	r5, [r4, #88]
 366              	.LVL20:
 174:Drivers/STM32H7xx_HAL_Driver/Src/stm32h7xx_hal_dma_ex.c ****       }
ARM GAS  /tmp/ccYmmrDD.s 			page 21


 367              		.loc 1 174 9 is_stmt 1 view .LVU109
 174:Drivers/STM32H7xx_HAL_Driver/Src/stm32h7xx_hal_dma_ex.c ****       }
 368              		.loc 1 174 53 is_stmt 0 view .LVU110
 369 00b4 E36D     		ldr	r3, [r4, #92]
 370              	.LVL21:
 174:Drivers/STM32H7xx_HAL_Driver/Src/stm32h7xx_hal_dma_ex.c ****       }
 371              		.loc 1 174 67 view .LVU111
 372 00b6 03F01F00 		and	r0, r3, #31
 373              	.LVL22:
 174:Drivers/STM32H7xx_HAL_Driver/Src/stm32h7xx_hal_dma_ex.c ****       }
 374              		.loc 1 174 45 view .LVU112
 375 00ba 0123     		movs	r3, #1
 376 00bc 8340     		lsls	r3, r3, r0
 174:Drivers/STM32H7xx_HAL_Driver/Src/stm32h7xx_hal_dma_ex.c ****       }
 377              		.loc 1 174 27 view .LVU113
 378 00be 6B60     		str	r3, [r5, #4]
 379 00c0 0CE0     		b	.L18
 380              	.LVL23:
 381              	.L17:
 151:Drivers/STM32H7xx_HAL_Driver/Src/stm32h7xx_hal_dma_ex.c **** 
 382              		.loc 1 151 9 is_stmt 1 view .LVU114
 151:Drivers/STM32H7xx_HAL_Driver/Src/stm32h7xx_hal_dma_ex.c **** 
 383              		.loc 1 151 49 is_stmt 0 view .LVU115
 384 00c2 0568     		ldr	r5, [r0]
 151:Drivers/STM32H7xx_HAL_Driver/Src/stm32h7xx_hal_dma_ex.c **** 
 385              		.loc 1 151 54 view .LVU116
 386 00c4 45F48025 		orr	r5, r5, #262144
 387 00c8 0560     		str	r5, [r0]
 154:Drivers/STM32H7xx_HAL_Driver/Src/stm32h7xx_hal_dma_ex.c **** 
 388              		.loc 1 154 9 is_stmt 1 view .LVU117
 154:Drivers/STM32H7xx_HAL_Driver/Src/stm32h7xx_hal_dma_ex.c **** 
 389              		.loc 1 154 38 is_stmt 0 view .LVU118
 390 00ca 2068     		ldr	r0, [r4]
 154:Drivers/STM32H7xx_HAL_Driver/Src/stm32h7xx_hal_dma_ex.c **** 
 391              		.loc 1 154 56 view .LVU119
 392 00cc 0361     		str	r3, [r0, #16]
 157:Drivers/STM32H7xx_HAL_Driver/Src/stm32h7xx_hal_dma_ex.c **** 
 393              		.loc 1 157 9 is_stmt 1 view .LVU120
 157:Drivers/STM32H7xx_HAL_Driver/Src/stm32h7xx_hal_dma_ex.c **** 
 394              		.loc 1 157 56 is_stmt 0 view .LVU121
 395 00ce A56D     		ldr	r5, [r4, #88]
 396              	.LVL24:
 160:Drivers/STM32H7xx_HAL_Driver/Src/stm32h7xx_hal_dma_ex.c ****       }
 397              		.loc 1 160 9 is_stmt 1 view .LVU122
 160:Drivers/STM32H7xx_HAL_Driver/Src/stm32h7xx_hal_dma_ex.c ****       }
 398              		.loc 1 160 44 is_stmt 0 view .LVU123
 399 00d0 E36D     		ldr	r3, [r4, #92]
 400              	.LVL25:
 160:Drivers/STM32H7xx_HAL_Driver/Src/stm32h7xx_hal_dma_ex.c ****       }
 401              		.loc 1 160 58 view .LVU124
 402 00d2 03F01F00 		and	r0, r3, #31
 403              	.LVL26:
 160:Drivers/STM32H7xx_HAL_Driver/Src/stm32h7xx_hal_dma_ex.c ****       }
 404              		.loc 1 160 36 view .LVU125
 405 00d6 3F23     		movs	r3, #63
 406 00d8 8340     		lsls	r3, r3, r0
 160:Drivers/STM32H7xx_HAL_Driver/Src/stm32h7xx_hal_dma_ex.c ****       }
ARM GAS  /tmp/ccYmmrDD.s 			page 22


 407              		.loc 1 160 27 view .LVU126
 408 00da AB60     		str	r3, [r5, #8]
 409              	.LVL27:
 410              	.L18:
 177:Drivers/STM32H7xx_HAL_Driver/Src/stm32h7xx_hal_dma_ex.c ****       {
 411              		.loc 1 177 7 is_stmt 1 view .LVU127
 177:Drivers/STM32H7xx_HAL_Driver/Src/stm32h7xx_hal_dma_ex.c ****       {
 412              		.loc 1 177 10 is_stmt 0 view .LVU128
 413 00dc 2368     		ldr	r3, [r4]
 414 00de 4A4D     		ldr	r5, .L27
 415 00e0 4A48     		ldr	r0, .L27+4
 416 00e2 8342     		cmp	r3, r0
 417 00e4 18BF     		it	ne
 418 00e6 AB42     		cmpne	r3, r5
 419 00e8 42D0     		beq	.L19
 177:Drivers/STM32H7xx_HAL_Driver/Src/stm32h7xx_hal_dma_ex.c ****       {
 420              		.loc 1 177 10 discriminator 2 view .LVU129
 421 00ea 1830     		adds	r0, r0, #24
 422 00ec 8342     		cmp	r3, r0
 423 00ee 3FD0     		beq	.L19
 177:Drivers/STM32H7xx_HAL_Driver/Src/stm32h7xx_hal_dma_ex.c ****       {
 424              		.loc 1 177 10 discriminator 4 view .LVU130
 425 00f0 1830     		adds	r0, r0, #24
 426 00f2 8342     		cmp	r3, r0
 427 00f4 3CD0     		beq	.L19
 177:Drivers/STM32H7xx_HAL_Driver/Src/stm32h7xx_hal_dma_ex.c ****       {
 428              		.loc 1 177 10 discriminator 6 view .LVU131
 429 00f6 1830     		adds	r0, r0, #24
 430 00f8 8342     		cmp	r3, r0
 431 00fa 39D0     		beq	.L19
 177:Drivers/STM32H7xx_HAL_Driver/Src/stm32h7xx_hal_dma_ex.c ****       {
 432              		.loc 1 177 10 discriminator 8 view .LVU132
 433 00fc 1830     		adds	r0, r0, #24
 434 00fe 8342     		cmp	r3, r0
 435 0100 36D0     		beq	.L19
 177:Drivers/STM32H7xx_HAL_Driver/Src/stm32h7xx_hal_dma_ex.c ****       {
 436              		.loc 1 177 10 discriminator 10 view .LVU133
 437 0102 1830     		adds	r0, r0, #24
 438 0104 8342     		cmp	r3, r0
 439 0106 33D0     		beq	.L19
 177:Drivers/STM32H7xx_HAL_Driver/Src/stm32h7xx_hal_dma_ex.c ****       {
 440              		.loc 1 177 10 discriminator 12 view .LVU134
 441 0108 1830     		adds	r0, r0, #24
 442 010a 8342     		cmp	r3, r0
 443 010c 30D0     		beq	.L19
 177:Drivers/STM32H7xx_HAL_Driver/Src/stm32h7xx_hal_dma_ex.c ****       {
 444              		.loc 1 177 10 discriminator 14 view .LVU135
 445 010e 00F55670 		add	r0, r0, #856
 446 0112 8342     		cmp	r3, r0
 447 0114 2CD0     		beq	.L19
 177:Drivers/STM32H7xx_HAL_Driver/Src/stm32h7xx_hal_dma_ex.c ****       {
 448              		.loc 1 177 10 discriminator 16 view .LVU136
 449 0116 1830     		adds	r0, r0, #24
 450 0118 8342     		cmp	r3, r0
 451 011a 29D0     		beq	.L19
 177:Drivers/STM32H7xx_HAL_Driver/Src/stm32h7xx_hal_dma_ex.c ****       {
 452              		.loc 1 177 10 discriminator 18 view .LVU137
ARM GAS  /tmp/ccYmmrDD.s 			page 23


 453 011c 1830     		adds	r0, r0, #24
 454 011e 8342     		cmp	r3, r0
 455 0120 26D0     		beq	.L19
 177:Drivers/STM32H7xx_HAL_Driver/Src/stm32h7xx_hal_dma_ex.c ****       {
 456              		.loc 1 177 10 discriminator 20 view .LVU138
 457 0122 1830     		adds	r0, r0, #24
 458 0124 8342     		cmp	r3, r0
 459 0126 23D0     		beq	.L19
 177:Drivers/STM32H7xx_HAL_Driver/Src/stm32h7xx_hal_dma_ex.c ****       {
 460              		.loc 1 177 10 discriminator 22 view .LVU139
 461 0128 1830     		adds	r0, r0, #24
 462 012a 8342     		cmp	r3, r0
 463 012c 20D0     		beq	.L19
 177:Drivers/STM32H7xx_HAL_Driver/Src/stm32h7xx_hal_dma_ex.c ****       {
 464              		.loc 1 177 10 discriminator 24 view .LVU140
 465 012e 1830     		adds	r0, r0, #24
 466 0130 8342     		cmp	r3, r0
 467 0132 1DD0     		beq	.L19
 177:Drivers/STM32H7xx_HAL_Driver/Src/stm32h7xx_hal_dma_ex.c ****       {
 468              		.loc 1 177 10 discriminator 26 view .LVU141
 469 0134 1830     		adds	r0, r0, #24
 470 0136 8342     		cmp	r3, r0
 471 0138 1AD0     		beq	.L19
 177:Drivers/STM32H7xx_HAL_Driver/Src/stm32h7xx_hal_dma_ex.c ****       {
 472              		.loc 1 177 10 discriminator 28 view .LVU142
 473 013a 1830     		adds	r0, r0, #24
 474 013c 8342     		cmp	r3, r0
 475 013e 17D0     		beq	.L19
 177:Drivers/STM32H7xx_HAL_Driver/Src/stm32h7xx_hal_dma_ex.c ****       {
 476              		.loc 1 177 10 discriminator 30 view .LVU143
 477 0140 3348     		ldr	r0, .L27+8
 478 0142 8342     		cmp	r3, r0
 479 0144 14D0     		beq	.L19
 177:Drivers/STM32H7xx_HAL_Driver/Src/stm32h7xx_hal_dma_ex.c ****       {
 480              		.loc 1 177 10 discriminator 32 view .LVU144
 481 0146 1430     		adds	r0, r0, #20
 482 0148 8342     		cmp	r3, r0
 483 014a 11D0     		beq	.L19
 177:Drivers/STM32H7xx_HAL_Driver/Src/stm32h7xx_hal_dma_ex.c ****       {
 484              		.loc 1 177 10 discriminator 34 view .LVU145
 485 014c 1430     		adds	r0, r0, #20
 486 014e 8342     		cmp	r3, r0
 487 0150 0ED0     		beq	.L19
 177:Drivers/STM32H7xx_HAL_Driver/Src/stm32h7xx_hal_dma_ex.c ****       {
 488              		.loc 1 177 10 discriminator 36 view .LVU146
 489 0152 1430     		adds	r0, r0, #20
 490 0154 8342     		cmp	r3, r0
 491 0156 0BD0     		beq	.L19
 177:Drivers/STM32H7xx_HAL_Driver/Src/stm32h7xx_hal_dma_ex.c ****       {
 492              		.loc 1 177 10 discriminator 38 view .LVU147
 493 0158 1430     		adds	r0, r0, #20
 494 015a 8342     		cmp	r3, r0
 495 015c 08D0     		beq	.L19
 177:Drivers/STM32H7xx_HAL_Driver/Src/stm32h7xx_hal_dma_ex.c ****       {
 496              		.loc 1 177 10 discriminator 40 view .LVU148
 497 015e 1430     		adds	r0, r0, #20
 498 0160 8342     		cmp	r3, r0
ARM GAS  /tmp/ccYmmrDD.s 			page 24


 499 0162 05D0     		beq	.L19
 177:Drivers/STM32H7xx_HAL_Driver/Src/stm32h7xx_hal_dma_ex.c ****       {
 500              		.loc 1 177 10 discriminator 42 view .LVU149
 501 0164 1430     		adds	r0, r0, #20
 502 0166 8342     		cmp	r3, r0
 503 0168 02D0     		beq	.L19
 177:Drivers/STM32H7xx_HAL_Driver/Src/stm32h7xx_hal_dma_ex.c ****       {
 504              		.loc 1 177 10 discriminator 44 view .LVU150
 505 016a 1430     		adds	r0, r0, #20
 506 016c 8342     		cmp	r3, r0
 507 016e 0BD1     		bne	.L20
 508              	.L19:
 180:Drivers/STM32H7xx_HAL_Driver/Src/stm32h7xx_hal_dma_ex.c **** 
 509              		.loc 1 180 9 is_stmt 1 view .LVU151
 510 0170 049B     		ldr	r3, [sp, #16]
 511 0172 2046     		mov	r0, r4
 512 0174 FFF7FEFF 		bl	DMA_MultiBufferSetConfig
 513              	.LVL28:
 183:Drivers/STM32H7xx_HAL_Driver/Src/stm32h7xx_hal_dma_ex.c **** 
 514              		.loc 1 183 9 view .LVU152
 183:Drivers/STM32H7xx_HAL_Driver/Src/stm32h7xx_hal_dma_ex.c **** 
 515              		.loc 1 183 13 is_stmt 0 view .LVU153
 516 0178 636E     		ldr	r3, [r4, #100]
 183:Drivers/STM32H7xx_HAL_Driver/Src/stm32h7xx_hal_dma_ex.c **** 
 517              		.loc 1 183 46 view .LVU154
 518 017a A26E     		ldr	r2, [r4, #104]
 183:Drivers/STM32H7xx_HAL_Driver/Src/stm32h7xx_hal_dma_ex.c **** 
 519              		.loc 1 183 40 view .LVU155
 520 017c 5A60     		str	r2, [r3, #4]
 185:Drivers/STM32H7xx_HAL_Driver/Src/stm32h7xx_hal_dma_ex.c ****         {
 521              		.loc 1 185 9 is_stmt 1 view .LVU156
 185:Drivers/STM32H7xx_HAL_Driver/Src/stm32h7xx_hal_dma_ex.c ****         {
 522              		.loc 1 185 16 is_stmt 0 view .LVU157
 523 017e E36E     		ldr	r3, [r4, #108]
 185:Drivers/STM32H7xx_HAL_Driver/Src/stm32h7xx_hal_dma_ex.c ****         {
 524              		.loc 1 185 11 view .LVU158
 525 0180 13B1     		cbz	r3, .L20
 188:Drivers/STM32H7xx_HAL_Driver/Src/stm32h7xx_hal_dma_ex.c ****         }
 526              		.loc 1 188 11 is_stmt 1 view .LVU159
 188:Drivers/STM32H7xx_HAL_Driver/Src/stm32h7xx_hal_dma_ex.c ****         }
 527              		.loc 1 188 15 is_stmt 0 view .LVU160
 528 0182 236F     		ldr	r3, [r4, #112]
 188:Drivers/STM32H7xx_HAL_Driver/Src/stm32h7xx_hal_dma_ex.c ****         }
 529              		.loc 1 188 53 view .LVU161
 530 0184 626F     		ldr	r2, [r4, #116]
 188:Drivers/STM32H7xx_HAL_Driver/Src/stm32h7xx_hal_dma_ex.c ****         }
 531              		.loc 1 188 47 view .LVU162
 532 0186 5A60     		str	r2, [r3, #4]
 533              	.L20:
 193:Drivers/STM32H7xx_HAL_Driver/Src/stm32h7xx_hal_dma_ex.c ****     }
 534              		.loc 1 193 7 is_stmt 1 view .LVU163
 535 0188 2368     		ldr	r3, [r4]
 536 018a 1F49     		ldr	r1, .L27
 537 018c 1F4A     		ldr	r2, .L27+4
 538 018e 9342     		cmp	r3, r2
 539 0190 18BF     		it	ne
 540 0192 8B42     		cmpne	r3, r1
ARM GAS  /tmp/ccYmmrDD.s 			page 25


 541 0194 30D0     		beq	.L21
 193:Drivers/STM32H7xx_HAL_Driver/Src/stm32h7xx_hal_dma_ex.c ****     }
 542              		.loc 1 193 7 is_stmt 0 discriminator 2 view .LVU164
 543 0196 1832     		adds	r2, r2, #24
 544 0198 9342     		cmp	r3, r2
 545 019a 2DD0     		beq	.L21
 193:Drivers/STM32H7xx_HAL_Driver/Src/stm32h7xx_hal_dma_ex.c ****     }
 546              		.loc 1 193 7 discriminator 4 view .LVU165
 547 019c 1832     		adds	r2, r2, #24
 548 019e 9342     		cmp	r3, r2
 549 01a0 2AD0     		beq	.L21
 193:Drivers/STM32H7xx_HAL_Driver/Src/stm32h7xx_hal_dma_ex.c ****     }
 550              		.loc 1 193 7 discriminator 6 view .LVU166
 551 01a2 1832     		adds	r2, r2, #24
 552 01a4 9342     		cmp	r3, r2
 553 01a6 27D0     		beq	.L21
 193:Drivers/STM32H7xx_HAL_Driver/Src/stm32h7xx_hal_dma_ex.c ****     }
 554              		.loc 1 193 7 discriminator 8 view .LVU167
 555 01a8 1832     		adds	r2, r2, #24
 556 01aa 9342     		cmp	r3, r2
 557 01ac 24D0     		beq	.L21
 193:Drivers/STM32H7xx_HAL_Driver/Src/stm32h7xx_hal_dma_ex.c ****     }
 558              		.loc 1 193 7 discriminator 10 view .LVU168
 559 01ae 1832     		adds	r2, r2, #24
 560 01b0 9342     		cmp	r3, r2
 561 01b2 21D0     		beq	.L21
 193:Drivers/STM32H7xx_HAL_Driver/Src/stm32h7xx_hal_dma_ex.c ****     }
 562              		.loc 1 193 7 discriminator 12 view .LVU169
 563 01b4 1832     		adds	r2, r2, #24
 564 01b6 9342     		cmp	r3, r2
 565 01b8 1ED0     		beq	.L21
 193:Drivers/STM32H7xx_HAL_Driver/Src/stm32h7xx_hal_dma_ex.c ****     }
 566              		.loc 1 193 7 discriminator 14 view .LVU170
 567 01ba 02F55672 		add	r2, r2, #856
 568 01be 9342     		cmp	r3, r2
 569 01c0 1AD0     		beq	.L21
 193:Drivers/STM32H7xx_HAL_Driver/Src/stm32h7xx_hal_dma_ex.c ****     }
 570              		.loc 1 193 7 discriminator 16 view .LVU171
 571 01c2 1832     		adds	r2, r2, #24
 572 01c4 9342     		cmp	r3, r2
 573 01c6 17D0     		beq	.L21
 193:Drivers/STM32H7xx_HAL_Driver/Src/stm32h7xx_hal_dma_ex.c ****     }
 574              		.loc 1 193 7 discriminator 18 view .LVU172
 575 01c8 1832     		adds	r2, r2, #24
 576 01ca 9342     		cmp	r3, r2
 577 01cc 14D0     		beq	.L21
 193:Drivers/STM32H7xx_HAL_Driver/Src/stm32h7xx_hal_dma_ex.c ****     }
 578              		.loc 1 193 7 discriminator 20 view .LVU173
 579 01ce 1832     		adds	r2, r2, #24
 580 01d0 9342     		cmp	r3, r2
 581 01d2 11D0     		beq	.L21
 193:Drivers/STM32H7xx_HAL_Driver/Src/stm32h7xx_hal_dma_ex.c ****     }
 582              		.loc 1 193 7 discriminator 22 view .LVU174
 583 01d4 1832     		adds	r2, r2, #24
 584 01d6 9342     		cmp	r3, r2
 585 01d8 0ED0     		beq	.L21
 193:Drivers/STM32H7xx_HAL_Driver/Src/stm32h7xx_hal_dma_ex.c ****     }
ARM GAS  /tmp/ccYmmrDD.s 			page 26


 586              		.loc 1 193 7 discriminator 24 view .LVU175
 587 01da 1832     		adds	r2, r2, #24
 588 01dc 9342     		cmp	r3, r2
 589 01de 0BD0     		beq	.L21
 193:Drivers/STM32H7xx_HAL_Driver/Src/stm32h7xx_hal_dma_ex.c ****     }
 590              		.loc 1 193 7 discriminator 26 view .LVU176
 591 01e0 1832     		adds	r2, r2, #24
 592 01e2 9342     		cmp	r3, r2
 593 01e4 08D0     		beq	.L21
 193:Drivers/STM32H7xx_HAL_Driver/Src/stm32h7xx_hal_dma_ex.c ****     }
 594              		.loc 1 193 7 discriminator 28 view .LVU177
 595 01e6 1832     		adds	r2, r2, #24
 596 01e8 9342     		cmp	r3, r2
 597 01ea 05D0     		beq	.L21
 193:Drivers/STM32H7xx_HAL_Driver/Src/stm32h7xx_hal_dma_ex.c ****     }
 598              		.loc 1 193 7 discriminator 30 view .LVU178
 599 01ec 1A68     		ldr	r2, [r3]
 600 01ee 42F00102 		orr	r2, r2, #1
 601 01f2 1A60     		str	r2, [r3]
 122:Drivers/STM32H7xx_HAL_Driver/Src/stm32h7xx_hal_dma_ex.c ****   __IO uint32_t *ifcRegister_Base; /* DMA Stream Interrupt Clear register */
 602              		.loc 1 122 21 view .LVU179
 603 01f4 0020     		movs	r0, #0
 604 01f6 18E7     		b	.L15
 605              	.L21:
 193:Drivers/STM32H7xx_HAL_Driver/Src/stm32h7xx_hal_dma_ex.c ****     }
 606              		.loc 1 193 7 discriminator 29 view .LVU180
 607 01f8 1A68     		ldr	r2, [r3]
 608 01fa 42F00102 		orr	r2, r2, #1
 609 01fe 1A60     		str	r2, [r3]
 122:Drivers/STM32H7xx_HAL_Driver/Src/stm32h7xx_hal_dma_ex.c ****   __IO uint32_t *ifcRegister_Base; /* DMA Stream Interrupt Clear register */
 610              		.loc 1 122 21 view .LVU181
 611 0200 0020     		movs	r0, #0
 193:Drivers/STM32H7xx_HAL_Driver/Src/stm32h7xx_hal_dma_ex.c ****     }
 612              		.loc 1 193 7 view .LVU182
 613 0202 12E7     		b	.L15
 614              	.LVL29:
 615              	.L23:
 138:Drivers/STM32H7xx_HAL_Driver/Src/stm32h7xx_hal_dma_ex.c **** 
 616              		.loc 1 138 5 discriminator 1 view .LVU183
 617 0204 0220     		movs	r0, #2
 618 0206 10E7     		b	.L15
 619              	.L28:
 620              		.align	2
 621              	.L27:
 622 0208 10000240 		.word	1073872912
 623 020c 28000240 		.word	1073872936
 624 0210 08540258 		.word	1476547592
 625              		.cfi_endproc
 626              	.LFE337:
 628              		.section	.text.HAL_DMAEx_MultiBufferStart_IT,"ax",%progbits
 629              		.align	1
 630              		.global	HAL_DMAEx_MultiBufferStart_IT
 631              		.syntax unified
 632              		.thumb
 633              		.thumb_func
 635              	HAL_DMAEx_MultiBufferStart_IT:
 636              	.LVL30:
ARM GAS  /tmp/ccYmmrDD.s 			page 27


 637              	.LFB338:
 218:Drivers/STM32H7xx_HAL_Driver/Src/stm32h7xx_hal_dma_ex.c ****   HAL_StatusTypeDef status = HAL_OK;
 638              		.loc 1 218 1 is_stmt 1 view -0
 639              		.cfi_startproc
 640              		@ args = 4, pretend = 0, frame = 0
 641              		@ frame_needed = 0, uses_anonymous_args = 0
 218:Drivers/STM32H7xx_HAL_Driver/Src/stm32h7xx_hal_dma_ex.c ****   HAL_StatusTypeDef status = HAL_OK;
 642              		.loc 1 218 1 is_stmt 0 view .LVU185
 643 0000 70B5     		push	{r4, r5, r6, lr}
 644              	.LCFI4:
 645              		.cfi_def_cfa_offset 16
 646              		.cfi_offset 4, -16
 647              		.cfi_offset 5, -12
 648              		.cfi_offset 6, -8
 649              		.cfi_offset 14, -4
 650 0002 0446     		mov	r4, r0
 219:Drivers/STM32H7xx_HAL_Driver/Src/stm32h7xx_hal_dma_ex.c ****   __IO uint32_t *ifcRegister_Base; /* DMA Stream Interrupt Clear register */
 651              		.loc 1 219 3 is_stmt 1 view .LVU186
 652              	.LVL31:
 220:Drivers/STM32H7xx_HAL_Driver/Src/stm32h7xx_hal_dma_ex.c **** 
 653              		.loc 1 220 3 view .LVU187
 223:Drivers/STM32H7xx_HAL_Driver/Src/stm32h7xx_hal_dma_ex.c ****   assert_param(IS_DMA_ALL_INSTANCE(hdma->Instance));
 654              		.loc 1 223 3 view .LVU188
 224:Drivers/STM32H7xx_HAL_Driver/Src/stm32h7xx_hal_dma_ex.c **** 
 655              		.loc 1 224 3 view .LVU189
 227:Drivers/STM32H7xx_HAL_Driver/Src/stm32h7xx_hal_dma_ex.c ****   {
 656              		.loc 1 227 3 view .LVU190
 227:Drivers/STM32H7xx_HAL_Driver/Src/stm32h7xx_hal_dma_ex.c ****   {
 657              		.loc 1 227 16 is_stmt 0 view .LVU191
 658 0004 8068     		ldr	r0, [r0, #8]
 659              	.LVL32:
 227:Drivers/STM32H7xx_HAL_Driver/Src/stm32h7xx_hal_dma_ex.c ****   {
 660              		.loc 1 227 5 view .LVU192
 661 0006 8028     		cmp	r0, #128
 662 0008 10D0     		beq	.L50
 234:Drivers/STM32H7xx_HAL_Driver/Src/stm32h7xx_hal_dma_ex.c **** 
 663              		.loc 1 234 3 is_stmt 1 view .LVU193
 234:Drivers/STM32H7xx_HAL_Driver/Src/stm32h7xx_hal_dma_ex.c **** 
 664              		.loc 1 234 3 view .LVU194
 665 000a 94F83400 		ldrb	r0, [r4, #52]	@ zero_extendqisi2
 666 000e 0128     		cmp	r0, #1
 667 0010 00F0B781 		beq	.L47
 234:Drivers/STM32H7xx_HAL_Driver/Src/stm32h7xx_hal_dma_ex.c **** 
 668              		.loc 1 234 3 discriminator 2 view .LVU195
 669 0014 0120     		movs	r0, #1
 670 0016 84F83400 		strb	r0, [r4, #52]
 234:Drivers/STM32H7xx_HAL_Driver/Src/stm32h7xx_hal_dma_ex.c **** 
 671              		.loc 1 234 3 view .LVU196
 236:Drivers/STM32H7xx_HAL_Driver/Src/stm32h7xx_hal_dma_ex.c ****   {
 672              		.loc 1 236 3 view .LVU197
 236:Drivers/STM32H7xx_HAL_Driver/Src/stm32h7xx_hal_dma_ex.c ****   {
 673              		.loc 1 236 33 is_stmt 0 view .LVU198
 674 001a 94F83500 		ldrb	r0, [r4, #53]	@ zero_extendqisi2
 236:Drivers/STM32H7xx_HAL_Driver/Src/stm32h7xx_hal_dma_ex.c ****   {
 675              		.loc 1 236 5 view .LVU199
 676 001e 0128     		cmp	r0, #1
 677 0020 09D0     		beq	.L51
ARM GAS  /tmp/ccYmmrDD.s 			page 28


 335:Drivers/STM32H7xx_HAL_Driver/Src/stm32h7xx_hal_dma_ex.c **** 
 678              		.loc 1 335 5 is_stmt 1 view .LVU200
 335:Drivers/STM32H7xx_HAL_Driver/Src/stm32h7xx_hal_dma_ex.c **** 
 679              		.loc 1 335 21 is_stmt 0 view .LVU201
 680 0022 4FF40063 		mov	r3, #2048
 681              	.LVL33:
 335:Drivers/STM32H7xx_HAL_Driver/Src/stm32h7xx_hal_dma_ex.c **** 
 682              		.loc 1 335 21 view .LVU202
 683 0026 6365     		str	r3, [r4, #84]
 338:Drivers/STM32H7xx_HAL_Driver/Src/stm32h7xx_hal_dma_ex.c ****   }
 684              		.loc 1 338 5 is_stmt 1 view .LVU203
 685              	.LVL34:
 338:Drivers/STM32H7xx_HAL_Driver/Src/stm32h7xx_hal_dma_ex.c ****   }
 686              		.loc 1 338 12 is_stmt 0 view .LVU204
 687 0028 0120     		movs	r0, #1
 688              	.LVL35:
 689              	.L31:
 341:Drivers/STM32H7xx_HAL_Driver/Src/stm32h7xx_hal_dma_ex.c **** 
 690              		.loc 1 341 1 view .LVU205
 691 002a 70BD     		pop	{r4, r5, r6, pc}
 692              	.LVL36:
 693              	.L50:
 229:Drivers/STM32H7xx_HAL_Driver/Src/stm32h7xx_hal_dma_ex.c ****     return HAL_ERROR;
 694              		.loc 1 229 5 is_stmt 1 view .LVU206
 229:Drivers/STM32H7xx_HAL_Driver/Src/stm32h7xx_hal_dma_ex.c ****     return HAL_ERROR;
 695              		.loc 1 229 21 is_stmt 0 view .LVU207
 696 002c 4FF48073 		mov	r3, #256
 697              	.LVL37:
 229:Drivers/STM32H7xx_HAL_Driver/Src/stm32h7xx_hal_dma_ex.c ****     return HAL_ERROR;
 698              		.loc 1 229 21 view .LVU208
 699 0030 6365     		str	r3, [r4, #84]
 230:Drivers/STM32H7xx_HAL_Driver/Src/stm32h7xx_hal_dma_ex.c ****   }
 700              		.loc 1 230 5 is_stmt 1 view .LVU209
 230:Drivers/STM32H7xx_HAL_Driver/Src/stm32h7xx_hal_dma_ex.c ****   }
 701              		.loc 1 230 12 is_stmt 0 view .LVU210
 702 0032 0120     		movs	r0, #1
 703 0034 F9E7     		b	.L31
 704              	.LVL38:
 705              	.L51:
 239:Drivers/STM32H7xx_HAL_Driver/Src/stm32h7xx_hal_dma_ex.c **** 
 706              		.loc 1 239 5 is_stmt 1 view .LVU211
 239:Drivers/STM32H7xx_HAL_Driver/Src/stm32h7xx_hal_dma_ex.c **** 
 707              		.loc 1 239 17 is_stmt 0 view .LVU212
 708 0036 0220     		movs	r0, #2
 709 0038 84F83500 		strb	r0, [r4, #53]
 242:Drivers/STM32H7xx_HAL_Driver/Src/stm32h7xx_hal_dma_ex.c **** 
 710              		.loc 1 242 5 is_stmt 1 view .LVU213
 242:Drivers/STM32H7xx_HAL_Driver/Src/stm32h7xx_hal_dma_ex.c **** 
 711              		.loc 1 242 21 is_stmt 0 view .LVU214
 712 003c 0020     		movs	r0, #0
 713 003e 6065     		str	r0, [r4, #84]
 244:Drivers/STM32H7xx_HAL_Driver/Src/stm32h7xx_hal_dma_ex.c ****     {
 714              		.loc 1 244 5 is_stmt 1 view .LVU215
 244:Drivers/STM32H7xx_HAL_Driver/Src/stm32h7xx_hal_dma_ex.c ****     {
 715              		.loc 1 244 8 is_stmt 0 view .LVU216
 716 0040 2068     		ldr	r0, [r4]
 717 0042 724E     		ldr	r6, .L54
ARM GAS  /tmp/ccYmmrDD.s 			page 29


 718 0044 724D     		ldr	r5, .L54+4
 719 0046 A842     		cmp	r0, r5
 720 0048 18BF     		it	ne
 721 004a B042     		cmpne	r0, r6
 722 004c 39D0     		beq	.L33
 244:Drivers/STM32H7xx_HAL_Driver/Src/stm32h7xx_hal_dma_ex.c ****     {
 723              		.loc 1 244 8 discriminator 2 view .LVU217
 724 004e 1835     		adds	r5, r5, #24
 725 0050 A842     		cmp	r0, r5
 726 0052 36D0     		beq	.L33
 244:Drivers/STM32H7xx_HAL_Driver/Src/stm32h7xx_hal_dma_ex.c ****     {
 727              		.loc 1 244 8 discriminator 4 view .LVU218
 728 0054 1835     		adds	r5, r5, #24
 729 0056 A842     		cmp	r0, r5
 730 0058 33D0     		beq	.L33
 244:Drivers/STM32H7xx_HAL_Driver/Src/stm32h7xx_hal_dma_ex.c ****     {
 731              		.loc 1 244 8 discriminator 6 view .LVU219
 732 005a 1835     		adds	r5, r5, #24
 733 005c A842     		cmp	r0, r5
 734 005e 30D0     		beq	.L33
 244:Drivers/STM32H7xx_HAL_Driver/Src/stm32h7xx_hal_dma_ex.c ****     {
 735              		.loc 1 244 8 discriminator 8 view .LVU220
 736 0060 1835     		adds	r5, r5, #24
 737 0062 A842     		cmp	r0, r5
 738 0064 2DD0     		beq	.L33
 244:Drivers/STM32H7xx_HAL_Driver/Src/stm32h7xx_hal_dma_ex.c ****     {
 739              		.loc 1 244 8 discriminator 10 view .LVU221
 740 0066 1835     		adds	r5, r5, #24
 741 0068 A842     		cmp	r0, r5
 742 006a 2AD0     		beq	.L33
 244:Drivers/STM32H7xx_HAL_Driver/Src/stm32h7xx_hal_dma_ex.c ****     {
 743              		.loc 1 244 8 discriminator 12 view .LVU222
 744 006c 1835     		adds	r5, r5, #24
 745 006e A842     		cmp	r0, r5
 746 0070 27D0     		beq	.L33
 244:Drivers/STM32H7xx_HAL_Driver/Src/stm32h7xx_hal_dma_ex.c ****     {
 747              		.loc 1 244 8 discriminator 14 view .LVU223
 748 0072 05F55675 		add	r5, r5, #856
 749 0076 A842     		cmp	r0, r5
 750 0078 23D0     		beq	.L33
 244:Drivers/STM32H7xx_HAL_Driver/Src/stm32h7xx_hal_dma_ex.c ****     {
 751              		.loc 1 244 8 discriminator 16 view .LVU224
 752 007a 1835     		adds	r5, r5, #24
 753 007c A842     		cmp	r0, r5
 754 007e 20D0     		beq	.L33
 244:Drivers/STM32H7xx_HAL_Driver/Src/stm32h7xx_hal_dma_ex.c ****     {
 755              		.loc 1 244 8 discriminator 18 view .LVU225
 756 0080 1835     		adds	r5, r5, #24
 757 0082 A842     		cmp	r0, r5
 758 0084 1DD0     		beq	.L33
 244:Drivers/STM32H7xx_HAL_Driver/Src/stm32h7xx_hal_dma_ex.c ****     {
 759              		.loc 1 244 8 discriminator 20 view .LVU226
 760 0086 1835     		adds	r5, r5, #24
 761 0088 A842     		cmp	r0, r5
 762 008a 1AD0     		beq	.L33
 244:Drivers/STM32H7xx_HAL_Driver/Src/stm32h7xx_hal_dma_ex.c ****     {
 763              		.loc 1 244 8 discriminator 22 view .LVU227
ARM GAS  /tmp/ccYmmrDD.s 			page 30


 764 008c 1835     		adds	r5, r5, #24
 765 008e A842     		cmp	r0, r5
 766 0090 17D0     		beq	.L33
 244:Drivers/STM32H7xx_HAL_Driver/Src/stm32h7xx_hal_dma_ex.c ****     {
 767              		.loc 1 244 8 discriminator 24 view .LVU228
 768 0092 1835     		adds	r5, r5, #24
 769 0094 A842     		cmp	r0, r5
 770 0096 14D0     		beq	.L33
 244:Drivers/STM32H7xx_HAL_Driver/Src/stm32h7xx_hal_dma_ex.c ****     {
 771              		.loc 1 244 8 discriminator 26 view .LVU229
 772 0098 1835     		adds	r5, r5, #24
 773 009a A842     		cmp	r0, r5
 774 009c 11D0     		beq	.L33
 244:Drivers/STM32H7xx_HAL_Driver/Src/stm32h7xx_hal_dma_ex.c ****     {
 775              		.loc 1 244 8 discriminator 28 view .LVU230
 776 009e 1835     		adds	r5, r5, #24
 777 00a0 A842     		cmp	r0, r5
 778 00a2 0ED0     		beq	.L33
 261:Drivers/STM32H7xx_HAL_Driver/Src/stm32h7xx_hal_dma_ex.c **** 
 779              		.loc 1 261 7 is_stmt 1 view .LVU231
 261:Drivers/STM32H7xx_HAL_Driver/Src/stm32h7xx_hal_dma_ex.c **** 
 780              		.loc 1 261 49 is_stmt 0 view .LVU232
 781 00a4 0668     		ldr	r6, [r0]
 261:Drivers/STM32H7xx_HAL_Driver/Src/stm32h7xx_hal_dma_ex.c **** 
 782              		.loc 1 261 55 view .LVU233
 783 00a6 48F22005 		movw	r5, #32800
 784 00aa 3543     		orrs	r5, r5, r6
 785 00ac 0560     		str	r5, [r0]
 264:Drivers/STM32H7xx_HAL_Driver/Src/stm32h7xx_hal_dma_ex.c **** 
 786              		.loc 1 264 7 is_stmt 1 view .LVU234
 264:Drivers/STM32H7xx_HAL_Driver/Src/stm32h7xx_hal_dma_ex.c **** 
 787              		.loc 1 264 38 is_stmt 0 view .LVU235
 788 00ae 2068     		ldr	r0, [r4]
 264:Drivers/STM32H7xx_HAL_Driver/Src/stm32h7xx_hal_dma_ex.c **** 
 789              		.loc 1 264 57 view .LVU236
 790 00b0 0361     		str	r3, [r0, #16]
 267:Drivers/STM32H7xx_HAL_Driver/Src/stm32h7xx_hal_dma_ex.c **** 
 791              		.loc 1 267 7 is_stmt 1 view .LVU237
 267:Drivers/STM32H7xx_HAL_Driver/Src/stm32h7xx_hal_dma_ex.c **** 
 792              		.loc 1 267 54 is_stmt 0 view .LVU238
 793 00b2 A56D     		ldr	r5, [r4, #88]
 794              	.LVL39:
 270:Drivers/STM32H7xx_HAL_Driver/Src/stm32h7xx_hal_dma_ex.c ****     }
 795              		.loc 1 270 7 is_stmt 1 view .LVU239
 270:Drivers/STM32H7xx_HAL_Driver/Src/stm32h7xx_hal_dma_ex.c ****     }
 796              		.loc 1 270 51 is_stmt 0 view .LVU240
 797 00b4 E36D     		ldr	r3, [r4, #92]
 798              	.LVL40:
 270:Drivers/STM32H7xx_HAL_Driver/Src/stm32h7xx_hal_dma_ex.c ****     }
 799              		.loc 1 270 65 view .LVU241
 800 00b6 03F01F00 		and	r0, r3, #31
 801              	.LVL41:
 270:Drivers/STM32H7xx_HAL_Driver/Src/stm32h7xx_hal_dma_ex.c ****     }
 802              		.loc 1 270 43 view .LVU242
 803 00ba 0123     		movs	r3, #1
 804 00bc 8340     		lsls	r3, r3, r0
 270:Drivers/STM32H7xx_HAL_Driver/Src/stm32h7xx_hal_dma_ex.c ****     }
ARM GAS  /tmp/ccYmmrDD.s 			page 31


 805              		.loc 1 270 25 view .LVU243
 806 00be 6B60     		str	r3, [r5, #4]
 807 00c0 0CE0     		b	.L34
 808              	.LVL42:
 809              	.L33:
 247:Drivers/STM32H7xx_HAL_Driver/Src/stm32h7xx_hal_dma_ex.c **** 
 810              		.loc 1 247 7 is_stmt 1 view .LVU244
 247:Drivers/STM32H7xx_HAL_Driver/Src/stm32h7xx_hal_dma_ex.c **** 
 811              		.loc 1 247 47 is_stmt 0 view .LVU245
 812 00c2 0568     		ldr	r5, [r0]
 247:Drivers/STM32H7xx_HAL_Driver/Src/stm32h7xx_hal_dma_ex.c **** 
 813              		.loc 1 247 52 view .LVU246
 814 00c4 45F48025 		orr	r5, r5, #262144
 815 00c8 0560     		str	r5, [r0]
 250:Drivers/STM32H7xx_HAL_Driver/Src/stm32h7xx_hal_dma_ex.c **** 
 816              		.loc 1 250 7 is_stmt 1 view .LVU247
 250:Drivers/STM32H7xx_HAL_Driver/Src/stm32h7xx_hal_dma_ex.c **** 
 817              		.loc 1 250 36 is_stmt 0 view .LVU248
 818 00ca 2068     		ldr	r0, [r4]
 250:Drivers/STM32H7xx_HAL_Driver/Src/stm32h7xx_hal_dma_ex.c **** 
 819              		.loc 1 250 54 view .LVU249
 820 00cc 0361     		str	r3, [r0, #16]
 253:Drivers/STM32H7xx_HAL_Driver/Src/stm32h7xx_hal_dma_ex.c **** 
 821              		.loc 1 253 7 is_stmt 1 view .LVU250
 253:Drivers/STM32H7xx_HAL_Driver/Src/stm32h7xx_hal_dma_ex.c **** 
 822              		.loc 1 253 54 is_stmt 0 view .LVU251
 823 00ce A56D     		ldr	r5, [r4, #88]
 824              	.LVL43:
 256:Drivers/STM32H7xx_HAL_Driver/Src/stm32h7xx_hal_dma_ex.c ****     }
 825              		.loc 1 256 7 is_stmt 1 view .LVU252
 256:Drivers/STM32H7xx_HAL_Driver/Src/stm32h7xx_hal_dma_ex.c ****     }
 826              		.loc 1 256 42 is_stmt 0 view .LVU253
 827 00d0 E36D     		ldr	r3, [r4, #92]
 828              	.LVL44:
 256:Drivers/STM32H7xx_HAL_Driver/Src/stm32h7xx_hal_dma_ex.c ****     }
 829              		.loc 1 256 56 view .LVU254
 830 00d2 03F01F00 		and	r0, r3, #31
 831              	.LVL45:
 256:Drivers/STM32H7xx_HAL_Driver/Src/stm32h7xx_hal_dma_ex.c ****     }
 832              		.loc 1 256 34 view .LVU255
 833 00d6 3F23     		movs	r3, #63
 834 00d8 8340     		lsls	r3, r3, r0
 256:Drivers/STM32H7xx_HAL_Driver/Src/stm32h7xx_hal_dma_ex.c ****     }
 835              		.loc 1 256 25 view .LVU256
 836 00da AB60     		str	r3, [r5, #8]
 837              	.LVL46:
 838              	.L34:
 274:Drivers/STM32H7xx_HAL_Driver/Src/stm32h7xx_hal_dma_ex.c **** 
 839              		.loc 1 274 5 is_stmt 1 view .LVU257
 840 00dc 049B     		ldr	r3, [sp, #16]
 841 00de 2046     		mov	r0, r4
 842 00e0 FFF7FEFF 		bl	DMA_MultiBufferSetConfig
 843              	.LVL47:
 276:Drivers/STM32H7xx_HAL_Driver/Src/stm32h7xx_hal_dma_ex.c ****     {
 844              		.loc 1 276 5 view .LVU258
 276:Drivers/STM32H7xx_HAL_Driver/Src/stm32h7xx_hal_dma_ex.c ****     {
 845              		.loc 1 276 8 is_stmt 0 view .LVU259
ARM GAS  /tmp/ccYmmrDD.s 			page 32


 846 00e4 2368     		ldr	r3, [r4]
 847 00e6 4949     		ldr	r1, .L54
 848 00e8 494A     		ldr	r2, .L54+4
 849 00ea 9342     		cmp	r3, r2
 850 00ec 18BF     		it	ne
 851 00ee 8B42     		cmpne	r3, r1
 852 00f0 42D0     		beq	.L35
 276:Drivers/STM32H7xx_HAL_Driver/Src/stm32h7xx_hal_dma_ex.c ****     {
 853              		.loc 1 276 8 discriminator 2 view .LVU260
 854 00f2 1832     		adds	r2, r2, #24
 855 00f4 9342     		cmp	r3, r2
 856 00f6 3FD0     		beq	.L35
 276:Drivers/STM32H7xx_HAL_Driver/Src/stm32h7xx_hal_dma_ex.c ****     {
 857              		.loc 1 276 8 discriminator 4 view .LVU261
 858 00f8 1832     		adds	r2, r2, #24
 859 00fa 9342     		cmp	r3, r2
 860 00fc 3CD0     		beq	.L35
 276:Drivers/STM32H7xx_HAL_Driver/Src/stm32h7xx_hal_dma_ex.c ****     {
 861              		.loc 1 276 8 discriminator 6 view .LVU262
 862 00fe 1832     		adds	r2, r2, #24
 863 0100 9342     		cmp	r3, r2
 864 0102 39D0     		beq	.L35
 276:Drivers/STM32H7xx_HAL_Driver/Src/stm32h7xx_hal_dma_ex.c ****     {
 865              		.loc 1 276 8 discriminator 8 view .LVU263
 866 0104 1832     		adds	r2, r2, #24
 867 0106 9342     		cmp	r3, r2
 868 0108 36D0     		beq	.L35
 276:Drivers/STM32H7xx_HAL_Driver/Src/stm32h7xx_hal_dma_ex.c ****     {
 869              		.loc 1 276 8 discriminator 10 view .LVU264
 870 010a 1832     		adds	r2, r2, #24
 871 010c 9342     		cmp	r3, r2
 872 010e 33D0     		beq	.L35
 276:Drivers/STM32H7xx_HAL_Driver/Src/stm32h7xx_hal_dma_ex.c ****     {
 873              		.loc 1 276 8 discriminator 12 view .LVU265
 874 0110 1832     		adds	r2, r2, #24
 875 0112 9342     		cmp	r3, r2
 876 0114 30D0     		beq	.L35
 276:Drivers/STM32H7xx_HAL_Driver/Src/stm32h7xx_hal_dma_ex.c ****     {
 877              		.loc 1 276 8 discriminator 14 view .LVU266
 878 0116 02F55672 		add	r2, r2, #856
 879 011a 9342     		cmp	r3, r2
 880 011c 2CD0     		beq	.L35
 276:Drivers/STM32H7xx_HAL_Driver/Src/stm32h7xx_hal_dma_ex.c ****     {
 881              		.loc 1 276 8 discriminator 16 view .LVU267
 882 011e 1832     		adds	r2, r2, #24
 883 0120 9342     		cmp	r3, r2
 884 0122 29D0     		beq	.L35
 276:Drivers/STM32H7xx_HAL_Driver/Src/stm32h7xx_hal_dma_ex.c ****     {
 885              		.loc 1 276 8 discriminator 18 view .LVU268
 886 0124 1832     		adds	r2, r2, #24
 887 0126 9342     		cmp	r3, r2
 888 0128 26D0     		beq	.L35
 276:Drivers/STM32H7xx_HAL_Driver/Src/stm32h7xx_hal_dma_ex.c ****     {
 889              		.loc 1 276 8 discriminator 20 view .LVU269
 890 012a 1832     		adds	r2, r2, #24
 891 012c 9342     		cmp	r3, r2
 892 012e 23D0     		beq	.L35
ARM GAS  /tmp/ccYmmrDD.s 			page 33


 276:Drivers/STM32H7xx_HAL_Driver/Src/stm32h7xx_hal_dma_ex.c ****     {
 893              		.loc 1 276 8 discriminator 22 view .LVU270
 894 0130 1832     		adds	r2, r2, #24
 895 0132 9342     		cmp	r3, r2
 896 0134 20D0     		beq	.L35
 276:Drivers/STM32H7xx_HAL_Driver/Src/stm32h7xx_hal_dma_ex.c ****     {
 897              		.loc 1 276 8 discriminator 24 view .LVU271
 898 0136 1832     		adds	r2, r2, #24
 899 0138 9342     		cmp	r3, r2
 900 013a 1DD0     		beq	.L35
 276:Drivers/STM32H7xx_HAL_Driver/Src/stm32h7xx_hal_dma_ex.c ****     {
 901              		.loc 1 276 8 discriminator 26 view .LVU272
 902 013c 1832     		adds	r2, r2, #24
 903 013e 9342     		cmp	r3, r2
 904 0140 1AD0     		beq	.L35
 276:Drivers/STM32H7xx_HAL_Driver/Src/stm32h7xx_hal_dma_ex.c ****     {
 905              		.loc 1 276 8 discriminator 28 view .LVU273
 906 0142 1832     		adds	r2, r2, #24
 907 0144 9342     		cmp	r3, r2
 908 0146 17D0     		beq	.L35
 276:Drivers/STM32H7xx_HAL_Driver/Src/stm32h7xx_hal_dma_ex.c ****     {
 909              		.loc 1 276 8 discriminator 30 view .LVU274
 910 0148 324A     		ldr	r2, .L54+8
 911 014a 9342     		cmp	r3, r2
 912 014c 14D0     		beq	.L35
 276:Drivers/STM32H7xx_HAL_Driver/Src/stm32h7xx_hal_dma_ex.c ****     {
 913              		.loc 1 276 8 discriminator 32 view .LVU275
 914 014e 1432     		adds	r2, r2, #20
 915 0150 9342     		cmp	r3, r2
 916 0152 11D0     		beq	.L35
 276:Drivers/STM32H7xx_HAL_Driver/Src/stm32h7xx_hal_dma_ex.c ****     {
 917              		.loc 1 276 8 discriminator 34 view .LVU276
 918 0154 1432     		adds	r2, r2, #20
 919 0156 9342     		cmp	r3, r2
 920 0158 0ED0     		beq	.L35
 276:Drivers/STM32H7xx_HAL_Driver/Src/stm32h7xx_hal_dma_ex.c ****     {
 921              		.loc 1 276 8 discriminator 36 view .LVU277
 922 015a 1432     		adds	r2, r2, #20
 923 015c 9342     		cmp	r3, r2
 924 015e 0BD0     		beq	.L35
 276:Drivers/STM32H7xx_HAL_Driver/Src/stm32h7xx_hal_dma_ex.c ****     {
 925              		.loc 1 276 8 discriminator 38 view .LVU278
 926 0160 1432     		adds	r2, r2, #20
 927 0162 9342     		cmp	r3, r2
 928 0164 08D0     		beq	.L35
 276:Drivers/STM32H7xx_HAL_Driver/Src/stm32h7xx_hal_dma_ex.c ****     {
 929              		.loc 1 276 8 discriminator 40 view .LVU279
 930 0166 1432     		adds	r2, r2, #20
 931 0168 9342     		cmp	r3, r2
 932 016a 05D0     		beq	.L35
 276:Drivers/STM32H7xx_HAL_Driver/Src/stm32h7xx_hal_dma_ex.c ****     {
 933              		.loc 1 276 8 discriminator 42 view .LVU280
 934 016c 1432     		adds	r2, r2, #20
 935 016e 9342     		cmp	r3, r2
 936 0170 02D0     		beq	.L35
 276:Drivers/STM32H7xx_HAL_Driver/Src/stm32h7xx_hal_dma_ex.c ****     {
 937              		.loc 1 276 8 discriminator 44 view .LVU281
ARM GAS  /tmp/ccYmmrDD.s 			page 34


 938 0172 1432     		adds	r2, r2, #20
 939 0174 9342     		cmp	r3, r2
 940 0176 07D1     		bne	.L36
 941              	.L35:
 279:Drivers/STM32H7xx_HAL_Driver/Src/stm32h7xx_hal_dma_ex.c **** 
 942              		.loc 1 279 7 is_stmt 1 view .LVU282
 279:Drivers/STM32H7xx_HAL_Driver/Src/stm32h7xx_hal_dma_ex.c **** 
 943              		.loc 1 279 11 is_stmt 0 view .LVU283
 944 0178 636E     		ldr	r3, [r4, #100]
 279:Drivers/STM32H7xx_HAL_Driver/Src/stm32h7xx_hal_dma_ex.c **** 
 945              		.loc 1 279 44 view .LVU284
 946 017a A26E     		ldr	r2, [r4, #104]
 279:Drivers/STM32H7xx_HAL_Driver/Src/stm32h7xx_hal_dma_ex.c **** 
 947              		.loc 1 279 38 view .LVU285
 948 017c 5A60     		str	r2, [r3, #4]
 281:Drivers/STM32H7xx_HAL_Driver/Src/stm32h7xx_hal_dma_ex.c ****       {
 949              		.loc 1 281 7 is_stmt 1 view .LVU286
 281:Drivers/STM32H7xx_HAL_Driver/Src/stm32h7xx_hal_dma_ex.c ****       {
 950              		.loc 1 281 14 is_stmt 0 view .LVU287
 951 017e E36E     		ldr	r3, [r4, #108]
 281:Drivers/STM32H7xx_HAL_Driver/Src/stm32h7xx_hal_dma_ex.c ****       {
 952              		.loc 1 281 9 view .LVU288
 953 0180 13B1     		cbz	r3, .L36
 284:Drivers/STM32H7xx_HAL_Driver/Src/stm32h7xx_hal_dma_ex.c ****       }
 954              		.loc 1 284 9 is_stmt 1 view .LVU289
 284:Drivers/STM32H7xx_HAL_Driver/Src/stm32h7xx_hal_dma_ex.c ****       }
 955              		.loc 1 284 13 is_stmt 0 view .LVU290
 956 0182 236F     		ldr	r3, [r4, #112]
 284:Drivers/STM32H7xx_HAL_Driver/Src/stm32h7xx_hal_dma_ex.c ****       }
 957              		.loc 1 284 51 view .LVU291
 958 0184 626F     		ldr	r2, [r4, #116]
 284:Drivers/STM32H7xx_HAL_Driver/Src/stm32h7xx_hal_dma_ex.c ****       }
 959              		.loc 1 284 45 view .LVU292
 960 0186 5A60     		str	r2, [r3, #4]
 961              	.L36:
 288:Drivers/STM32H7xx_HAL_Driver/Src/stm32h7xx_hal_dma_ex.c ****     {
 962              		.loc 1 288 5 is_stmt 1 view .LVU293
 288:Drivers/STM32H7xx_HAL_Driver/Src/stm32h7xx_hal_dma_ex.c ****     {
 963              		.loc 1 288 8 is_stmt 0 view .LVU294
 964 0188 2368     		ldr	r3, [r4]
 965 018a 2049     		ldr	r1, .L54
 966 018c 204A     		ldr	r2, .L54+4
 967 018e 9342     		cmp	r3, r2
 968 0190 18BF     		it	ne
 969 0192 8B42     		cmpne	r3, r1
 970 0194 40D0     		beq	.L37
 288:Drivers/STM32H7xx_HAL_Driver/Src/stm32h7xx_hal_dma_ex.c ****     {
 971              		.loc 1 288 8 discriminator 2 view .LVU295
 972 0196 1832     		adds	r2, r2, #24
 973 0198 9342     		cmp	r3, r2
 974 019a 3DD0     		beq	.L37
 288:Drivers/STM32H7xx_HAL_Driver/Src/stm32h7xx_hal_dma_ex.c ****     {
 975              		.loc 1 288 8 discriminator 4 view .LVU296
 976 019c 1832     		adds	r2, r2, #24
 977 019e 9342     		cmp	r3, r2
 978 01a0 3AD0     		beq	.L37
 288:Drivers/STM32H7xx_HAL_Driver/Src/stm32h7xx_hal_dma_ex.c ****     {
ARM GAS  /tmp/ccYmmrDD.s 			page 35


 979              		.loc 1 288 8 discriminator 6 view .LVU297
 980 01a2 1832     		adds	r2, r2, #24
 981 01a4 9342     		cmp	r3, r2
 982 01a6 37D0     		beq	.L37
 288:Drivers/STM32H7xx_HAL_Driver/Src/stm32h7xx_hal_dma_ex.c ****     {
 983              		.loc 1 288 8 discriminator 8 view .LVU298
 984 01a8 1832     		adds	r2, r2, #24
 985 01aa 9342     		cmp	r3, r2
 986 01ac 34D0     		beq	.L37
 288:Drivers/STM32H7xx_HAL_Driver/Src/stm32h7xx_hal_dma_ex.c ****     {
 987              		.loc 1 288 8 discriminator 10 view .LVU299
 988 01ae 1832     		adds	r2, r2, #24
 989 01b0 9342     		cmp	r3, r2
 990 01b2 31D0     		beq	.L37
 288:Drivers/STM32H7xx_HAL_Driver/Src/stm32h7xx_hal_dma_ex.c ****     {
 991              		.loc 1 288 8 discriminator 12 view .LVU300
 992 01b4 1832     		adds	r2, r2, #24
 993 01b6 9342     		cmp	r3, r2
 994 01b8 2ED0     		beq	.L37
 288:Drivers/STM32H7xx_HAL_Driver/Src/stm32h7xx_hal_dma_ex.c ****     {
 995              		.loc 1 288 8 discriminator 14 view .LVU301
 996 01ba 02F55672 		add	r2, r2, #856
 997 01be 9342     		cmp	r3, r2
 998 01c0 2AD0     		beq	.L37
 288:Drivers/STM32H7xx_HAL_Driver/Src/stm32h7xx_hal_dma_ex.c ****     {
 999              		.loc 1 288 8 discriminator 16 view .LVU302
 1000 01c2 1832     		adds	r2, r2, #24
 1001 01c4 9342     		cmp	r3, r2
 1002 01c6 27D0     		beq	.L37
 288:Drivers/STM32H7xx_HAL_Driver/Src/stm32h7xx_hal_dma_ex.c ****     {
 1003              		.loc 1 288 8 discriminator 18 view .LVU303
 1004 01c8 1832     		adds	r2, r2, #24
 1005 01ca 9342     		cmp	r3, r2
 1006 01cc 24D0     		beq	.L37
 288:Drivers/STM32H7xx_HAL_Driver/Src/stm32h7xx_hal_dma_ex.c ****     {
 1007              		.loc 1 288 8 discriminator 20 view .LVU304
 1008 01ce 1832     		adds	r2, r2, #24
 1009 01d0 9342     		cmp	r3, r2
 1010 01d2 21D0     		beq	.L37
 288:Drivers/STM32H7xx_HAL_Driver/Src/stm32h7xx_hal_dma_ex.c ****     {
 1011              		.loc 1 288 8 discriminator 22 view .LVU305
 1012 01d4 1832     		adds	r2, r2, #24
 1013 01d6 9342     		cmp	r3, r2
 1014 01d8 1ED0     		beq	.L37
 288:Drivers/STM32H7xx_HAL_Driver/Src/stm32h7xx_hal_dma_ex.c ****     {
 1015              		.loc 1 288 8 discriminator 24 view .LVU306
 1016 01da 1832     		adds	r2, r2, #24
 1017 01dc 9342     		cmp	r3, r2
 1018 01de 1BD0     		beq	.L37
 288:Drivers/STM32H7xx_HAL_Driver/Src/stm32h7xx_hal_dma_ex.c ****     {
 1019              		.loc 1 288 8 discriminator 26 view .LVU307
 1020 01e0 1832     		adds	r2, r2, #24
 1021 01e2 9342     		cmp	r3, r2
 1022 01e4 18D0     		beq	.L37
 288:Drivers/STM32H7xx_HAL_Driver/Src/stm32h7xx_hal_dma_ex.c ****     {
 1023              		.loc 1 288 8 discriminator 28 view .LVU308
 1024 01e6 1832     		adds	r2, r2, #24
ARM GAS  /tmp/ccYmmrDD.s 			page 36


 1025 01e8 9342     		cmp	r3, r2
 1026 01ea 15D0     		beq	.L37
 303:Drivers/STM32H7xx_HAL_Driver/Src/stm32h7xx_hal_dma_ex.c **** 
 1027              		.loc 1 303 7 is_stmt 1 view .LVU309
 1028 01ec 1A68     		ldr	r2, [r3]
 1029 01ee 22F00E02 		bic	r2, r2, #14
 1030 01f2 42F00A02 		orr	r2, r2, #10
 1031 01f6 1A60     		str	r2, [r3]
 305:Drivers/STM32H7xx_HAL_Driver/Src/stm32h7xx_hal_dma_ex.c ****       {
 1032              		.loc 1 305 7 view .LVU310
 305:Drivers/STM32H7xx_HAL_Driver/Src/stm32h7xx_hal_dma_ex.c ****       {
 1033              		.loc 1 305 15 is_stmt 0 view .LVU311
 1034 01f8 236C     		ldr	r3, [r4, #64]
 305:Drivers/STM32H7xx_HAL_Driver/Src/stm32h7xx_hal_dma_ex.c ****       {
 1035              		.loc 1 305 9 view .LVU312
 1036 01fa 002B     		cmp	r3, #0
 1037 01fc 00F0B680 		beq	.L52
 1038              	.L38:
 308:Drivers/STM32H7xx_HAL_Driver/Src/stm32h7xx_hal_dma_ex.c ****       }
 1039              		.loc 1 308 9 is_stmt 1 view .LVU313
 308:Drivers/STM32H7xx_HAL_Driver/Src/stm32h7xx_hal_dma_ex.c ****       }
 1040              		.loc 1 308 40 is_stmt 0 view .LVU314
 1041 0200 2268     		ldr	r2, [r4]
 308:Drivers/STM32H7xx_HAL_Driver/Src/stm32h7xx_hal_dma_ex.c ****       }
 1042              		.loc 1 308 51 view .LVU315
 1043 0202 1368     		ldr	r3, [r2]
 308:Drivers/STM32H7xx_HAL_Driver/Src/stm32h7xx_hal_dma_ex.c ****       }
 1044              		.loc 1 308 58 view .LVU316
 1045 0204 43F00403 		orr	r3, r3, #4
 1046 0208 1360     		str	r3, [r2]
 1047 020a 19E0     		b	.L41
 1048              	.L55:
 1049              		.align	2
 1050              	.L54:
 1051 020c 10000240 		.word	1073872912
 1052 0210 28000240 		.word	1073872936
 1053 0214 08540258 		.word	1476547592
 1054              	.L37:
 291:Drivers/STM32H7xx_HAL_Driver/Src/stm32h7xx_hal_dma_ex.c ****       ((DMA_Stream_TypeDef   *)hdma->Instance)->FCR |= DMA_IT_FE;
 1055              		.loc 1 291 7 is_stmt 1 view .LVU317
 1056 0218 1A68     		ldr	r2, [r3]
 1057 021a 22F01E02 		bic	r2, r2, #30
 1058 021e 42F01602 		orr	r2, r2, #22
 1059 0222 1A60     		str	r2, [r3]
 292:Drivers/STM32H7xx_HAL_Driver/Src/stm32h7xx_hal_dma_ex.c **** 
 1060              		.loc 1 292 7 view .LVU318
 292:Drivers/STM32H7xx_HAL_Driver/Src/stm32h7xx_hal_dma_ex.c **** 
 1061              		.loc 1 292 36 is_stmt 0 view .LVU319
 1062 0224 2268     		ldr	r2, [r4]
 292:Drivers/STM32H7xx_HAL_Driver/Src/stm32h7xx_hal_dma_ex.c **** 
 1063              		.loc 1 292 47 view .LVU320
 1064 0226 5369     		ldr	r3, [r2, #20]
 292:Drivers/STM32H7xx_HAL_Driver/Src/stm32h7xx_hal_dma_ex.c **** 
 1065              		.loc 1 292 53 view .LVU321
 1066 0228 43F08003 		orr	r3, r3, #128
 1067 022c 5361     		str	r3, [r2, #20]
 294:Drivers/STM32H7xx_HAL_Driver/Src/stm32h7xx_hal_dma_ex.c ****       {
ARM GAS  /tmp/ccYmmrDD.s 			page 37


 1068              		.loc 1 294 7 is_stmt 1 view .LVU322
 294:Drivers/STM32H7xx_HAL_Driver/Src/stm32h7xx_hal_dma_ex.c ****       {
 1069              		.loc 1 294 15 is_stmt 0 view .LVU323
 1070 022e 236C     		ldr	r3, [r4, #64]
 294:Drivers/STM32H7xx_HAL_Driver/Src/stm32h7xx_hal_dma_ex.c ****       {
 1071              		.loc 1 294 9 view .LVU324
 1072 0230 002B     		cmp	r3, #0
 1073 0232 00F09680 		beq	.L53
 1074              	.L40:
 297:Drivers/STM32H7xx_HAL_Driver/Src/stm32h7xx_hal_dma_ex.c ****       }
 1075              		.loc 1 297 9 is_stmt 1 view .LVU325
 297:Drivers/STM32H7xx_HAL_Driver/Src/stm32h7xx_hal_dma_ex.c ****       }
 1076              		.loc 1 297 38 is_stmt 0 view .LVU326
 1077 0236 2268     		ldr	r2, [r4]
 297:Drivers/STM32H7xx_HAL_Driver/Src/stm32h7xx_hal_dma_ex.c ****       }
 1078              		.loc 1 297 49 view .LVU327
 1079 0238 1368     		ldr	r3, [r2]
 297:Drivers/STM32H7xx_HAL_Driver/Src/stm32h7xx_hal_dma_ex.c ****       }
 1080              		.loc 1 297 55 view .LVU328
 1081 023a 43F00803 		orr	r3, r3, #8
 1082 023e 1360     		str	r3, [r2]
 1083              	.L41:
 312:Drivers/STM32H7xx_HAL_Driver/Src/stm32h7xx_hal_dma_ex.c ****     {
 1084              		.loc 1 312 5 is_stmt 1 view .LVU329
 312:Drivers/STM32H7xx_HAL_Driver/Src/stm32h7xx_hal_dma_ex.c ****     {
 1085              		.loc 1 312 8 is_stmt 0 view .LVU330
 1086 0240 2368     		ldr	r3, [r4]
 1087 0242 5149     		ldr	r1, .L56
 1088 0244 514A     		ldr	r2, .L56+4
 1089 0246 9342     		cmp	r3, r2
 1090 0248 18BF     		it	ne
 1091 024a 8B42     		cmpne	r3, r1
 1092 024c 42D0     		beq	.L42
 312:Drivers/STM32H7xx_HAL_Driver/Src/stm32h7xx_hal_dma_ex.c ****     {
 1093              		.loc 1 312 8 discriminator 2 view .LVU331
 1094 024e 1832     		adds	r2, r2, #24
 1095 0250 9342     		cmp	r3, r2
 1096 0252 3FD0     		beq	.L42
 312:Drivers/STM32H7xx_HAL_Driver/Src/stm32h7xx_hal_dma_ex.c ****     {
 1097              		.loc 1 312 8 discriminator 4 view .LVU332
 1098 0254 1832     		adds	r2, r2, #24
 1099 0256 9342     		cmp	r3, r2
 1100 0258 3CD0     		beq	.L42
 312:Drivers/STM32H7xx_HAL_Driver/Src/stm32h7xx_hal_dma_ex.c ****     {
 1101              		.loc 1 312 8 discriminator 6 view .LVU333
 1102 025a 1832     		adds	r2, r2, #24
 1103 025c 9342     		cmp	r3, r2
 1104 025e 39D0     		beq	.L42
 312:Drivers/STM32H7xx_HAL_Driver/Src/stm32h7xx_hal_dma_ex.c ****     {
 1105              		.loc 1 312 8 discriminator 8 view .LVU334
 1106 0260 1832     		adds	r2, r2, #24
 1107 0262 9342     		cmp	r3, r2
 1108 0264 36D0     		beq	.L42
 312:Drivers/STM32H7xx_HAL_Driver/Src/stm32h7xx_hal_dma_ex.c ****     {
 1109              		.loc 1 312 8 discriminator 10 view .LVU335
 1110 0266 1832     		adds	r2, r2, #24
 1111 0268 9342     		cmp	r3, r2
ARM GAS  /tmp/ccYmmrDD.s 			page 38


 1112 026a 33D0     		beq	.L42
 312:Drivers/STM32H7xx_HAL_Driver/Src/stm32h7xx_hal_dma_ex.c ****     {
 1113              		.loc 1 312 8 discriminator 12 view .LVU336
 1114 026c 1832     		adds	r2, r2, #24
 1115 026e 9342     		cmp	r3, r2
 1116 0270 30D0     		beq	.L42
 312:Drivers/STM32H7xx_HAL_Driver/Src/stm32h7xx_hal_dma_ex.c ****     {
 1117              		.loc 1 312 8 discriminator 14 view .LVU337
 1118 0272 02F55672 		add	r2, r2, #856
 1119 0276 9342     		cmp	r3, r2
 1120 0278 2CD0     		beq	.L42
 312:Drivers/STM32H7xx_HAL_Driver/Src/stm32h7xx_hal_dma_ex.c ****     {
 1121              		.loc 1 312 8 discriminator 16 view .LVU338
 1122 027a 1832     		adds	r2, r2, #24
 1123 027c 9342     		cmp	r3, r2
 1124 027e 29D0     		beq	.L42
 312:Drivers/STM32H7xx_HAL_Driver/Src/stm32h7xx_hal_dma_ex.c ****     {
 1125              		.loc 1 312 8 discriminator 18 view .LVU339
 1126 0280 1832     		adds	r2, r2, #24
 1127 0282 9342     		cmp	r3, r2
 1128 0284 26D0     		beq	.L42
 312:Drivers/STM32H7xx_HAL_Driver/Src/stm32h7xx_hal_dma_ex.c ****     {
 1129              		.loc 1 312 8 discriminator 20 view .LVU340
 1130 0286 1832     		adds	r2, r2, #24
 1131 0288 9342     		cmp	r3, r2
 1132 028a 23D0     		beq	.L42
 312:Drivers/STM32H7xx_HAL_Driver/Src/stm32h7xx_hal_dma_ex.c ****     {
 1133              		.loc 1 312 8 discriminator 22 view .LVU341
 1134 028c 1832     		adds	r2, r2, #24
 1135 028e 9342     		cmp	r3, r2
 1136 0290 20D0     		beq	.L42
 312:Drivers/STM32H7xx_HAL_Driver/Src/stm32h7xx_hal_dma_ex.c ****     {
 1137              		.loc 1 312 8 discriminator 24 view .LVU342
 1138 0292 1832     		adds	r2, r2, #24
 1139 0294 9342     		cmp	r3, r2
 1140 0296 1DD0     		beq	.L42
 312:Drivers/STM32H7xx_HAL_Driver/Src/stm32h7xx_hal_dma_ex.c ****     {
 1141              		.loc 1 312 8 discriminator 26 view .LVU343
 1142 0298 1832     		adds	r2, r2, #24
 1143 029a 9342     		cmp	r3, r2
 1144 029c 1AD0     		beq	.L42
 312:Drivers/STM32H7xx_HAL_Driver/Src/stm32h7xx_hal_dma_ex.c ****     {
 1145              		.loc 1 312 8 discriminator 28 view .LVU344
 1146 029e 1832     		adds	r2, r2, #24
 1147 02a0 9342     		cmp	r3, r2
 1148 02a2 17D0     		beq	.L42
 312:Drivers/STM32H7xx_HAL_Driver/Src/stm32h7xx_hal_dma_ex.c ****     {
 1149              		.loc 1 312 8 discriminator 30 view .LVU345
 1150 02a4 3A4A     		ldr	r2, .L56+8
 1151 02a6 9342     		cmp	r3, r2
 1152 02a8 14D0     		beq	.L42
 312:Drivers/STM32H7xx_HAL_Driver/Src/stm32h7xx_hal_dma_ex.c ****     {
 1153              		.loc 1 312 8 discriminator 32 view .LVU346
 1154 02aa 1432     		adds	r2, r2, #20
 1155 02ac 9342     		cmp	r3, r2
 1156 02ae 11D0     		beq	.L42
 312:Drivers/STM32H7xx_HAL_Driver/Src/stm32h7xx_hal_dma_ex.c ****     {
ARM GAS  /tmp/ccYmmrDD.s 			page 39


 1157              		.loc 1 312 8 discriminator 34 view .LVU347
 1158 02b0 1432     		adds	r2, r2, #20
 1159 02b2 9342     		cmp	r3, r2
 1160 02b4 0ED0     		beq	.L42
 312:Drivers/STM32H7xx_HAL_Driver/Src/stm32h7xx_hal_dma_ex.c ****     {
 1161              		.loc 1 312 8 discriminator 36 view .LVU348
 1162 02b6 1432     		adds	r2, r2, #20
 1163 02b8 9342     		cmp	r3, r2
 1164 02ba 0BD0     		beq	.L42
 312:Drivers/STM32H7xx_HAL_Driver/Src/stm32h7xx_hal_dma_ex.c ****     {
 1165              		.loc 1 312 8 discriminator 38 view .LVU349
 1166 02bc 1432     		adds	r2, r2, #20
 1167 02be 9342     		cmp	r3, r2
 1168 02c0 08D0     		beq	.L42
 312:Drivers/STM32H7xx_HAL_Driver/Src/stm32h7xx_hal_dma_ex.c ****     {
 1169              		.loc 1 312 8 discriminator 40 view .LVU350
 1170 02c2 1432     		adds	r2, r2, #20
 1171 02c4 9342     		cmp	r3, r2
 1172 02c6 05D0     		beq	.L42
 312:Drivers/STM32H7xx_HAL_Driver/Src/stm32h7xx_hal_dma_ex.c ****     {
 1173              		.loc 1 312 8 discriminator 42 view .LVU351
 1174 02c8 1432     		adds	r2, r2, #20
 1175 02ca 9342     		cmp	r3, r2
 1176 02cc 02D0     		beq	.L42
 312:Drivers/STM32H7xx_HAL_Driver/Src/stm32h7xx_hal_dma_ex.c ****     {
 1177              		.loc 1 312 8 discriminator 44 view .LVU352
 1178 02ce 1432     		adds	r2, r2, #20
 1179 02d0 9342     		cmp	r3, r2
 1180 02d2 0ED1     		bne	.L43
 1181              	.L42:
 315:Drivers/STM32H7xx_HAL_Driver/Src/stm32h7xx_hal_dma_ex.c ****       {
 1182              		.loc 1 315 7 is_stmt 1 view .LVU353
 315:Drivers/STM32H7xx_HAL_Driver/Src/stm32h7xx_hal_dma_ex.c ****       {
 1183              		.loc 1 315 15 is_stmt 0 view .LVU354
 1184 02d4 236E     		ldr	r3, [r4, #96]
 315:Drivers/STM32H7xx_HAL_Driver/Src/stm32h7xx_hal_dma_ex.c ****       {
 1185              		.loc 1 315 30 view .LVU355
 1186 02d6 1A68     		ldr	r2, [r3]
 315:Drivers/STM32H7xx_HAL_Driver/Src/stm32h7xx_hal_dma_ex.c ****       {
 1187              		.loc 1 315 9 view .LVU356
 1188 02d8 12F4803F 		tst	r2, #65536
 1189 02dc 03D0     		beq	.L44
 318:Drivers/STM32H7xx_HAL_Driver/Src/stm32h7xx_hal_dma_ex.c ****       }
 1190              		.loc 1 318 9 is_stmt 1 view .LVU357
 318:Drivers/STM32H7xx_HAL_Driver/Src/stm32h7xx_hal_dma_ex.c ****       }
 1191              		.loc 1 318 28 is_stmt 0 view .LVU358
 1192 02de 1A68     		ldr	r2, [r3]
 318:Drivers/STM32H7xx_HAL_Driver/Src/stm32h7xx_hal_dma_ex.c ****       }
 1193              		.loc 1 318 34 view .LVU359
 1194 02e0 42F48072 		orr	r2, r2, #256
 1195 02e4 1A60     		str	r2, [r3]
 1196              	.L44:
 321:Drivers/STM32H7xx_HAL_Driver/Src/stm32h7xx_hal_dma_ex.c ****       {
 1197              		.loc 1 321 7 is_stmt 1 view .LVU360
 321:Drivers/STM32H7xx_HAL_Driver/Src/stm32h7xx_hal_dma_ex.c ****       {
 1198              		.loc 1 321 14 is_stmt 0 view .LVU361
 1199 02e6 E36E     		ldr	r3, [r4, #108]
ARM GAS  /tmp/ccYmmrDD.s 			page 40


 321:Drivers/STM32H7xx_HAL_Driver/Src/stm32h7xx_hal_dma_ex.c ****       {
 1200              		.loc 1 321 9 view .LVU362
 1201 02e8 1BB1     		cbz	r3, .L43
 325:Drivers/STM32H7xx_HAL_Driver/Src/stm32h7xx_hal_dma_ex.c ****       }
 1202              		.loc 1 325 9 is_stmt 1 view .LVU363
 325:Drivers/STM32H7xx_HAL_Driver/Src/stm32h7xx_hal_dma_ex.c ****       }
 1203              		.loc 1 325 31 is_stmt 0 view .LVU364
 1204 02ea 1A68     		ldr	r2, [r3]
 325:Drivers/STM32H7xx_HAL_Driver/Src/stm32h7xx_hal_dma_ex.c ****       }
 1205              		.loc 1 325 38 view .LVU365
 1206 02ec 42F48072 		orr	r2, r2, #256
 1207 02f0 1A60     		str	r2, [r3]
 1208              	.L43:
 330:Drivers/STM32H7xx_HAL_Driver/Src/stm32h7xx_hal_dma_ex.c ****   }
 1209              		.loc 1 330 5 is_stmt 1 view .LVU366
 1210 02f2 2368     		ldr	r3, [r4]
 1211 02f4 2449     		ldr	r1, .L56
 1212 02f6 254A     		ldr	r2, .L56+4
 1213 02f8 9342     		cmp	r3, r2
 1214 02fa 18BF     		it	ne
 1215 02fc 8B42     		cmpne	r3, r1
 1216 02fe 3AD0     		beq	.L45
 330:Drivers/STM32H7xx_HAL_Driver/Src/stm32h7xx_hal_dma_ex.c ****   }
 1217              		.loc 1 330 5 is_stmt 0 discriminator 2 view .LVU367
 1218 0300 1832     		adds	r2, r2, #24
 1219 0302 9342     		cmp	r3, r2
 1220 0304 37D0     		beq	.L45
 330:Drivers/STM32H7xx_HAL_Driver/Src/stm32h7xx_hal_dma_ex.c ****   }
 1221              		.loc 1 330 5 discriminator 4 view .LVU368
 1222 0306 1832     		adds	r2, r2, #24
 1223 0308 9342     		cmp	r3, r2
 1224 030a 34D0     		beq	.L45
 330:Drivers/STM32H7xx_HAL_Driver/Src/stm32h7xx_hal_dma_ex.c ****   }
 1225              		.loc 1 330 5 discriminator 6 view .LVU369
 1226 030c 1832     		adds	r2, r2, #24
 1227 030e 9342     		cmp	r3, r2
 1228 0310 31D0     		beq	.L45
 330:Drivers/STM32H7xx_HAL_Driver/Src/stm32h7xx_hal_dma_ex.c ****   }
 1229              		.loc 1 330 5 discriminator 8 view .LVU370
 1230 0312 1832     		adds	r2, r2, #24
 1231 0314 9342     		cmp	r3, r2
 1232 0316 2ED0     		beq	.L45
 330:Drivers/STM32H7xx_HAL_Driver/Src/stm32h7xx_hal_dma_ex.c ****   }
 1233              		.loc 1 330 5 discriminator 10 view .LVU371
 1234 0318 1832     		adds	r2, r2, #24
 1235 031a 9342     		cmp	r3, r2
 1236 031c 2BD0     		beq	.L45
 330:Drivers/STM32H7xx_HAL_Driver/Src/stm32h7xx_hal_dma_ex.c ****   }
 1237              		.loc 1 330 5 discriminator 12 view .LVU372
 1238 031e 1832     		adds	r2, r2, #24
 1239 0320 9342     		cmp	r3, r2
 1240 0322 28D0     		beq	.L45
 330:Drivers/STM32H7xx_HAL_Driver/Src/stm32h7xx_hal_dma_ex.c ****   }
 1241              		.loc 1 330 5 discriminator 14 view .LVU373
 1242 0324 02F55672 		add	r2, r2, #856
 1243 0328 9342     		cmp	r3, r2
 1244 032a 24D0     		beq	.L45
ARM GAS  /tmp/ccYmmrDD.s 			page 41


 330:Drivers/STM32H7xx_HAL_Driver/Src/stm32h7xx_hal_dma_ex.c ****   }
 1245              		.loc 1 330 5 discriminator 16 view .LVU374
 1246 032c 1832     		adds	r2, r2, #24
 1247 032e 9342     		cmp	r3, r2
 1248 0330 21D0     		beq	.L45
 330:Drivers/STM32H7xx_HAL_Driver/Src/stm32h7xx_hal_dma_ex.c ****   }
 1249              		.loc 1 330 5 discriminator 18 view .LVU375
 1250 0332 1832     		adds	r2, r2, #24
 1251 0334 9342     		cmp	r3, r2
 1252 0336 1ED0     		beq	.L45
 330:Drivers/STM32H7xx_HAL_Driver/Src/stm32h7xx_hal_dma_ex.c ****   }
 1253              		.loc 1 330 5 discriminator 20 view .LVU376
 1254 0338 1832     		adds	r2, r2, #24
 1255 033a 9342     		cmp	r3, r2
 1256 033c 1BD0     		beq	.L45
 330:Drivers/STM32H7xx_HAL_Driver/Src/stm32h7xx_hal_dma_ex.c ****   }
 1257              		.loc 1 330 5 discriminator 22 view .LVU377
 1258 033e 1832     		adds	r2, r2, #24
 1259 0340 9342     		cmp	r3, r2
 1260 0342 18D0     		beq	.L45
 330:Drivers/STM32H7xx_HAL_Driver/Src/stm32h7xx_hal_dma_ex.c ****   }
 1261              		.loc 1 330 5 discriminator 24 view .LVU378
 1262 0344 1832     		adds	r2, r2, #24
 1263 0346 9342     		cmp	r3, r2
 1264 0348 15D0     		beq	.L45
 330:Drivers/STM32H7xx_HAL_Driver/Src/stm32h7xx_hal_dma_ex.c ****   }
 1265              		.loc 1 330 5 discriminator 26 view .LVU379
 1266 034a 1832     		adds	r2, r2, #24
 1267 034c 9342     		cmp	r3, r2
 1268 034e 12D0     		beq	.L45
 330:Drivers/STM32H7xx_HAL_Driver/Src/stm32h7xx_hal_dma_ex.c ****   }
 1269              		.loc 1 330 5 discriminator 28 view .LVU380
 1270 0350 1832     		adds	r2, r2, #24
 1271 0352 9342     		cmp	r3, r2
 1272 0354 0FD0     		beq	.L45
 330:Drivers/STM32H7xx_HAL_Driver/Src/stm32h7xx_hal_dma_ex.c ****   }
 1273              		.loc 1 330 5 discriminator 30 view .LVU381
 1274 0356 1A68     		ldr	r2, [r3]
 1275 0358 42F00102 		orr	r2, r2, #1
 1276 035c 1A60     		str	r2, [r3]
 219:Drivers/STM32H7xx_HAL_Driver/Src/stm32h7xx_hal_dma_ex.c ****   __IO uint32_t *ifcRegister_Base; /* DMA Stream Interrupt Clear register */
 1277              		.loc 1 219 21 view .LVU382
 1278 035e 0020     		movs	r0, #0
 1279 0360 63E6     		b	.L31
 1280              	.L53:
 294:Drivers/STM32H7xx_HAL_Driver/Src/stm32h7xx_hal_dma_ex.c ****       {
 1281              		.loc 1 294 55 discriminator 1 view .LVU383
 1282 0362 A36C     		ldr	r3, [r4, #72]
 294:Drivers/STM32H7xx_HAL_Driver/Src/stm32h7xx_hal_dma_ex.c ****       {
 1283              		.loc 1 294 47 discriminator 1 view .LVU384
 1284 0364 002B     		cmp	r3, #0
 1285 0366 7FF466AF 		bne	.L40
 1286 036a 69E7     		b	.L41
 1287              	.L52:
 305:Drivers/STM32H7xx_HAL_Driver/Src/stm32h7xx_hal_dma_ex.c ****       {
 1288              		.loc 1 305 55 discriminator 1 view .LVU385
 1289 036c A36C     		ldr	r3, [r4, #72]
ARM GAS  /tmp/ccYmmrDD.s 			page 42


 305:Drivers/STM32H7xx_HAL_Driver/Src/stm32h7xx_hal_dma_ex.c ****       {
 1290              		.loc 1 305 47 discriminator 1 view .LVU386
 1291 036e 002B     		cmp	r3, #0
 1292 0370 7FF446AF 		bne	.L38
 1293 0374 64E7     		b	.L41
 1294              	.L45:
 330:Drivers/STM32H7xx_HAL_Driver/Src/stm32h7xx_hal_dma_ex.c ****   }
 1295              		.loc 1 330 5 discriminator 29 view .LVU387
 1296 0376 1A68     		ldr	r2, [r3]
 1297 0378 42F00102 		orr	r2, r2, #1
 1298 037c 1A60     		str	r2, [r3]
 219:Drivers/STM32H7xx_HAL_Driver/Src/stm32h7xx_hal_dma_ex.c ****   __IO uint32_t *ifcRegister_Base; /* DMA Stream Interrupt Clear register */
 1299              		.loc 1 219 21 view .LVU388
 1300 037e 0020     		movs	r0, #0
 330:Drivers/STM32H7xx_HAL_Driver/Src/stm32h7xx_hal_dma_ex.c ****   }
 1301              		.loc 1 330 5 view .LVU389
 1302 0380 53E6     		b	.L31
 1303              	.LVL48:
 1304              	.L47:
 234:Drivers/STM32H7xx_HAL_Driver/Src/stm32h7xx_hal_dma_ex.c **** 
 1305              		.loc 1 234 3 discriminator 1 view .LVU390
 1306 0382 0220     		movs	r0, #2
 1307 0384 51E6     		b	.L31
 1308              	.L57:
 1309 0386 00BF     		.align	2
 1310              	.L56:
 1311 0388 10000240 		.word	1073872912
 1312 038c 28000240 		.word	1073872936
 1313 0390 08540258 		.word	1476547592
 1314              		.cfi_endproc
 1315              	.LFE338:
 1317              		.section	.text.HAL_DMAEx_ChangeMemory,"ax",%progbits
 1318              		.align	1
 1319              		.global	HAL_DMAEx_ChangeMemory
 1320              		.syntax unified
 1321              		.thumb
 1322              		.thumb_func
 1324              	HAL_DMAEx_ChangeMemory:
 1325              	.LVL49:
 1326              	.LFB339:
 358:Drivers/STM32H7xx_HAL_Driver/Src/stm32h7xx_hal_dma_ex.c ****   if(IS_DMA_STREAM_INSTANCE(hdma->Instance) != 0U) /* DMA1 or DMA2 instance */
 1327              		.loc 1 358 1 is_stmt 1 view -0
 1328              		.cfi_startproc
 1329              		@ args = 0, pretend = 0, frame = 0
 1330              		@ frame_needed = 0, uses_anonymous_args = 0
 1331              		@ link register save eliminated.
 358:Drivers/STM32H7xx_HAL_Driver/Src/stm32h7xx_hal_dma_ex.c ****   if(IS_DMA_STREAM_INSTANCE(hdma->Instance) != 0U) /* DMA1 or DMA2 instance */
 1332              		.loc 1 358 1 is_stmt 0 view .LVU392
 1333 0000 10B4     		push	{r4}
 1334              	.LCFI5:
 1335              		.cfi_def_cfa_offset 4
 1336              		.cfi_offset 4, -4
 359:Drivers/STM32H7xx_HAL_Driver/Src/stm32h7xx_hal_dma_ex.c ****   {
 1337              		.loc 1 359 3 is_stmt 1 view .LVU393
 359:Drivers/STM32H7xx_HAL_Driver/Src/stm32h7xx_hal_dma_ex.c ****   {
 1338              		.loc 1 359 6 is_stmt 0 view .LVU394
 1339 0002 0368     		ldr	r3, [r0]
ARM GAS  /tmp/ccYmmrDD.s 			page 43


 1340 0004 1E4C     		ldr	r4, .L66
 1341 0006 1F48     		ldr	r0, .L66+4
 1342              	.LVL50:
 359:Drivers/STM32H7xx_HAL_Driver/Src/stm32h7xx_hal_dma_ex.c ****   {
 1343              		.loc 1 359 6 view .LVU395
 1344 0008 8342     		cmp	r3, r0
 1345 000a 18BF     		it	ne
 1346 000c A342     		cmpne	r3, r4
 1347 000e 2DD0     		beq	.L59
 359:Drivers/STM32H7xx_HAL_Driver/Src/stm32h7xx_hal_dma_ex.c ****   {
 1348              		.loc 1 359 6 discriminator 2 view .LVU396
 1349 0010 1830     		adds	r0, r0, #24
 1350 0012 8342     		cmp	r3, r0
 1351 0014 2AD0     		beq	.L59
 359:Drivers/STM32H7xx_HAL_Driver/Src/stm32h7xx_hal_dma_ex.c ****   {
 1352              		.loc 1 359 6 discriminator 4 view .LVU397
 1353 0016 1830     		adds	r0, r0, #24
 1354 0018 8342     		cmp	r3, r0
 1355 001a 27D0     		beq	.L59
 359:Drivers/STM32H7xx_HAL_Driver/Src/stm32h7xx_hal_dma_ex.c ****   {
 1356              		.loc 1 359 6 discriminator 6 view .LVU398
 1357 001c 1830     		adds	r0, r0, #24
 1358 001e 8342     		cmp	r3, r0
 1359 0020 24D0     		beq	.L59
 359:Drivers/STM32H7xx_HAL_Driver/Src/stm32h7xx_hal_dma_ex.c ****   {
 1360              		.loc 1 359 6 discriminator 8 view .LVU399
 1361 0022 1830     		adds	r0, r0, #24
 1362 0024 8342     		cmp	r3, r0
 1363 0026 21D0     		beq	.L59
 359:Drivers/STM32H7xx_HAL_Driver/Src/stm32h7xx_hal_dma_ex.c ****   {
 1364              		.loc 1 359 6 discriminator 10 view .LVU400
 1365 0028 1830     		adds	r0, r0, #24
 1366 002a 8342     		cmp	r3, r0
 1367 002c 1ED0     		beq	.L59
 359:Drivers/STM32H7xx_HAL_Driver/Src/stm32h7xx_hal_dma_ex.c ****   {
 1368              		.loc 1 359 6 discriminator 12 view .LVU401
 1369 002e 1830     		adds	r0, r0, #24
 1370 0030 8342     		cmp	r3, r0
 1371 0032 1BD0     		beq	.L59
 359:Drivers/STM32H7xx_HAL_Driver/Src/stm32h7xx_hal_dma_ex.c ****   {
 1372              		.loc 1 359 6 discriminator 14 view .LVU402
 1373 0034 00F55670 		add	r0, r0, #856
 1374 0038 8342     		cmp	r3, r0
 1375 003a 17D0     		beq	.L59
 359:Drivers/STM32H7xx_HAL_Driver/Src/stm32h7xx_hal_dma_ex.c ****   {
 1376              		.loc 1 359 6 discriminator 16 view .LVU403
 1377 003c 1830     		adds	r0, r0, #24
 1378 003e 8342     		cmp	r3, r0
 1379 0040 14D0     		beq	.L59
 359:Drivers/STM32H7xx_HAL_Driver/Src/stm32h7xx_hal_dma_ex.c ****   {
 1380              		.loc 1 359 6 discriminator 18 view .LVU404
 1381 0042 1830     		adds	r0, r0, #24
 1382 0044 8342     		cmp	r3, r0
 1383 0046 11D0     		beq	.L59
 359:Drivers/STM32H7xx_HAL_Driver/Src/stm32h7xx_hal_dma_ex.c ****   {
 1384              		.loc 1 359 6 discriminator 20 view .LVU405
 1385 0048 1830     		adds	r0, r0, #24
ARM GAS  /tmp/ccYmmrDD.s 			page 44


 1386 004a 8342     		cmp	r3, r0
 1387 004c 0ED0     		beq	.L59
 359:Drivers/STM32H7xx_HAL_Driver/Src/stm32h7xx_hal_dma_ex.c ****   {
 1388              		.loc 1 359 6 discriminator 22 view .LVU406
 1389 004e 1830     		adds	r0, r0, #24
 1390 0050 8342     		cmp	r3, r0
 1391 0052 0BD0     		beq	.L59
 359:Drivers/STM32H7xx_HAL_Driver/Src/stm32h7xx_hal_dma_ex.c ****   {
 1392              		.loc 1 359 6 discriminator 24 view .LVU407
 1393 0054 1830     		adds	r0, r0, #24
 1394 0056 8342     		cmp	r3, r0
 1395 0058 08D0     		beq	.L59
 359:Drivers/STM32H7xx_HAL_Driver/Src/stm32h7xx_hal_dma_ex.c ****   {
 1396              		.loc 1 359 6 discriminator 26 view .LVU408
 1397 005a 1830     		adds	r0, r0, #24
 1398 005c 8342     		cmp	r3, r0
 1399 005e 05D0     		beq	.L59
 359:Drivers/STM32H7xx_HAL_Driver/Src/stm32h7xx_hal_dma_ex.c ****   {
 1400              		.loc 1 359 6 discriminator 28 view .LVU409
 1401 0060 1830     		adds	r0, r0, #24
 1402 0062 8342     		cmp	r3, r0
 1403 0064 02D0     		beq	.L59
 374:Drivers/STM32H7xx_HAL_Driver/Src/stm32h7xx_hal_dma_ex.c ****     {
 1404              		.loc 1 374 5 is_stmt 1 view .LVU410
 374:Drivers/STM32H7xx_HAL_Driver/Src/stm32h7xx_hal_dma_ex.c ****     {
 1405              		.loc 1 374 7 is_stmt 0 view .LVU411
 1406 0066 4AB1     		cbz	r2, .L60
 382:Drivers/STM32H7xx_HAL_Driver/Src/stm32h7xx_hal_dma_ex.c ****     }
 1407              		.loc 1 382 7 is_stmt 1 view .LVU412
 382:Drivers/STM32H7xx_HAL_Driver/Src/stm32h7xx_hal_dma_ex.c ****     }
 1408              		.loc 1 382 57 is_stmt 0 view .LVU413
 1409 0068 1961     		str	r1, [r3, #16]
 1410 006a 01E0     		b	.L63
 1411              	.L59:
 361:Drivers/STM32H7xx_HAL_Driver/Src/stm32h7xx_hal_dma_ex.c ****     {
 1412              		.loc 1 361 5 is_stmt 1 view .LVU414
 361:Drivers/STM32H7xx_HAL_Driver/Src/stm32h7xx_hal_dma_ex.c ****     {
 1413              		.loc 1 361 7 is_stmt 0 view .LVU415
 1414 006c 22B9     		cbnz	r2, .L62
 364:Drivers/STM32H7xx_HAL_Driver/Src/stm32h7xx_hal_dma_ex.c ****     }
 1415              		.loc 1 364 7 is_stmt 1 view .LVU416
 364:Drivers/STM32H7xx_HAL_Driver/Src/stm32h7xx_hal_dma_ex.c ****     }
 1416              		.loc 1 364 54 is_stmt 0 view .LVU417
 1417 006e D960     		str	r1, [r3, #12]
 1418              	.L63:
 386:Drivers/STM32H7xx_HAL_Driver/Src/stm32h7xx_hal_dma_ex.c **** }
 1419              		.loc 1 386 3 is_stmt 1 view .LVU418
 387:Drivers/STM32H7xx_HAL_Driver/Src/stm32h7xx_hal_dma_ex.c **** 
 1420              		.loc 1 387 1 is_stmt 0 view .LVU419
 1421 0070 0020     		movs	r0, #0
 1422 0072 5DF8044B 		ldr	r4, [sp], #4
 1423              	.LCFI6:
 1424              		.cfi_remember_state
 1425              		.cfi_restore 4
 1426              		.cfi_def_cfa_offset 0
 1427 0076 7047     		bx	lr
 1428              	.L62:
ARM GAS  /tmp/ccYmmrDD.s 			page 45


 1429              	.LCFI7:
 1430              		.cfi_restore_state
 369:Drivers/STM32H7xx_HAL_Driver/Src/stm32h7xx_hal_dma_ex.c ****     }
 1431              		.loc 1 369 7 is_stmt 1 view .LVU420
 369:Drivers/STM32H7xx_HAL_Driver/Src/stm32h7xx_hal_dma_ex.c ****     }
 1432              		.loc 1 369 54 is_stmt 0 view .LVU421
 1433 0078 1961     		str	r1, [r3, #16]
 1434 007a F9E7     		b	.L63
 1435              	.L60:
 377:Drivers/STM32H7xx_HAL_Driver/Src/stm32h7xx_hal_dma_ex.c ****     }
 1436              		.loc 1 377 7 is_stmt 1 view .LVU422
 377:Drivers/STM32H7xx_HAL_Driver/Src/stm32h7xx_hal_dma_ex.c ****     }
 1437              		.loc 1 377 57 is_stmt 0 view .LVU423
 1438 007c D960     		str	r1, [r3, #12]
 1439 007e F7E7     		b	.L63
 1440              	.L67:
 1441              		.align	2
 1442              	.L66:
 1443 0080 10000240 		.word	1073872912
 1444 0084 28000240 		.word	1073872936
 1445              		.cfi_endproc
 1446              	.LFE339:
 1448              		.section	.text.HAL_DMAEx_ConfigMuxSync,"ax",%progbits
 1449              		.align	1
 1450              		.global	HAL_DMAEx_ConfigMuxSync
 1451              		.syntax unified
 1452              		.thumb
 1453              		.thumb_func
 1455              	HAL_DMAEx_ConfigMuxSync:
 1456              	.LVL51:
 1457              	.LFB340:
 397:Drivers/STM32H7xx_HAL_Driver/Src/stm32h7xx_hal_dma_ex.c ****   uint32_t syncSignalID = 0;
 1458              		.loc 1 397 1 is_stmt 1 view -0
 1459              		.cfi_startproc
 1460              		@ args = 0, pretend = 0, frame = 0
 1461              		@ frame_needed = 0, uses_anonymous_args = 0
 1462              		@ link register save eliminated.
 397:Drivers/STM32H7xx_HAL_Driver/Src/stm32h7xx_hal_dma_ex.c ****   uint32_t syncSignalID = 0;
 1463              		.loc 1 397 1 is_stmt 0 view .LVU425
 1464 0000 70B4     		push	{r4, r5, r6}
 1465              	.LCFI8:
 1466              		.cfi_def_cfa_offset 12
 1467              		.cfi_offset 4, -12
 1468              		.cfi_offset 5, -8
 1469              		.cfi_offset 6, -4
 398:Drivers/STM32H7xx_HAL_Driver/Src/stm32h7xx_hal_dma_ex.c ****   uint32_t syncPolarity = 0;
 1470              		.loc 1 398 3 is_stmt 1 view .LVU426
 1471              	.LVL52:
 399:Drivers/STM32H7xx_HAL_Driver/Src/stm32h7xx_hal_dma_ex.c **** 
 1472              		.loc 1 399 3 view .LVU427
 402:Drivers/STM32H7xx_HAL_Driver/Src/stm32h7xx_hal_dma_ex.c ****   assert_param(IS_DMAMUX_SYNC_STATE(pSyncConfig->SyncEnable));
 1473              		.loc 1 402 3 view .LVU428
 403:Drivers/STM32H7xx_HAL_Driver/Src/stm32h7xx_hal_dma_ex.c ****   assert_param(IS_DMAMUX_SYNC_EVENT(pSyncConfig->EventEnable));
 1474              		.loc 1 403 3 view .LVU429
 404:Drivers/STM32H7xx_HAL_Driver/Src/stm32h7xx_hal_dma_ex.c ****   assert_param(IS_DMAMUX_SYNC_REQUEST_NUMBER(pSyncConfig->RequestNumber));
 1475              		.loc 1 404 3 view .LVU430
 405:Drivers/STM32H7xx_HAL_Driver/Src/stm32h7xx_hal_dma_ex.c **** 
ARM GAS  /tmp/ccYmmrDD.s 			page 46


 1476              		.loc 1 405 3 view .LVU431
 407:Drivers/STM32H7xx_HAL_Driver/Src/stm32h7xx_hal_dma_ex.c ****   {
 1477              		.loc 1 407 3 view .LVU432
 407:Drivers/STM32H7xx_HAL_Driver/Src/stm32h7xx_hal_dma_ex.c ****   {
 1478              		.loc 1 407 17 is_stmt 0 view .LVU433
 1479 0002 0B7A     		ldrb	r3, [r1, #8]	@ zero_extendqisi2
 407:Drivers/STM32H7xx_HAL_Driver/Src/stm32h7xx_hal_dma_ex.c ****   {
 1480              		.loc 1 407 5 view .LVU434
 1481 0004 012B     		cmp	r3, #1
 1482 0006 27D0     		beq	.L75
 399:Drivers/STM32H7xx_HAL_Driver/Src/stm32h7xx_hal_dma_ex.c **** 
 1483              		.loc 1 399 12 view .LVU435
 1484 0008 0024     		movs	r4, #0
 398:Drivers/STM32H7xx_HAL_Driver/Src/stm32h7xx_hal_dma_ex.c ****   uint32_t syncPolarity = 0;
 1485              		.loc 1 398 12 view .LVU436
 1486 000a 2546     		mov	r5, r4
 1487              	.LVL53:
 1488              	.L69:
 424:Drivers/STM32H7xx_HAL_Driver/Src/stm32h7xx_hal_dma_ex.c ****   {
 1489              		.loc 1 424 3 is_stmt 1 view .LVU437
 424:Drivers/STM32H7xx_HAL_Driver/Src/stm32h7xx_hal_dma_ex.c ****   {
 1490              		.loc 1 424 10 is_stmt 0 view .LVU438
 1491 000c 90F83530 		ldrb	r3, [r0, #53]	@ zero_extendqisi2
 424:Drivers/STM32H7xx_HAL_Driver/Src/stm32h7xx_hal_dma_ex.c ****   {
 1492              		.loc 1 424 5 view .LVU439
 1493 0010 012B     		cmp	r3, #1
 1494 0012 24D1     		bne	.L70
 427:Drivers/STM32H7xx_HAL_Driver/Src/stm32h7xx_hal_dma_ex.c **** 
 1495              		.loc 1 427 5 is_stmt 1 view .LVU440
 427:Drivers/STM32H7xx_HAL_Driver/Src/stm32h7xx_hal_dma_ex.c **** 
 1496              		.loc 1 427 5 view .LVU441
 1497 0014 90F83430 		ldrb	r3, [r0, #52]	@ zero_extendqisi2
 1498 0018 012B     		cmp	r3, #1
 1499 001a 26D0     		beq	.L73
 427:Drivers/STM32H7xx_HAL_Driver/Src/stm32h7xx_hal_dma_ex.c **** 
 1500              		.loc 1 427 5 discriminator 2 view .LVU442
 1501 001c 0123     		movs	r3, #1
 1502 001e 80F83430 		strb	r3, [r0, #52]
 427:Drivers/STM32H7xx_HAL_Driver/Src/stm32h7xx_hal_dma_ex.c **** 
 1503              		.loc 1 427 5 view .LVU443
 430:Drivers/STM32H7xx_HAL_Driver/Src/stm32h7xx_hal_dma_ex.c **** 
 1504              		.loc 1 430 5 view .LVU444
 1505 0022 026E     		ldr	r2, [r0, #96]
 1506 0024 1368     		ldr	r3, [r2]
 1507 0026 23F48133 		bic	r3, r3, #66048
 1508 002a 1360     		str	r3, [r2]
 433:Drivers/STM32H7xx_HAL_Driver/Src/stm32h7xx_hal_dma_ex.c ****                (~DMAMUX_CxCR_DMAREQ_ID) , \
 1509              		.loc 1 433 5 view .LVU445
 1510 002c 066E     		ldr	r6, [r0, #96]
 1511 002e 3268     		ldr	r2, [r6]
 1512 0030 D2B2     		uxtb	r2, r2
 1513 0032 CB68     		ldr	r3, [r1, #12]
 1514 0034 013B     		subs	r3, r3, #1
 1515 0036 DB04     		lsls	r3, r3, #19
 1516 0038 43EA0563 		orr	r3, r3, r5, lsl #24
 1517 003c 2343     		orrs	r3, r3, r4
 1518 003e 0C7A     		ldrb	r4, [r1, #8]	@ zero_extendqisi2
ARM GAS  /tmp/ccYmmrDD.s 			page 47


 1519              	.LVL54:
 433:Drivers/STM32H7xx_HAL_Driver/Src/stm32h7xx_hal_dma_ex.c ****                (~DMAMUX_CxCR_DMAREQ_ID) , \
 1520              		.loc 1 433 5 is_stmt 0 view .LVU446
 1521 0040 43EA0443 		orr	r3, r3, r4, lsl #16
 1522 0044 497A     		ldrb	r1, [r1, #9]	@ zero_extendqisi2
 1523              	.LVL55:
 433:Drivers/STM32H7xx_HAL_Driver/Src/stm32h7xx_hal_dma_ex.c ****                (~DMAMUX_CxCR_DMAREQ_ID) , \
 1524              		.loc 1 433 5 view .LVU447
 1525 0046 43EA4123 		orr	r3, r3, r1, lsl #9
 1526 004a 1343     		orrs	r3, r3, r2
 1527 004c 3360     		str	r3, [r6]
 441:Drivers/STM32H7xx_HAL_Driver/Src/stm32h7xx_hal_dma_ex.c **** 
 1528              		.loc 1 441 5 is_stmt 1 view .LVU448
 441:Drivers/STM32H7xx_HAL_Driver/Src/stm32h7xx_hal_dma_ex.c **** 
 1529              		.loc 1 441 5 view .LVU449
 1530 004e 0023     		movs	r3, #0
 1531 0050 80F83430 		strb	r3, [r0, #52]
 441:Drivers/STM32H7xx_HAL_Driver/Src/stm32h7xx_hal_dma_ex.c **** 
 1532              		.loc 1 441 5 view .LVU450
 443:Drivers/STM32H7xx_HAL_Driver/Src/stm32h7xx_hal_dma_ex.c ****   }
 1533              		.loc 1 443 5 view .LVU451
 443:Drivers/STM32H7xx_HAL_Driver/Src/stm32h7xx_hal_dma_ex.c ****   }
 1534              		.loc 1 443 12 is_stmt 0 view .LVU452
 1535 0054 1846     		mov	r0, r3
 1536              	.LVL56:
 443:Drivers/STM32H7xx_HAL_Driver/Src/stm32h7xx_hal_dma_ex.c ****   }
 1537              		.loc 1 443 12 view .LVU453
 1538 0056 06E0     		b	.L71
 1539              	.LVL57:
 1540              	.L75:
 409:Drivers/STM32H7xx_HAL_Driver/Src/stm32h7xx_hal_dma_ex.c **** 
 1541              		.loc 1 409 5 is_stmt 1 view .LVU454
 411:Drivers/STM32H7xx_HAL_Driver/Src/stm32h7xx_hal_dma_ex.c ****     {
 1542              		.loc 1 411 5 view .LVU455
 413:Drivers/STM32H7xx_HAL_Driver/Src/stm32h7xx_hal_dma_ex.c ****     }
 1543              		.loc 1 413 7 view .LVU456
 417:Drivers/STM32H7xx_HAL_Driver/Src/stm32h7xx_hal_dma_ex.c ****     }
 1544              		.loc 1 417 7 view .LVU457
 419:Drivers/STM32H7xx_HAL_Driver/Src/stm32h7xx_hal_dma_ex.c ****     syncPolarity = pSyncConfig->SyncPolarity;
 1545              		.loc 1 419 5 view .LVU458
 419:Drivers/STM32H7xx_HAL_Driver/Src/stm32h7xx_hal_dma_ex.c ****     syncPolarity = pSyncConfig->SyncPolarity;
 1546              		.loc 1 419 18 is_stmt 0 view .LVU459
 1547 0058 0D68     		ldr	r5, [r1]
 1548              	.LVL58:
 420:Drivers/STM32H7xx_HAL_Driver/Src/stm32h7xx_hal_dma_ex.c ****   }
 1549              		.loc 1 420 5 is_stmt 1 view .LVU460
 420:Drivers/STM32H7xx_HAL_Driver/Src/stm32h7xx_hal_dma_ex.c ****   }
 1550              		.loc 1 420 18 is_stmt 0 view .LVU461
 1551 005a 4C68     		ldr	r4, [r1, #4]
 1552              	.LVL59:
 420:Drivers/STM32H7xx_HAL_Driver/Src/stm32h7xx_hal_dma_ex.c ****   }
 1553              		.loc 1 420 18 view .LVU462
 1554 005c D6E7     		b	.L69
 1555              	.L70:
 448:Drivers/STM32H7xx_HAL_Driver/Src/stm32h7xx_hal_dma_ex.c **** 
 1556              		.loc 1 448 5 is_stmt 1 view .LVU463
 448:Drivers/STM32H7xx_HAL_Driver/Src/stm32h7xx_hal_dma_ex.c **** 
ARM GAS  /tmp/ccYmmrDD.s 			page 48


 1557              		.loc 1 448 21 is_stmt 0 view .LVU464
 1558 005e 4FF40063 		mov	r3, #2048
 1559 0062 4365     		str	r3, [r0, #84]
 451:Drivers/STM32H7xx_HAL_Driver/Src/stm32h7xx_hal_dma_ex.c ****   }
 1560              		.loc 1 451 5 is_stmt 1 view .LVU465
 451:Drivers/STM32H7xx_HAL_Driver/Src/stm32h7xx_hal_dma_ex.c ****   }
 1561              		.loc 1 451 12 is_stmt 0 view .LVU466
 1562 0064 0120     		movs	r0, #1
 1563              	.LVL60:
 1564              	.L71:
 453:Drivers/STM32H7xx_HAL_Driver/Src/stm32h7xx_hal_dma_ex.c **** 
 1565              		.loc 1 453 1 view .LVU467
 1566 0066 70BC     		pop	{r4, r5, r6}
 1567              	.LCFI9:
 1568              		.cfi_remember_state
 1569              		.cfi_restore 6
 1570              		.cfi_restore 5
 1571              		.cfi_restore 4
 1572              		.cfi_def_cfa_offset 0
 1573              	.LVL61:
 453:Drivers/STM32H7xx_HAL_Driver/Src/stm32h7xx_hal_dma_ex.c **** 
 1574              		.loc 1 453 1 view .LVU468
 1575 0068 7047     		bx	lr
 1576              	.LVL62:
 1577              	.L73:
 1578              	.LCFI10:
 1579              		.cfi_restore_state
 427:Drivers/STM32H7xx_HAL_Driver/Src/stm32h7xx_hal_dma_ex.c **** 
 1580              		.loc 1 427 5 discriminator 1 view .LVU469
 1581 006a 0220     		movs	r0, #2
 1582              	.LVL63:
 427:Drivers/STM32H7xx_HAL_Driver/Src/stm32h7xx_hal_dma_ex.c **** 
 1583              		.loc 1 427 5 discriminator 1 view .LVU470
 1584 006c FBE7     		b	.L71
 1585              		.cfi_endproc
 1586              	.LFE340:
 1588              		.section	.text.HAL_DMAEx_ConfigMuxRequestGenerator,"ax",%progbits
 1589              		.align	1
 1590              		.global	HAL_DMAEx_ConfigMuxRequestGenerator
 1591              		.syntax unified
 1592              		.thumb
 1593              		.thumb_func
 1595              	HAL_DMAEx_ConfigMuxRequestGenerator:
 1596              	.LVL64:
 1597              	.LFB341:
 465:Drivers/STM32H7xx_HAL_Driver/Src/stm32h7xx_hal_dma_ex.c ****   HAL_StatusTypeDef status;
 1598              		.loc 1 465 1 is_stmt 1 view -0
 1599              		.cfi_startproc
 1600              		@ args = 0, pretend = 0, frame = 0
 1601              		@ frame_needed = 0, uses_anonymous_args = 0
 1602              		@ link register save eliminated.
 466:Drivers/STM32H7xx_HAL_Driver/Src/stm32h7xx_hal_dma_ex.c ****   HAL_DMA_StateTypeDef temp_state = hdma->State;
 1603              		.loc 1 466 3 view .LVU472
 467:Drivers/STM32H7xx_HAL_Driver/Src/stm32h7xx_hal_dma_ex.c **** 
 1604              		.loc 1 467 3 view .LVU473
 467:Drivers/STM32H7xx_HAL_Driver/Src/stm32h7xx_hal_dma_ex.c **** 
 1605              		.loc 1 467 24 is_stmt 0 view .LVU474
ARM GAS  /tmp/ccYmmrDD.s 			page 49


 1606 0000 90F83530 		ldrb	r3, [r0, #53]	@ zero_extendqisi2
 1607              	.LVL65:
 470:Drivers/STM32H7xx_HAL_Driver/Src/stm32h7xx_hal_dma_ex.c **** 
 1608              		.loc 1 470 3 is_stmt 1 view .LVU475
 472:Drivers/STM32H7xx_HAL_Driver/Src/stm32h7xx_hal_dma_ex.c ****   {
 1609              		.loc 1 472 3 view .LVU476
 474:Drivers/STM32H7xx_HAL_Driver/Src/stm32h7xx_hal_dma_ex.c ****   }
 1610              		.loc 1 474 5 view .LVU477
 478:Drivers/STM32H7xx_HAL_Driver/Src/stm32h7xx_hal_dma_ex.c ****   }
 1611              		.loc 1 478 5 view .LVU478
 482:Drivers/STM32H7xx_HAL_Driver/Src/stm32h7xx_hal_dma_ex.c ****   assert_param(IS_DMAMUX_REQUEST_GEN_REQUEST_NUMBER(pRequestGeneratorConfig->RequestNumber));
 1612              		.loc 1 482 3 view .LVU479
 483:Drivers/STM32H7xx_HAL_Driver/Src/stm32h7xx_hal_dma_ex.c **** 
 1613              		.loc 1 483 3 view .LVU480
 488:Drivers/STM32H7xx_HAL_Driver/Src/stm32h7xx_hal_dma_ex.c ****   {
 1614              		.loc 1 488 3 view .LVU481
 488:Drivers/STM32H7xx_HAL_Driver/Src/stm32h7xx_hal_dma_ex.c ****   {
 1615              		.loc 1 488 10 is_stmt 0 view .LVU482
 1616 0004 C26E     		ldr	r2, [r0, #108]
 488:Drivers/STM32H7xx_HAL_Driver/Src/stm32h7xx_hal_dma_ex.c ****   {
 1617              		.loc 1 488 5 view .LVU483
 1618 0006 72B1     		cbz	r2, .L84
 465:Drivers/STM32H7xx_HAL_Driver/Src/stm32h7xx_hal_dma_ex.c ****   HAL_StatusTypeDef status;
 1619              		.loc 1 465 1 view .LVU484
 1620 0008 10B4     		push	{r4}
 1621              	.LCFI11:
 1622              		.cfi_def_cfa_offset 4
 1623              		.cfi_offset 4, -4
 1624 000a DBB2     		uxtb	r3, r3
 496:Drivers/STM32H7xx_HAL_Driver/Src/stm32h7xx_hal_dma_ex.c ****   {
 1625              		.loc 1 496 8 is_stmt 1 view .LVU485
 496:Drivers/STM32H7xx_HAL_Driver/Src/stm32h7xx_hal_dma_ex.c ****   {
 1626              		.loc 1 496 35 is_stmt 0 view .LVU486
 1627 000c 1468     		ldr	r4, [r2]
 496:Drivers/STM32H7xx_HAL_Driver/Src/stm32h7xx_hal_dma_ex.c ****   {
 1628              		.loc 1 496 10 view .LVU487
 1629 000e 14F4803F 		tst	r4, #65536
 1630 0012 01D1     		bne	.L79
 496:Drivers/STM32H7xx_HAL_Driver/Src/stm32h7xx_hal_dma_ex.c ****   {
 1631              		.loc 1 496 68 discriminator 1 view .LVU488
 1632 0014 012B     		cmp	r3, #1
 1633 0016 0AD0     		beq	.L85
 1634              	.L79:
 515:Drivers/STM32H7xx_HAL_Driver/Src/stm32h7xx_hal_dma_ex.c **** 
 1635              		.loc 1 515 5 is_stmt 1 view .LVU489
 515:Drivers/STM32H7xx_HAL_Driver/Src/stm32h7xx_hal_dma_ex.c **** 
 1636              		.loc 1 515 21 is_stmt 0 view .LVU490
 1637 0018 4FF40063 		mov	r3, #2048
 1638              	.LVL66:
 515:Drivers/STM32H7xx_HAL_Driver/Src/stm32h7xx_hal_dma_ex.c **** 
 1639              		.loc 1 515 21 view .LVU491
 1640 001c 4365     		str	r3, [r0, #84]
 518:Drivers/STM32H7xx_HAL_Driver/Src/stm32h7xx_hal_dma_ex.c ****   }
 1641              		.loc 1 518 5 is_stmt 1 view .LVU492
 1642              	.LVL67:
 521:Drivers/STM32H7xx_HAL_Driver/Src/stm32h7xx_hal_dma_ex.c **** }
 1643              		.loc 1 521 10 is_stmt 0 view .LVU493
ARM GAS  /tmp/ccYmmrDD.s 			page 50


 1644 001e 0120     		movs	r0, #1
 1645              	.LVL68:
 1646              	.L78:
 522:Drivers/STM32H7xx_HAL_Driver/Src/stm32h7xx_hal_dma_ex.c **** 
 1647              		.loc 1 522 1 view .LVU494
 1648 0020 5DF8044B 		ldr	r4, [sp], #4
 1649              	.LCFI12:
 1650              		.cfi_restore 4
 1651              		.cfi_def_cfa_offset 0
 1652 0024 7047     		bx	lr
 1653              	.LVL69:
 1654              	.L84:
 491:Drivers/STM32H7xx_HAL_Driver/Src/stm32h7xx_hal_dma_ex.c **** 
 1655              		.loc 1 491 5 is_stmt 1 view .LVU495
 491:Drivers/STM32H7xx_HAL_Driver/Src/stm32h7xx_hal_dma_ex.c **** 
 1656              		.loc 1 491 21 is_stmt 0 view .LVU496
 1657 0026 4023     		movs	r3, #64
 1658              	.LVL70:
 491:Drivers/STM32H7xx_HAL_Driver/Src/stm32h7xx_hal_dma_ex.c **** 
 1659              		.loc 1 491 21 view .LVU497
 1660 0028 4365     		str	r3, [r0, #84]
 494:Drivers/STM32H7xx_HAL_Driver/Src/stm32h7xx_hal_dma_ex.c ****   }
 1661              		.loc 1 494 5 is_stmt 1 view .LVU498
 1662              	.LVL71:
 521:Drivers/STM32H7xx_HAL_Driver/Src/stm32h7xx_hal_dma_ex.c **** }
 1663              		.loc 1 521 10 is_stmt 0 view .LVU499
 1664 002a 0120     		movs	r0, #1
 1665              	.LVL72:
 522:Drivers/STM32H7xx_HAL_Driver/Src/stm32h7xx_hal_dma_ex.c **** 
 1666              		.loc 1 522 1 view .LVU500
 1667 002c 7047     		bx	lr
 1668              	.LVL73:
 1669              	.L85:
 1670              	.LCFI13:
 1671              		.cfi_def_cfa_offset 4
 1672              		.cfi_offset 4, -4
 501:Drivers/STM32H7xx_HAL_Driver/Src/stm32h7xx_hal_dma_ex.c **** 
 1673              		.loc 1 501 5 is_stmt 1 view .LVU501
 501:Drivers/STM32H7xx_HAL_Driver/Src/stm32h7xx_hal_dma_ex.c **** 
 1674              		.loc 1 501 5 view .LVU502
 1675 002e 90F83430 		ldrb	r3, [r0, #52]	@ zero_extendqisi2
 1676              	.LVL74:
 501:Drivers/STM32H7xx_HAL_Driver/Src/stm32h7xx_hal_dma_ex.c **** 
 1677              		.loc 1 501 5 is_stmt 0 view .LVU503
 1678 0032 012B     		cmp	r3, #1
 1679 0034 0FD0     		beq	.L80
 501:Drivers/STM32H7xx_HAL_Driver/Src/stm32h7xx_hal_dma_ex.c **** 
 1680              		.loc 1 501 5 is_stmt 1 discriminator 2 view .LVU504
 1681 0036 0123     		movs	r3, #1
 1682 0038 80F83430 		strb	r3, [r0, #52]
 501:Drivers/STM32H7xx_HAL_Driver/Src/stm32h7xx_hal_dma_ex.c **** 
 1683              		.loc 1 501 5 view .LVU505
 504:Drivers/STM32H7xx_HAL_Driver/Src/stm32h7xx_hal_dma_ex.c ****                                   ((pRequestGeneratorConfig->RequestNumber - 1U) << DMAMUX_RGxCR_GN
 1684              		.loc 1 504 5 view .LVU506
 504:Drivers/STM32H7xx_HAL_Driver/Src/stm32h7xx_hal_dma_ex.c ****                                   ((pRequestGeneratorConfig->RequestNumber - 1U) << DMAMUX_RGxCR_GN
 1685              		.loc 1 504 59 is_stmt 0 view .LVU507
 1686 003c 0B68     		ldr	r3, [r1]
ARM GAS  /tmp/ccYmmrDD.s 			page 51


 505:Drivers/STM32H7xx_HAL_Driver/Src/stm32h7xx_hal_dma_ex.c ****                                   pRequestGeneratorConfig->Polarity;
 1687              		.loc 1 505 60 view .LVU508
 1688 003e 8C68     		ldr	r4, [r1, #8]
 505:Drivers/STM32H7xx_HAL_Driver/Src/stm32h7xx_hal_dma_ex.c ****                                   pRequestGeneratorConfig->Polarity;
 1689              		.loc 1 505 76 view .LVU509
 1690 0040 013C     		subs	r4, r4, #1
 504:Drivers/STM32H7xx_HAL_Driver/Src/stm32h7xx_hal_dma_ex.c ****                                   ((pRequestGeneratorConfig->RequestNumber - 1U) << DMAMUX_RGxCR_GN
 1691              		.loc 1 504 70 view .LVU510
 1692 0042 43EAC443 		orr	r3, r3, r4, lsl #19
 506:Drivers/STM32H7xx_HAL_Driver/Src/stm32h7xx_hal_dma_ex.c ****     /* Process Locked */
 1693              		.loc 1 506 58 view .LVU511
 1694 0046 4968     		ldr	r1, [r1, #4]
 1695              	.LVL75:
 505:Drivers/STM32H7xx_HAL_Driver/Src/stm32h7xx_hal_dma_ex.c ****                                   pRequestGeneratorConfig->Polarity;
 1696              		.loc 1 505 109 view .LVU512
 1697 0048 0B43     		orrs	r3, r3, r1
 504:Drivers/STM32H7xx_HAL_Driver/Src/stm32h7xx_hal_dma_ex.c ****                                   ((pRequestGeneratorConfig->RequestNumber - 1U) << DMAMUX_RGxCR_GN
 1698              		.loc 1 504 34 view .LVU513
 1699 004a 1360     		str	r3, [r2]
 508:Drivers/STM32H7xx_HAL_Driver/Src/stm32h7xx_hal_dma_ex.c **** 
 1700              		.loc 1 508 5 is_stmt 1 view .LVU514
 508:Drivers/STM32H7xx_HAL_Driver/Src/stm32h7xx_hal_dma_ex.c **** 
 1701              		.loc 1 508 5 view .LVU515
 1702 004c 0023     		movs	r3, #0
 1703 004e 80F83430 		strb	r3, [r0, #52]
 508:Drivers/STM32H7xx_HAL_Driver/Src/stm32h7xx_hal_dma_ex.c **** 
 1704              		.loc 1 508 5 view .LVU516
 510:Drivers/STM32H7xx_HAL_Driver/Src/stm32h7xx_hal_dma_ex.c ****   }
 1705              		.loc 1 510 5 view .LVU517
 510:Drivers/STM32H7xx_HAL_Driver/Src/stm32h7xx_hal_dma_ex.c ****   }
 1706              		.loc 1 510 12 is_stmt 0 view .LVU518
 1707 0052 1846     		mov	r0, r3
 1708              	.LVL76:
 510:Drivers/STM32H7xx_HAL_Driver/Src/stm32h7xx_hal_dma_ex.c ****   }
 1709              		.loc 1 510 12 view .LVU519
 1710 0054 E4E7     		b	.L78
 1711              	.LVL77:
 1712              	.L80:
 501:Drivers/STM32H7xx_HAL_Driver/Src/stm32h7xx_hal_dma_ex.c **** 
 1713              		.loc 1 501 5 discriminator 1 view .LVU520
 1714 0056 0220     		movs	r0, #2
 1715              	.LVL78:
 501:Drivers/STM32H7xx_HAL_Driver/Src/stm32h7xx_hal_dma_ex.c **** 
 1716              		.loc 1 501 5 discriminator 1 view .LVU521
 1717 0058 E2E7     		b	.L78
 1718              		.cfi_endproc
 1719              	.LFE341:
 1721              		.section	.text.HAL_DMAEx_EnableMuxRequestGenerator,"ax",%progbits
 1722              		.align	1
 1723              		.global	HAL_DMAEx_EnableMuxRequestGenerator
 1724              		.syntax unified
 1725              		.thumb
 1726              		.thumb_func
 1728              	HAL_DMAEx_EnableMuxRequestGenerator:
 1729              	.LVL79:
 1730              	.LFB342:
 531:Drivers/STM32H7xx_HAL_Driver/Src/stm32h7xx_hal_dma_ex.c ****   /* Check the parameters */
ARM GAS  /tmp/ccYmmrDD.s 			page 52


 1731              		.loc 1 531 1 is_stmt 1 view -0
 1732              		.cfi_startproc
 1733              		@ args = 0, pretend = 0, frame = 0
 1734              		@ frame_needed = 0, uses_anonymous_args = 0
 1735              		@ link register save eliminated.
 533:Drivers/STM32H7xx_HAL_Driver/Src/stm32h7xx_hal_dma_ex.c **** 
 1736              		.loc 1 533 3 view .LVU523
 537:Drivers/STM32H7xx_HAL_Driver/Src/stm32h7xx_hal_dma_ex.c ****   {
 1737              		.loc 1 537 3 view .LVU524
 537:Drivers/STM32H7xx_HAL_Driver/Src/stm32h7xx_hal_dma_ex.c ****   {
 1738              		.loc 1 537 11 is_stmt 0 view .LVU525
 1739 0000 90F83530 		ldrb	r3, [r0, #53]	@ zero_extendqisi2
 537:Drivers/STM32H7xx_HAL_Driver/Src/stm32h7xx_hal_dma_ex.c ****   {
 1740              		.loc 1 537 5 view .LVU526
 1741 0004 3BB1     		cbz	r3, .L88
 537:Drivers/STM32H7xx_HAL_Driver/Src/stm32h7xx_hal_dma_ex.c ****   {
 1742              		.loc 1 537 51 discriminator 1 view .LVU527
 1743 0006 C36E     		ldr	r3, [r0, #108]
 537:Drivers/STM32H7xx_HAL_Driver/Src/stm32h7xx_hal_dma_ex.c ****   {
 1744              		.loc 1 537 43 discriminator 1 view .LVU528
 1745 0008 3BB1     		cbz	r3, .L89
 540:Drivers/STM32H7xx_HAL_Driver/Src/stm32h7xx_hal_dma_ex.c **** 
 1746              		.loc 1 540 5 is_stmt 1 view .LVU529
 540:Drivers/STM32H7xx_HAL_Driver/Src/stm32h7xx_hal_dma_ex.c **** 
 1747              		.loc 1 540 27 is_stmt 0 view .LVU530
 1748 000a 1A68     		ldr	r2, [r3]
 540:Drivers/STM32H7xx_HAL_Driver/Src/stm32h7xx_hal_dma_ex.c **** 
 1749              		.loc 1 540 34 view .LVU531
 1750 000c 42F48032 		orr	r2, r2, #65536
 1751 0010 1A60     		str	r2, [r3]
 542:Drivers/STM32H7xx_HAL_Driver/Src/stm32h7xx_hal_dma_ex.c ****  }
 1752              		.loc 1 542 4 is_stmt 1 view .LVU532
 542:Drivers/STM32H7xx_HAL_Driver/Src/stm32h7xx_hal_dma_ex.c ****  }
 1753              		.loc 1 542 11 is_stmt 0 view .LVU533
 1754 0012 0020     		movs	r0, #0
 1755              	.LVL80:
 542:Drivers/STM32H7xx_HAL_Driver/Src/stm32h7xx_hal_dma_ex.c ****  }
 1756              		.loc 1 542 11 view .LVU534
 1757 0014 7047     		bx	lr
 1758              	.LVL81:
 1759              	.L88:
 546:Drivers/STM32H7xx_HAL_Driver/Src/stm32h7xx_hal_dma_ex.c ****  }
 1760              		.loc 1 546 11 view .LVU535
 1761 0016 0120     		movs	r0, #1
 1762              	.LVL82:
 546:Drivers/STM32H7xx_HAL_Driver/Src/stm32h7xx_hal_dma_ex.c ****  }
 1763              		.loc 1 546 11 view .LVU536
 1764 0018 7047     		bx	lr
 1765              	.LVL83:
 1766              	.L89:
 546:Drivers/STM32H7xx_HAL_Driver/Src/stm32h7xx_hal_dma_ex.c ****  }
 1767              		.loc 1 546 11 view .LVU537
 1768 001a 0120     		movs	r0, #1
 1769              	.LVL84:
 548:Drivers/STM32H7xx_HAL_Driver/Src/stm32h7xx_hal_dma_ex.c **** 
 1770              		.loc 1 548 1 view .LVU538
 1771 001c 7047     		bx	lr
ARM GAS  /tmp/ccYmmrDD.s 			page 53


 1772              		.cfi_endproc
 1773              	.LFE342:
 1775              		.section	.text.HAL_DMAEx_DisableMuxRequestGenerator,"ax",%progbits
 1776              		.align	1
 1777              		.global	HAL_DMAEx_DisableMuxRequestGenerator
 1778              		.syntax unified
 1779              		.thumb
 1780              		.thumb_func
 1782              	HAL_DMAEx_DisableMuxRequestGenerator:
 1783              	.LVL85:
 1784              	.LFB343:
 557:Drivers/STM32H7xx_HAL_Driver/Src/stm32h7xx_hal_dma_ex.c ****   /* Check the parameters */
 1785              		.loc 1 557 1 is_stmt 1 view -0
 1786              		.cfi_startproc
 1787              		@ args = 0, pretend = 0, frame = 0
 1788              		@ frame_needed = 0, uses_anonymous_args = 0
 1789              		@ link register save eliminated.
 559:Drivers/STM32H7xx_HAL_Driver/Src/stm32h7xx_hal_dma_ex.c **** 
 1790              		.loc 1 559 3 view .LVU540
 563:Drivers/STM32H7xx_HAL_Driver/Src/stm32h7xx_hal_dma_ex.c ****   {
 1791              		.loc 1 563 3 view .LVU541
 563:Drivers/STM32H7xx_HAL_Driver/Src/stm32h7xx_hal_dma_ex.c ****   {
 1792              		.loc 1 563 11 is_stmt 0 view .LVU542
 1793 0000 90F83530 		ldrb	r3, [r0, #53]	@ zero_extendqisi2
 563:Drivers/STM32H7xx_HAL_Driver/Src/stm32h7xx_hal_dma_ex.c ****   {
 1794              		.loc 1 563 5 view .LVU543
 1795 0004 3BB1     		cbz	r3, .L92
 563:Drivers/STM32H7xx_HAL_Driver/Src/stm32h7xx_hal_dma_ex.c ****   {
 1796              		.loc 1 563 51 discriminator 1 view .LVU544
 1797 0006 C36E     		ldr	r3, [r0, #108]
 563:Drivers/STM32H7xx_HAL_Driver/Src/stm32h7xx_hal_dma_ex.c ****   {
 1798              		.loc 1 563 43 discriminator 1 view .LVU545
 1799 0008 3BB1     		cbz	r3, .L93
 566:Drivers/STM32H7xx_HAL_Driver/Src/stm32h7xx_hal_dma_ex.c **** 
 1800              		.loc 1 566 5 is_stmt 1 view .LVU546
 566:Drivers/STM32H7xx_HAL_Driver/Src/stm32h7xx_hal_dma_ex.c **** 
 1801              		.loc 1 566 27 is_stmt 0 view .LVU547
 1802 000a 1A68     		ldr	r2, [r3]
 566:Drivers/STM32H7xx_HAL_Driver/Src/stm32h7xx_hal_dma_ex.c **** 
 1803              		.loc 1 566 34 view .LVU548
 1804 000c 22F48032 		bic	r2, r2, #65536
 1805 0010 1A60     		str	r2, [r3]
 568:Drivers/STM32H7xx_HAL_Driver/Src/stm32h7xx_hal_dma_ex.c ****  }
 1806              		.loc 1 568 4 is_stmt 1 view .LVU549
 568:Drivers/STM32H7xx_HAL_Driver/Src/stm32h7xx_hal_dma_ex.c ****  }
 1807              		.loc 1 568 11 is_stmt 0 view .LVU550
 1808 0012 0020     		movs	r0, #0
 1809              	.LVL86:
 568:Drivers/STM32H7xx_HAL_Driver/Src/stm32h7xx_hal_dma_ex.c ****  }
 1810              		.loc 1 568 11 view .LVU551
 1811 0014 7047     		bx	lr
 1812              	.LVL87:
 1813              	.L92:
 572:Drivers/STM32H7xx_HAL_Driver/Src/stm32h7xx_hal_dma_ex.c ****  }
 1814              		.loc 1 572 11 view .LVU552
 1815 0016 0120     		movs	r0, #1
 1816              	.LVL88:
ARM GAS  /tmp/ccYmmrDD.s 			page 54


 572:Drivers/STM32H7xx_HAL_Driver/Src/stm32h7xx_hal_dma_ex.c ****  }
 1817              		.loc 1 572 11 view .LVU553
 1818 0018 7047     		bx	lr
 1819              	.LVL89:
 1820              	.L93:
 572:Drivers/STM32H7xx_HAL_Driver/Src/stm32h7xx_hal_dma_ex.c ****  }
 1821              		.loc 1 572 11 view .LVU554
 1822 001a 0120     		movs	r0, #1
 1823              	.LVL90:
 574:Drivers/STM32H7xx_HAL_Driver/Src/stm32h7xx_hal_dma_ex.c **** 
 1824              		.loc 1 574 1 view .LVU555
 1825 001c 7047     		bx	lr
 1826              		.cfi_endproc
 1827              	.LFE343:
 1829              		.section	.text.HAL_DMAEx_MUX_IRQHandler,"ax",%progbits
 1830              		.align	1
 1831              		.global	HAL_DMAEx_MUX_IRQHandler
 1832              		.syntax unified
 1833              		.thumb
 1834              		.thumb_func
 1836              	HAL_DMAEx_MUX_IRQHandler:
 1837              	.LVL91:
 1838              	.LFB344:
 583:Drivers/STM32H7xx_HAL_Driver/Src/stm32h7xx_hal_dma_ex.c ****   /* Check for DMAMUX Synchronization overrun */
 1839              		.loc 1 583 1 is_stmt 1 view -0
 1840              		.cfi_startproc
 1841              		@ args = 0, pretend = 0, frame = 0
 1842              		@ frame_needed = 0, uses_anonymous_args = 0
 583:Drivers/STM32H7xx_HAL_Driver/Src/stm32h7xx_hal_dma_ex.c ****   /* Check for DMAMUX Synchronization overrun */
 1843              		.loc 1 583 1 is_stmt 0 view .LVU557
 1844 0000 10B5     		push	{r4, lr}
 1845              	.LCFI14:
 1846              		.cfi_def_cfa_offset 8
 1847              		.cfi_offset 4, -8
 1848              		.cfi_offset 14, -4
 1849 0002 0446     		mov	r4, r0
 585:Drivers/STM32H7xx_HAL_Driver/Src/stm32h7xx_hal_dma_ex.c ****   {
 1850              		.loc 1 585 3 is_stmt 1 view .LVU558
 585:Drivers/STM32H7xx_HAL_Driver/Src/stm32h7xx_hal_dma_ex.c ****   {
 1851              		.loc 1 585 11 is_stmt 0 view .LVU559
 1852 0004 436E     		ldr	r3, [r0, #100]
 585:Drivers/STM32H7xx_HAL_Driver/Src/stm32h7xx_hal_dma_ex.c ****   {
 1853              		.loc 1 585 32 view .LVU560
 1854 0006 1A68     		ldr	r2, [r3]
 585:Drivers/STM32H7xx_HAL_Driver/Src/stm32h7xx_hal_dma_ex.c ****   {
 1855              		.loc 1 585 44 view .LVU561
 1856 0008 836E     		ldr	r3, [r0, #104]
 585:Drivers/STM32H7xx_HAL_Driver/Src/stm32h7xx_hal_dma_ex.c ****   {
 1857              		.loc 1 585 5 view .LVU562
 1858 000a 1A42     		tst	r2, r3
 1859 000c 0ED0     		beq	.L95
 588:Drivers/STM32H7xx_HAL_Driver/Src/stm32h7xx_hal_dma_ex.c **** 
 1860              		.loc 1 588 5 is_stmt 1 view .LVU563
 588:Drivers/STM32H7xx_HAL_Driver/Src/stm32h7xx_hal_dma_ex.c **** 
 1861              		.loc 1 588 9 is_stmt 0 view .LVU564
 1862 000e 026E     		ldr	r2, [r0, #96]
 588:Drivers/STM32H7xx_HAL_Driver/Src/stm32h7xx_hal_dma_ex.c **** 
ARM GAS  /tmp/ccYmmrDD.s 			page 55


 1863              		.loc 1 588 24 view .LVU565
 1864 0010 1368     		ldr	r3, [r2]
 588:Drivers/STM32H7xx_HAL_Driver/Src/stm32h7xx_hal_dma_ex.c **** 
 1865              		.loc 1 588 30 view .LVU566
 1866 0012 23F48073 		bic	r3, r3, #256
 1867 0016 1360     		str	r3, [r2]
 591:Drivers/STM32H7xx_HAL_Driver/Src/stm32h7xx_hal_dma_ex.c **** 
 1868              		.loc 1 591 5 is_stmt 1 view .LVU567
 591:Drivers/STM32H7xx_HAL_Driver/Src/stm32h7xx_hal_dma_ex.c **** 
 1869              		.loc 1 591 9 is_stmt 0 view .LVU568
 1870 0018 436E     		ldr	r3, [r0, #100]
 591:Drivers/STM32H7xx_HAL_Driver/Src/stm32h7xx_hal_dma_ex.c **** 
 1871              		.loc 1 591 42 view .LVU569
 1872 001a 826E     		ldr	r2, [r0, #104]
 591:Drivers/STM32H7xx_HAL_Driver/Src/stm32h7xx_hal_dma_ex.c **** 
 1873              		.loc 1 591 36 view .LVU570
 1874 001c 5A60     		str	r2, [r3, #4]
 594:Drivers/STM32H7xx_HAL_Driver/Src/stm32h7xx_hal_dma_ex.c **** 
 1875              		.loc 1 594 5 is_stmt 1 view .LVU571
 594:Drivers/STM32H7xx_HAL_Driver/Src/stm32h7xx_hal_dma_ex.c **** 
 1876              		.loc 1 594 9 is_stmt 0 view .LVU572
 1877 001e 436D     		ldr	r3, [r0, #84]
 594:Drivers/STM32H7xx_HAL_Driver/Src/stm32h7xx_hal_dma_ex.c **** 
 1878              		.loc 1 594 21 view .LVU573
 1879 0020 43F40073 		orr	r3, r3, #512
 1880 0024 4365     		str	r3, [r0, #84]
 596:Drivers/STM32H7xx_HAL_Driver/Src/stm32h7xx_hal_dma_ex.c ****     {
 1881              		.loc 1 596 5 is_stmt 1 view .LVU574
 596:Drivers/STM32H7xx_HAL_Driver/Src/stm32h7xx_hal_dma_ex.c ****     {
 1882              		.loc 1 596 12 is_stmt 0 view .LVU575
 1883 0026 C36C     		ldr	r3, [r0, #76]
 596:Drivers/STM32H7xx_HAL_Driver/Src/stm32h7xx_hal_dma_ex.c ****     {
 1884              		.loc 1 596 7 view .LVU576
 1885 0028 03B1     		cbz	r3, .L95
 599:Drivers/STM32H7xx_HAL_Driver/Src/stm32h7xx_hal_dma_ex.c ****     }
 1886              		.loc 1 599 7 is_stmt 1 view .LVU577
 1887 002a 9847     		blx	r3
 1888              	.LVL92:
 1889              	.L95:
 603:Drivers/STM32H7xx_HAL_Driver/Src/stm32h7xx_hal_dma_ex.c ****   {
 1890              		.loc 1 603 3 view .LVU578
 603:Drivers/STM32H7xx_HAL_Driver/Src/stm32h7xx_hal_dma_ex.c ****   {
 1891              		.loc 1 603 10 is_stmt 0 view .LVU579
 1892 002c E36E     		ldr	r3, [r4, #108]
 603:Drivers/STM32H7xx_HAL_Driver/Src/stm32h7xx_hal_dma_ex.c ****   {
 1893              		.loc 1 603 5 view .LVU580
 1894 002e 9BB1     		cbz	r3, .L94
 606:Drivers/STM32H7xx_HAL_Driver/Src/stm32h7xx_hal_dma_ex.c ****     {
 1895              		.loc 1 606 5 is_stmt 1 view .LVU581
 606:Drivers/STM32H7xx_HAL_Driver/Src/stm32h7xx_hal_dma_ex.c ****     {
 1896              		.loc 1 606 13 is_stmt 0 view .LVU582
 1897 0030 226F     		ldr	r2, [r4, #112]
 606:Drivers/STM32H7xx_HAL_Driver/Src/stm32h7xx_hal_dma_ex.c ****     {
 1898              		.loc 1 606 37 view .LVU583
 1899 0032 1168     		ldr	r1, [r2]
 606:Drivers/STM32H7xx_HAL_Driver/Src/stm32h7xx_hal_dma_ex.c ****     {
 1900              		.loc 1 606 50 view .LVU584
ARM GAS  /tmp/ccYmmrDD.s 			page 56


 1901 0034 626F     		ldr	r2, [r4, #116]
 606:Drivers/STM32H7xx_HAL_Driver/Src/stm32h7xx_hal_dma_ex.c ****     {
 1902              		.loc 1 606 7 view .LVU585
 1903 0036 1142     		tst	r1, r2
 1904 0038 0ED0     		beq	.L94
 609:Drivers/STM32H7xx_HAL_Driver/Src/stm32h7xx_hal_dma_ex.c **** 
 1905              		.loc 1 609 7 is_stmt 1 view .LVU586
 609:Drivers/STM32H7xx_HAL_Driver/Src/stm32h7xx_hal_dma_ex.c **** 
 1906              		.loc 1 609 29 is_stmt 0 view .LVU587
 1907 003a 1A68     		ldr	r2, [r3]
 609:Drivers/STM32H7xx_HAL_Driver/Src/stm32h7xx_hal_dma_ex.c **** 
 1908              		.loc 1 609 36 view .LVU588
 1909 003c 22F48072 		bic	r2, r2, #256
 1910 0040 1A60     		str	r2, [r3]
 612:Drivers/STM32H7xx_HAL_Driver/Src/stm32h7xx_hal_dma_ex.c **** 
 1911              		.loc 1 612 7 is_stmt 1 view .LVU589
 612:Drivers/STM32H7xx_HAL_Driver/Src/stm32h7xx_hal_dma_ex.c **** 
 1912              		.loc 1 612 11 is_stmt 0 view .LVU590
 1913 0042 236F     		ldr	r3, [r4, #112]
 612:Drivers/STM32H7xx_HAL_Driver/Src/stm32h7xx_hal_dma_ex.c **** 
 1914              		.loc 1 612 49 view .LVU591
 1915 0044 626F     		ldr	r2, [r4, #116]
 612:Drivers/STM32H7xx_HAL_Driver/Src/stm32h7xx_hal_dma_ex.c **** 
 1916              		.loc 1 612 43 view .LVU592
 1917 0046 5A60     		str	r2, [r3, #4]
 615:Drivers/STM32H7xx_HAL_Driver/Src/stm32h7xx_hal_dma_ex.c **** 
 1918              		.loc 1 615 7 is_stmt 1 view .LVU593
 615:Drivers/STM32H7xx_HAL_Driver/Src/stm32h7xx_hal_dma_ex.c **** 
 1919              		.loc 1 615 11 is_stmt 0 view .LVU594
 1920 0048 636D     		ldr	r3, [r4, #84]
 615:Drivers/STM32H7xx_HAL_Driver/Src/stm32h7xx_hal_dma_ex.c **** 
 1921              		.loc 1 615 23 view .LVU595
 1922 004a 43F48063 		orr	r3, r3, #1024
 1923 004e 6365     		str	r3, [r4, #84]
 617:Drivers/STM32H7xx_HAL_Driver/Src/stm32h7xx_hal_dma_ex.c ****       {
 1924              		.loc 1 617 7 is_stmt 1 view .LVU596
 617:Drivers/STM32H7xx_HAL_Driver/Src/stm32h7xx_hal_dma_ex.c ****       {
 1925              		.loc 1 617 14 is_stmt 0 view .LVU597
 1926 0050 E36C     		ldr	r3, [r4, #76]
 617:Drivers/STM32H7xx_HAL_Driver/Src/stm32h7xx_hal_dma_ex.c ****       {
 1927              		.loc 1 617 9 view .LVU598
 1928 0052 0BB1     		cbz	r3, .L94
 620:Drivers/STM32H7xx_HAL_Driver/Src/stm32h7xx_hal_dma_ex.c ****       }
 1929              		.loc 1 620 9 is_stmt 1 view .LVU599
 1930 0054 2046     		mov	r0, r4
 1931 0056 9847     		blx	r3
 1932              	.LVL93:
 1933              	.L94:
 624:Drivers/STM32H7xx_HAL_Driver/Src/stm32h7xx_hal_dma_ex.c **** 
 1934              		.loc 1 624 1 is_stmt 0 view .LVU600
 1935 0058 10BD     		pop	{r4, pc}
 624:Drivers/STM32H7xx_HAL_Driver/Src/stm32h7xx_hal_dma_ex.c **** 
 1936              		.loc 1 624 1 view .LVU601
 1937              		.cfi_endproc
 1938              	.LFE344:
 1940              		.text
 1941              	.Letext0:
ARM GAS  /tmp/ccYmmrDD.s 			page 57


 1942              		.file 2 "/usr/arm-none-eabi/include/machine/_default_types.h"
 1943              		.file 3 "/usr/arm-none-eabi/include/sys/_stdint.h"
 1944              		.file 4 "Drivers/CMSIS/Device/ST/STM32H7xx/Include/stm32h743xx.h"
 1945              		.file 5 "Drivers/CMSIS/Device/ST/STM32H7xx/Include/stm32h7xx.h"
 1946              		.file 6 "Drivers/STM32H7xx_HAL_Driver/Inc/stm32h7xx_hal_def.h"
 1947              		.file 7 "Drivers/STM32H7xx_HAL_Driver/Inc/stm32h7xx_hal_dma.h"
 1948              		.file 8 "Drivers/STM32H7xx_HAL_Driver/Inc/stm32h7xx_hal_dma_ex.h"
ARM GAS  /tmp/ccYmmrDD.s 			page 58

