ARM GAS  /tmp/ccYwYWEs.s 			page 1


   1              		.cpu cortex-m7
   2              		.arch armv7e-m
   3              		.fpu fpv5-d16
   4              		.eabi_attribute 28, 1
   5              		.eabi_attribute 20, 1
   6              		.eabi_attribute 21, 1
   7              		.eabi_attribute 23, 3
   8              		.eabi_attribute 24, 1
   9              		.eabi_attribute 25, 1
  10              		.eabi_attribute 26, 1
  11              		.eabi_attribute 30, 1
  12              		.eabi_attribute 34, 1
  13              		.eabi_attribute 18, 4
  14              		.file	"stm32h7xx_hal_dcmi.c"
  15              		.text
  16              	.Ltext0:
  17              		.cfi_sections	.debug_frame
  18              		.file 1 "Drivers/STM32H7xx_HAL_Driver/Src/stm32h7xx_hal_dcmi.c"
  19              		.section	.text.DCMI_DMAXferCplt,"ax",%progbits
  20              		.align	1
  21              		.syntax unified
  22              		.thumb
  23              		.thumb_func
  25              	DCMI_DMAXferCplt:
  26              	.LVL0:
  27              	.LFB356:
   1:Drivers/STM32H7xx_HAL_Driver/Src/stm32h7xx_hal_dcmi.c **** /**
   2:Drivers/STM32H7xx_HAL_Driver/Src/stm32h7xx_hal_dcmi.c ****   ******************************************************************************
   3:Drivers/STM32H7xx_HAL_Driver/Src/stm32h7xx_hal_dcmi.c ****   * @file    stm32h7xx_hal_dcmi.c
   4:Drivers/STM32H7xx_HAL_Driver/Src/stm32h7xx_hal_dcmi.c ****   * @author  MCD Application Team
   5:Drivers/STM32H7xx_HAL_Driver/Src/stm32h7xx_hal_dcmi.c ****   * @brief   DCMI HAL module driver
   6:Drivers/STM32H7xx_HAL_Driver/Src/stm32h7xx_hal_dcmi.c ****   *          This file provides firmware functions to manage the following
   7:Drivers/STM32H7xx_HAL_Driver/Src/stm32h7xx_hal_dcmi.c ****   *          functionalities of the Digital Camera Interface (DCMI) peripheral:
   8:Drivers/STM32H7xx_HAL_Driver/Src/stm32h7xx_hal_dcmi.c ****   *           + Initialization and de-initialization functions
   9:Drivers/STM32H7xx_HAL_Driver/Src/stm32h7xx_hal_dcmi.c ****   *           + IO operation functions
  10:Drivers/STM32H7xx_HAL_Driver/Src/stm32h7xx_hal_dcmi.c ****   *           + Peripheral Control functions
  11:Drivers/STM32H7xx_HAL_Driver/Src/stm32h7xx_hal_dcmi.c ****   *           + Peripheral State and Error functions
  12:Drivers/STM32H7xx_HAL_Driver/Src/stm32h7xx_hal_dcmi.c ****   *
  13:Drivers/STM32H7xx_HAL_Driver/Src/stm32h7xx_hal_dcmi.c ****   ******************************************************************************
  14:Drivers/STM32H7xx_HAL_Driver/Src/stm32h7xx_hal_dcmi.c ****   * @attention
  15:Drivers/STM32H7xx_HAL_Driver/Src/stm32h7xx_hal_dcmi.c ****   *
  16:Drivers/STM32H7xx_HAL_Driver/Src/stm32h7xx_hal_dcmi.c ****   * Copyright (c) 2017 STMicroelectronics.
  17:Drivers/STM32H7xx_HAL_Driver/Src/stm32h7xx_hal_dcmi.c ****   * All rights reserved.
  18:Drivers/STM32H7xx_HAL_Driver/Src/stm32h7xx_hal_dcmi.c ****   *
  19:Drivers/STM32H7xx_HAL_Driver/Src/stm32h7xx_hal_dcmi.c ****   * This software is licensed under terms that can be found in the LICENSE file
  20:Drivers/STM32H7xx_HAL_Driver/Src/stm32h7xx_hal_dcmi.c ****   * in the root directory of this software component.
  21:Drivers/STM32H7xx_HAL_Driver/Src/stm32h7xx_hal_dcmi.c ****   * If no LICENSE file comes with this software, it is provided AS-IS.
  22:Drivers/STM32H7xx_HAL_Driver/Src/stm32h7xx_hal_dcmi.c ****   *
  23:Drivers/STM32H7xx_HAL_Driver/Src/stm32h7xx_hal_dcmi.c ****   ******************************************************************************
  24:Drivers/STM32H7xx_HAL_Driver/Src/stm32h7xx_hal_dcmi.c ****   @verbatim
  25:Drivers/STM32H7xx_HAL_Driver/Src/stm32h7xx_hal_dcmi.c ****   ==============================================================================
  26:Drivers/STM32H7xx_HAL_Driver/Src/stm32h7xx_hal_dcmi.c ****                         ##### How to use this driver #####
  27:Drivers/STM32H7xx_HAL_Driver/Src/stm32h7xx_hal_dcmi.c ****   ==============================================================================
  28:Drivers/STM32H7xx_HAL_Driver/Src/stm32h7xx_hal_dcmi.c ****   [..]
  29:Drivers/STM32H7xx_HAL_Driver/Src/stm32h7xx_hal_dcmi.c ****       The sequence below describes how to use this driver to capture image
  30:Drivers/STM32H7xx_HAL_Driver/Src/stm32h7xx_hal_dcmi.c ****       from a camera module connected to the DCMI Interface.
  31:Drivers/STM32H7xx_HAL_Driver/Src/stm32h7xx_hal_dcmi.c ****       This sequence does not take into account the configuration of the
ARM GAS  /tmp/ccYwYWEs.s 			page 2


  32:Drivers/STM32H7xx_HAL_Driver/Src/stm32h7xx_hal_dcmi.c ****       camera module, which should be made before to configure and enable
  33:Drivers/STM32H7xx_HAL_Driver/Src/stm32h7xx_hal_dcmi.c ****       the DCMI to capture images.
  34:Drivers/STM32H7xx_HAL_Driver/Src/stm32h7xx_hal_dcmi.c **** 
  35:Drivers/STM32H7xx_HAL_Driver/Src/stm32h7xx_hal_dcmi.c ****     (#) Program the required configuration through following parameters:
  36:Drivers/STM32H7xx_HAL_Driver/Src/stm32h7xx_hal_dcmi.c ****         horizontal and vertical polarity, pixel clock polarity, Capture Rate,
  37:Drivers/STM32H7xx_HAL_Driver/Src/stm32h7xx_hal_dcmi.c ****         Synchronization Mode, code of the frame delimiter and data width
  38:Drivers/STM32H7xx_HAL_Driver/Src/stm32h7xx_hal_dcmi.c ****         using HAL_DCMI_Init() function.
  39:Drivers/STM32H7xx_HAL_Driver/Src/stm32h7xx_hal_dcmi.c **** 
  40:Drivers/STM32H7xx_HAL_Driver/Src/stm32h7xx_hal_dcmi.c ****     (#) Configure the selected DMA stream to transfer Data from DCMI DR
  41:Drivers/STM32H7xx_HAL_Driver/Src/stm32h7xx_hal_dcmi.c ****         register to the destination memory buffer.
  42:Drivers/STM32H7xx_HAL_Driver/Src/stm32h7xx_hal_dcmi.c **** 
  43:Drivers/STM32H7xx_HAL_Driver/Src/stm32h7xx_hal_dcmi.c ****     (#) Program the required configuration through following parameters:
  44:Drivers/STM32H7xx_HAL_Driver/Src/stm32h7xx_hal_dcmi.c ****         DCMI mode, destination memory Buffer address and the data length
  45:Drivers/STM32H7xx_HAL_Driver/Src/stm32h7xx_hal_dcmi.c ****         and enable capture using HAL_DCMI_Start_DMA() function.
  46:Drivers/STM32H7xx_HAL_Driver/Src/stm32h7xx_hal_dcmi.c **** 
  47:Drivers/STM32H7xx_HAL_Driver/Src/stm32h7xx_hal_dcmi.c ****     (#) Optionally, configure and Enable the CROP feature to select a rectangular
  48:Drivers/STM32H7xx_HAL_Driver/Src/stm32h7xx_hal_dcmi.c ****         window from the received image using HAL_DCMI_ConfigCrop()
  49:Drivers/STM32H7xx_HAL_Driver/Src/stm32h7xx_hal_dcmi.c ****         and HAL_DCMI_EnableCrop() functions
  50:Drivers/STM32H7xx_HAL_Driver/Src/stm32h7xx_hal_dcmi.c **** 
  51:Drivers/STM32H7xx_HAL_Driver/Src/stm32h7xx_hal_dcmi.c ****     (#) The capture can be stopped using HAL_DCMI_Stop() function.
  52:Drivers/STM32H7xx_HAL_Driver/Src/stm32h7xx_hal_dcmi.c **** 
  53:Drivers/STM32H7xx_HAL_Driver/Src/stm32h7xx_hal_dcmi.c ****     (#) To control DCMI state you can use the function HAL_DCMI_GetState().
  54:Drivers/STM32H7xx_HAL_Driver/Src/stm32h7xx_hal_dcmi.c **** 
  55:Drivers/STM32H7xx_HAL_Driver/Src/stm32h7xx_hal_dcmi.c ****      *** Callback registration ***
  56:Drivers/STM32H7xx_HAL_Driver/Src/stm32h7xx_hal_dcmi.c ****      =============================================
  57:Drivers/STM32H7xx_HAL_Driver/Src/stm32h7xx_hal_dcmi.c **** 
  58:Drivers/STM32H7xx_HAL_Driver/Src/stm32h7xx_hal_dcmi.c ****      The compilation flag USE_HAL_DCMI_REGISTER_CALLBACKS when set to 1
  59:Drivers/STM32H7xx_HAL_Driver/Src/stm32h7xx_hal_dcmi.c ****      allows the user to configure dynamically the driver callbacks.
  60:Drivers/STM32H7xx_HAL_Driver/Src/stm32h7xx_hal_dcmi.c ****      Use Functions HAL_DCMI_RegisterCallback() to register an interrupt callback.
  61:Drivers/STM32H7xx_HAL_Driver/Src/stm32h7xx_hal_dcmi.c **** 
  62:Drivers/STM32H7xx_HAL_Driver/Src/stm32h7xx_hal_dcmi.c ****      Function HAL_DCMI_RegisterCallback() allows to register following callbacks:
  63:Drivers/STM32H7xx_HAL_Driver/Src/stm32h7xx_hal_dcmi.c ****        (+) LineEventCallback    : callback for DCMI line event.
  64:Drivers/STM32H7xx_HAL_Driver/Src/stm32h7xx_hal_dcmi.c ****        (+) FrameEventCallback   : callback for DCMI Frame event.
  65:Drivers/STM32H7xx_HAL_Driver/Src/stm32h7xx_hal_dcmi.c ****        (+) VsyncEventCallback   : callback for DCMI Vsync event.
  66:Drivers/STM32H7xx_HAL_Driver/Src/stm32h7xx_hal_dcmi.c ****        (+) ErrorCallback        : callback for error detection.
  67:Drivers/STM32H7xx_HAL_Driver/Src/stm32h7xx_hal_dcmi.c ****        (+) MspInitCallback      : callback for Msp Init.
  68:Drivers/STM32H7xx_HAL_Driver/Src/stm32h7xx_hal_dcmi.c ****        (+) MspDeInitCallback    : callback for Msp DeInit.
  69:Drivers/STM32H7xx_HAL_Driver/Src/stm32h7xx_hal_dcmi.c ****      This function takes as parameters the HAL peripheral handle, the Callback ID
  70:Drivers/STM32H7xx_HAL_Driver/Src/stm32h7xx_hal_dcmi.c ****      and a pointer to the user callback function.
  71:Drivers/STM32H7xx_HAL_Driver/Src/stm32h7xx_hal_dcmi.c **** 
  72:Drivers/STM32H7xx_HAL_Driver/Src/stm32h7xx_hal_dcmi.c ****      Use function HAL_DCMI_UnRegisterCallback to reset a callback to the default weak function.
  73:Drivers/STM32H7xx_HAL_Driver/Src/stm32h7xx_hal_dcmi.c ****      HAL_DCMI_UnRegisterCallback takes as parameters the HAL peripheral handle and the Callback ID.
  74:Drivers/STM32H7xx_HAL_Driver/Src/stm32h7xx_hal_dcmi.c ****      This function allows to reset following callbacks:
  75:Drivers/STM32H7xx_HAL_Driver/Src/stm32h7xx_hal_dcmi.c ****        (+) LineEventCallback    : callback for DCMI line event.
  76:Drivers/STM32H7xx_HAL_Driver/Src/stm32h7xx_hal_dcmi.c ****        (+) FrameEventCallback   : callback for DCMI Frame event.
  77:Drivers/STM32H7xx_HAL_Driver/Src/stm32h7xx_hal_dcmi.c ****        (+) VsyncEventCallback   : callback for DCMI Vsync event.
  78:Drivers/STM32H7xx_HAL_Driver/Src/stm32h7xx_hal_dcmi.c ****        (+) ErrorCallback        : callback for error detection.
  79:Drivers/STM32H7xx_HAL_Driver/Src/stm32h7xx_hal_dcmi.c ****        (+) MspInitCallback      : callback for Msp Init.
  80:Drivers/STM32H7xx_HAL_Driver/Src/stm32h7xx_hal_dcmi.c ****        (+) MspDeInitCallback    : callback for Msp DeInit.
  81:Drivers/STM32H7xx_HAL_Driver/Src/stm32h7xx_hal_dcmi.c **** 
  82:Drivers/STM32H7xx_HAL_Driver/Src/stm32h7xx_hal_dcmi.c ****      By default, after the HAL_DCMI_Init() and when the state is HAL_DCMI_STATE_RESET
  83:Drivers/STM32H7xx_HAL_Driver/Src/stm32h7xx_hal_dcmi.c ****      all callbacks are set to the corresponding weak functions:
  84:Drivers/STM32H7xx_HAL_Driver/Src/stm32h7xx_hal_dcmi.c ****      examples HAL_DCMI_LineEventCallback(), HAL_DCMI_FrameEventCallback().
  85:Drivers/STM32H7xx_HAL_Driver/Src/stm32h7xx_hal_dcmi.c ****      Exception done for MspInit and MspDeInit functions that are
  86:Drivers/STM32H7xx_HAL_Driver/Src/stm32h7xx_hal_dcmi.c ****      reset to the legacy weak functions in the HAL_DCMI_Init()/ HAL_DCMI_DeInit() only when
  87:Drivers/STM32H7xx_HAL_Driver/Src/stm32h7xx_hal_dcmi.c ****      these callbacks are null (not registered beforehand).
  88:Drivers/STM32H7xx_HAL_Driver/Src/stm32h7xx_hal_dcmi.c ****      If MspInit or MspDeInit are not null, the HAL_DCMI_Init()/ HAL_DCMI_DeInit()
ARM GAS  /tmp/ccYwYWEs.s 			page 3


  89:Drivers/STM32H7xx_HAL_Driver/Src/stm32h7xx_hal_dcmi.c ****      keep and use the user MspInit/MspDeInit callbacks (registered beforehand) whatever the state.
  90:Drivers/STM32H7xx_HAL_Driver/Src/stm32h7xx_hal_dcmi.c **** 
  91:Drivers/STM32H7xx_HAL_Driver/Src/stm32h7xx_hal_dcmi.c ****      Callbacks can be registered/unregistered in HAL_DCMI_STATE_READY state only.
  92:Drivers/STM32H7xx_HAL_Driver/Src/stm32h7xx_hal_dcmi.c ****      Exception done MspInit/MspDeInit functions that can be registered/unregistered
  93:Drivers/STM32H7xx_HAL_Driver/Src/stm32h7xx_hal_dcmi.c ****      in HAL_DCMI_STATE_READY or HAL_DCMI_STATE_RESET state,
  94:Drivers/STM32H7xx_HAL_Driver/Src/stm32h7xx_hal_dcmi.c ****      thus registered (user) MspInit/DeInit callbacks can be used during the Init/DeInit.
  95:Drivers/STM32H7xx_HAL_Driver/Src/stm32h7xx_hal_dcmi.c ****      In that case first register the MspInit/MspDeInit user callbacks
  96:Drivers/STM32H7xx_HAL_Driver/Src/stm32h7xx_hal_dcmi.c ****      using HAL_DCMI_RegisterCallback() before calling HAL_DCMI_DeInit() or HAL_DCMI_Init() function
  97:Drivers/STM32H7xx_HAL_Driver/Src/stm32h7xx_hal_dcmi.c **** 
  98:Drivers/STM32H7xx_HAL_Driver/Src/stm32h7xx_hal_dcmi.c ****      When the compilation flag USE_HAL_DCMI_REGISTER_CALLBACKS is set to 0 or
  99:Drivers/STM32H7xx_HAL_Driver/Src/stm32h7xx_hal_dcmi.c ****      not defined, the callback registration feature is not available and all callbacks
 100:Drivers/STM32H7xx_HAL_Driver/Src/stm32h7xx_hal_dcmi.c ****      are set to the corresponding weak functions.
 101:Drivers/STM32H7xx_HAL_Driver/Src/stm32h7xx_hal_dcmi.c **** 
 102:Drivers/STM32H7xx_HAL_Driver/Src/stm32h7xx_hal_dcmi.c ****      *** DCMI HAL driver macros list ***
 103:Drivers/STM32H7xx_HAL_Driver/Src/stm32h7xx_hal_dcmi.c ****      =============================================
 104:Drivers/STM32H7xx_HAL_Driver/Src/stm32h7xx_hal_dcmi.c ****      [..]
 105:Drivers/STM32H7xx_HAL_Driver/Src/stm32h7xx_hal_dcmi.c ****        Below the list of most used macros in DCMI HAL driver.
 106:Drivers/STM32H7xx_HAL_Driver/Src/stm32h7xx_hal_dcmi.c **** 
 107:Drivers/STM32H7xx_HAL_Driver/Src/stm32h7xx_hal_dcmi.c ****       (+) __HAL_DCMI_ENABLE: Enable the DCMI peripheral.
 108:Drivers/STM32H7xx_HAL_Driver/Src/stm32h7xx_hal_dcmi.c ****       (+) __HAL_DCMI_DISABLE: Disable the DCMI peripheral.
 109:Drivers/STM32H7xx_HAL_Driver/Src/stm32h7xx_hal_dcmi.c ****       (+) __HAL_DCMI_GET_FLAG: Get the DCMI pending flags.
 110:Drivers/STM32H7xx_HAL_Driver/Src/stm32h7xx_hal_dcmi.c ****       (+) __HAL_DCMI_CLEAR_FLAG: Clear the DCMI pending flags.
 111:Drivers/STM32H7xx_HAL_Driver/Src/stm32h7xx_hal_dcmi.c ****       (+) __HAL_DCMI_ENABLE_IT: Enable the specified DCMI interrupts.
 112:Drivers/STM32H7xx_HAL_Driver/Src/stm32h7xx_hal_dcmi.c ****       (+) __HAL_DCMI_DISABLE_IT: Disable the specified DCMI interrupts.
 113:Drivers/STM32H7xx_HAL_Driver/Src/stm32h7xx_hal_dcmi.c ****       (+) __HAL_DCMI_GET_IT_SOURCE: Check whether the specified DCMI interrupt has occurred or not.
 114:Drivers/STM32H7xx_HAL_Driver/Src/stm32h7xx_hal_dcmi.c **** 
 115:Drivers/STM32H7xx_HAL_Driver/Src/stm32h7xx_hal_dcmi.c ****      [..]
 116:Drivers/STM32H7xx_HAL_Driver/Src/stm32h7xx_hal_dcmi.c ****        (@) You can refer to the DCMI HAL driver header file for more useful macros
 117:Drivers/STM32H7xx_HAL_Driver/Src/stm32h7xx_hal_dcmi.c **** 
 118:Drivers/STM32H7xx_HAL_Driver/Src/stm32h7xx_hal_dcmi.c ****   @endverbatim
 119:Drivers/STM32H7xx_HAL_Driver/Src/stm32h7xx_hal_dcmi.c ****   */
 120:Drivers/STM32H7xx_HAL_Driver/Src/stm32h7xx_hal_dcmi.c **** 
 121:Drivers/STM32H7xx_HAL_Driver/Src/stm32h7xx_hal_dcmi.c **** /* Includes ------------------------------------------------------------------*/
 122:Drivers/STM32H7xx_HAL_Driver/Src/stm32h7xx_hal_dcmi.c **** #include "stm32h7xx_hal.h"
 123:Drivers/STM32H7xx_HAL_Driver/Src/stm32h7xx_hal_dcmi.c **** 
 124:Drivers/STM32H7xx_HAL_Driver/Src/stm32h7xx_hal_dcmi.c **** /** @addtogroup STM32H7xx_HAL_Driver
 125:Drivers/STM32H7xx_HAL_Driver/Src/stm32h7xx_hal_dcmi.c ****   * @{
 126:Drivers/STM32H7xx_HAL_Driver/Src/stm32h7xx_hal_dcmi.c ****   */
 127:Drivers/STM32H7xx_HAL_Driver/Src/stm32h7xx_hal_dcmi.c **** /** @defgroup DCMI DCMI
 128:Drivers/STM32H7xx_HAL_Driver/Src/stm32h7xx_hal_dcmi.c ****   * @brief DCMI HAL module driver
 129:Drivers/STM32H7xx_HAL_Driver/Src/stm32h7xx_hal_dcmi.c ****   * @{
 130:Drivers/STM32H7xx_HAL_Driver/Src/stm32h7xx_hal_dcmi.c ****   */
 131:Drivers/STM32H7xx_HAL_Driver/Src/stm32h7xx_hal_dcmi.c **** 
 132:Drivers/STM32H7xx_HAL_Driver/Src/stm32h7xx_hal_dcmi.c **** #ifdef HAL_DCMI_MODULE_ENABLED
 133:Drivers/STM32H7xx_HAL_Driver/Src/stm32h7xx_hal_dcmi.c **** #if defined (DCMI)
 134:Drivers/STM32H7xx_HAL_Driver/Src/stm32h7xx_hal_dcmi.c **** 
 135:Drivers/STM32H7xx_HAL_Driver/Src/stm32h7xx_hal_dcmi.c **** /* Private typedef -----------------------------------------------------------*/
 136:Drivers/STM32H7xx_HAL_Driver/Src/stm32h7xx_hal_dcmi.c **** /* Private define ------------------------------------------------------------*/
 137:Drivers/STM32H7xx_HAL_Driver/Src/stm32h7xx_hal_dcmi.c **** /** @addtogroup DCMI_Private_Defines
 138:Drivers/STM32H7xx_HAL_Driver/Src/stm32h7xx_hal_dcmi.c ****   * @{
 139:Drivers/STM32H7xx_HAL_Driver/Src/stm32h7xx_hal_dcmi.c ****   */
 140:Drivers/STM32H7xx_HAL_Driver/Src/stm32h7xx_hal_dcmi.c **** #define HAL_TIMEOUT_DCMI_STOP    ((uint32_t)1000) /* Set timeout to 1s  */
 141:Drivers/STM32H7xx_HAL_Driver/Src/stm32h7xx_hal_dcmi.c **** /**
 142:Drivers/STM32H7xx_HAL_Driver/Src/stm32h7xx_hal_dcmi.c ****   * @}
 143:Drivers/STM32H7xx_HAL_Driver/Src/stm32h7xx_hal_dcmi.c ****   */
 144:Drivers/STM32H7xx_HAL_Driver/Src/stm32h7xx_hal_dcmi.c **** /* Private macro -------------------------------------------------------------*/
 145:Drivers/STM32H7xx_HAL_Driver/Src/stm32h7xx_hal_dcmi.c **** /* Private variables ---------------------------------------------------------*/
ARM GAS  /tmp/ccYwYWEs.s 			page 4


 146:Drivers/STM32H7xx_HAL_Driver/Src/stm32h7xx_hal_dcmi.c **** /* Private function prototypes -----------------------------------------------*/
 147:Drivers/STM32H7xx_HAL_Driver/Src/stm32h7xx_hal_dcmi.c **** static void       DCMI_DMAXferCplt(DMA_HandleTypeDef *hdma);
 148:Drivers/STM32H7xx_HAL_Driver/Src/stm32h7xx_hal_dcmi.c **** static void       DCMI_DMAError(DMA_HandleTypeDef *hdma);
 149:Drivers/STM32H7xx_HAL_Driver/Src/stm32h7xx_hal_dcmi.c **** 
 150:Drivers/STM32H7xx_HAL_Driver/Src/stm32h7xx_hal_dcmi.c **** /* Exported functions --------------------------------------------------------*/
 151:Drivers/STM32H7xx_HAL_Driver/Src/stm32h7xx_hal_dcmi.c **** 
 152:Drivers/STM32H7xx_HAL_Driver/Src/stm32h7xx_hal_dcmi.c **** /** @defgroup DCMI_Exported_Functions DCMI Exported Functions
 153:Drivers/STM32H7xx_HAL_Driver/Src/stm32h7xx_hal_dcmi.c ****   * @{
 154:Drivers/STM32H7xx_HAL_Driver/Src/stm32h7xx_hal_dcmi.c ****   */
 155:Drivers/STM32H7xx_HAL_Driver/Src/stm32h7xx_hal_dcmi.c **** 
 156:Drivers/STM32H7xx_HAL_Driver/Src/stm32h7xx_hal_dcmi.c **** /** @defgroup DCMI_Exported_Functions_Group1 Initialization and Configuration functions
 157:Drivers/STM32H7xx_HAL_Driver/Src/stm32h7xx_hal_dcmi.c ****  *  @brief   Initialization and Configuration functions
 158:Drivers/STM32H7xx_HAL_Driver/Src/stm32h7xx_hal_dcmi.c ****  *
 159:Drivers/STM32H7xx_HAL_Driver/Src/stm32h7xx_hal_dcmi.c **** @verbatim
 160:Drivers/STM32H7xx_HAL_Driver/Src/stm32h7xx_hal_dcmi.c ****  ===============================================================================
 161:Drivers/STM32H7xx_HAL_Driver/Src/stm32h7xx_hal_dcmi.c ****                 ##### Initialization and Configuration functions #####
 162:Drivers/STM32H7xx_HAL_Driver/Src/stm32h7xx_hal_dcmi.c ****  ===============================================================================
 163:Drivers/STM32H7xx_HAL_Driver/Src/stm32h7xx_hal_dcmi.c ****     [..]  This section provides functions allowing to:
 164:Drivers/STM32H7xx_HAL_Driver/Src/stm32h7xx_hal_dcmi.c ****       (+) Initialize and configure the DCMI
 165:Drivers/STM32H7xx_HAL_Driver/Src/stm32h7xx_hal_dcmi.c ****       (+) De-initialize the DCMI
 166:Drivers/STM32H7xx_HAL_Driver/Src/stm32h7xx_hal_dcmi.c **** 
 167:Drivers/STM32H7xx_HAL_Driver/Src/stm32h7xx_hal_dcmi.c **** @endverbatim
 168:Drivers/STM32H7xx_HAL_Driver/Src/stm32h7xx_hal_dcmi.c ****   * @{
 169:Drivers/STM32H7xx_HAL_Driver/Src/stm32h7xx_hal_dcmi.c ****   */
 170:Drivers/STM32H7xx_HAL_Driver/Src/stm32h7xx_hal_dcmi.c **** 
 171:Drivers/STM32H7xx_HAL_Driver/Src/stm32h7xx_hal_dcmi.c **** /**
 172:Drivers/STM32H7xx_HAL_Driver/Src/stm32h7xx_hal_dcmi.c ****   * @brief  Initializes the DCMI according to the specified
 173:Drivers/STM32H7xx_HAL_Driver/Src/stm32h7xx_hal_dcmi.c ****   *         parameters in the DCMI_InitTypeDef and create the associated handle.
 174:Drivers/STM32H7xx_HAL_Driver/Src/stm32h7xx_hal_dcmi.c ****   * @param  hdcmi pointer to a DCMI_HandleTypeDef structure that contains
 175:Drivers/STM32H7xx_HAL_Driver/Src/stm32h7xx_hal_dcmi.c ****   *                the configuration information for DCMI.
 176:Drivers/STM32H7xx_HAL_Driver/Src/stm32h7xx_hal_dcmi.c ****   * @retval HAL status
 177:Drivers/STM32H7xx_HAL_Driver/Src/stm32h7xx_hal_dcmi.c ****   */
 178:Drivers/STM32H7xx_HAL_Driver/Src/stm32h7xx_hal_dcmi.c **** HAL_StatusTypeDef HAL_DCMI_Init(DCMI_HandleTypeDef *hdcmi)
 179:Drivers/STM32H7xx_HAL_Driver/Src/stm32h7xx_hal_dcmi.c **** {
 180:Drivers/STM32H7xx_HAL_Driver/Src/stm32h7xx_hal_dcmi.c ****   /* Check the DCMI peripheral state */
 181:Drivers/STM32H7xx_HAL_Driver/Src/stm32h7xx_hal_dcmi.c ****   if (hdcmi == NULL)
 182:Drivers/STM32H7xx_HAL_Driver/Src/stm32h7xx_hal_dcmi.c ****   {
 183:Drivers/STM32H7xx_HAL_Driver/Src/stm32h7xx_hal_dcmi.c ****     return HAL_ERROR;
 184:Drivers/STM32H7xx_HAL_Driver/Src/stm32h7xx_hal_dcmi.c ****   }
 185:Drivers/STM32H7xx_HAL_Driver/Src/stm32h7xx_hal_dcmi.c **** 
 186:Drivers/STM32H7xx_HAL_Driver/Src/stm32h7xx_hal_dcmi.c ****   /* Check function parameters */
 187:Drivers/STM32H7xx_HAL_Driver/Src/stm32h7xx_hal_dcmi.c ****   assert_param(IS_DCMI_ALL_INSTANCE(hdcmi->Instance));
 188:Drivers/STM32H7xx_HAL_Driver/Src/stm32h7xx_hal_dcmi.c ****   assert_param(IS_DCMI_PCKPOLARITY(hdcmi->Init.PCKPolarity));
 189:Drivers/STM32H7xx_HAL_Driver/Src/stm32h7xx_hal_dcmi.c ****   assert_param(IS_DCMI_VSPOLARITY(hdcmi->Init.VSPolarity));
 190:Drivers/STM32H7xx_HAL_Driver/Src/stm32h7xx_hal_dcmi.c ****   assert_param(IS_DCMI_HSPOLARITY(hdcmi->Init.HSPolarity));
 191:Drivers/STM32H7xx_HAL_Driver/Src/stm32h7xx_hal_dcmi.c ****   assert_param(IS_DCMI_SYNCHRO(hdcmi->Init.SynchroMode));
 192:Drivers/STM32H7xx_HAL_Driver/Src/stm32h7xx_hal_dcmi.c ****   assert_param(IS_DCMI_CAPTURE_RATE(hdcmi->Init.CaptureRate));
 193:Drivers/STM32H7xx_HAL_Driver/Src/stm32h7xx_hal_dcmi.c ****   assert_param(IS_DCMI_EXTENDED_DATA(hdcmi->Init.ExtendedDataMode));
 194:Drivers/STM32H7xx_HAL_Driver/Src/stm32h7xx_hal_dcmi.c ****   assert_param(IS_DCMI_MODE_JPEG(hdcmi->Init.JPEGMode));
 195:Drivers/STM32H7xx_HAL_Driver/Src/stm32h7xx_hal_dcmi.c **** 
 196:Drivers/STM32H7xx_HAL_Driver/Src/stm32h7xx_hal_dcmi.c ****   assert_param(IS_DCMI_BYTE_SELECT_MODE(hdcmi->Init.ByteSelectMode));
 197:Drivers/STM32H7xx_HAL_Driver/Src/stm32h7xx_hal_dcmi.c ****   assert_param(IS_DCMI_BYTE_SELECT_START(hdcmi->Init.ByteSelectStart));
 198:Drivers/STM32H7xx_HAL_Driver/Src/stm32h7xx_hal_dcmi.c ****   assert_param(IS_DCMI_LINE_SELECT_MODE(hdcmi->Init.LineSelectMode));
 199:Drivers/STM32H7xx_HAL_Driver/Src/stm32h7xx_hal_dcmi.c ****   assert_param(IS_DCMI_LINE_SELECT_START(hdcmi->Init.LineSelectStart));
 200:Drivers/STM32H7xx_HAL_Driver/Src/stm32h7xx_hal_dcmi.c **** 
 201:Drivers/STM32H7xx_HAL_Driver/Src/stm32h7xx_hal_dcmi.c ****   if (hdcmi->State == HAL_DCMI_STATE_RESET)
 202:Drivers/STM32H7xx_HAL_Driver/Src/stm32h7xx_hal_dcmi.c ****   {
ARM GAS  /tmp/ccYwYWEs.s 			page 5


 203:Drivers/STM32H7xx_HAL_Driver/Src/stm32h7xx_hal_dcmi.c ****     /* Init the DCMI Callback settings */
 204:Drivers/STM32H7xx_HAL_Driver/Src/stm32h7xx_hal_dcmi.c **** #if (USE_HAL_DCMI_REGISTER_CALLBACKS == 1)
 205:Drivers/STM32H7xx_HAL_Driver/Src/stm32h7xx_hal_dcmi.c ****     /* Reset callback pointers to the weak predefined callbacks */
 206:Drivers/STM32H7xx_HAL_Driver/Src/stm32h7xx_hal_dcmi.c ****     hdcmi->FrameEventCallback = HAL_DCMI_FrameEventCallback; /* Legacy weak FrameEventCallback  */
 207:Drivers/STM32H7xx_HAL_Driver/Src/stm32h7xx_hal_dcmi.c ****     hdcmi->VsyncEventCallback = HAL_DCMI_VsyncEventCallback; /* Legacy weak VsyncEventCallback  */
 208:Drivers/STM32H7xx_HAL_Driver/Src/stm32h7xx_hal_dcmi.c ****     hdcmi->LineEventCallback  = HAL_DCMI_LineEventCallback;  /* Legacy weak LineEventCallback   */
 209:Drivers/STM32H7xx_HAL_Driver/Src/stm32h7xx_hal_dcmi.c ****     hdcmi->ErrorCallback      = HAL_DCMI_ErrorCallback;      /* Legacy weak ErrorCallback       */
 210:Drivers/STM32H7xx_HAL_Driver/Src/stm32h7xx_hal_dcmi.c **** 
 211:Drivers/STM32H7xx_HAL_Driver/Src/stm32h7xx_hal_dcmi.c ****     if (hdcmi->MspInitCallback == NULL)
 212:Drivers/STM32H7xx_HAL_Driver/Src/stm32h7xx_hal_dcmi.c ****     {
 213:Drivers/STM32H7xx_HAL_Driver/Src/stm32h7xx_hal_dcmi.c ****       /* Legacy weak MspInit Callback        */
 214:Drivers/STM32H7xx_HAL_Driver/Src/stm32h7xx_hal_dcmi.c ****       hdcmi->MspInitCallback = HAL_DCMI_MspInit;
 215:Drivers/STM32H7xx_HAL_Driver/Src/stm32h7xx_hal_dcmi.c ****     }
 216:Drivers/STM32H7xx_HAL_Driver/Src/stm32h7xx_hal_dcmi.c ****     /* Initialize the low level hardware (MSP) */
 217:Drivers/STM32H7xx_HAL_Driver/Src/stm32h7xx_hal_dcmi.c ****     hdcmi->MspInitCallback(hdcmi);
 218:Drivers/STM32H7xx_HAL_Driver/Src/stm32h7xx_hal_dcmi.c **** #else
 219:Drivers/STM32H7xx_HAL_Driver/Src/stm32h7xx_hal_dcmi.c ****     /* Init the low level hardware : GPIO, CLOCK, NVIC and DMA */
 220:Drivers/STM32H7xx_HAL_Driver/Src/stm32h7xx_hal_dcmi.c ****     HAL_DCMI_MspInit(hdcmi);
 221:Drivers/STM32H7xx_HAL_Driver/Src/stm32h7xx_hal_dcmi.c **** #endif /* (USE_HAL_DCMI_REGISTER_CALLBACKS) */
 222:Drivers/STM32H7xx_HAL_Driver/Src/stm32h7xx_hal_dcmi.c ****   }
 223:Drivers/STM32H7xx_HAL_Driver/Src/stm32h7xx_hal_dcmi.c **** 
 224:Drivers/STM32H7xx_HAL_Driver/Src/stm32h7xx_hal_dcmi.c ****   /* Change the DCMI state */
 225:Drivers/STM32H7xx_HAL_Driver/Src/stm32h7xx_hal_dcmi.c ****   hdcmi->State = HAL_DCMI_STATE_BUSY;
 226:Drivers/STM32H7xx_HAL_Driver/Src/stm32h7xx_hal_dcmi.c **** 
 227:Drivers/STM32H7xx_HAL_Driver/Src/stm32h7xx_hal_dcmi.c ****   if (hdcmi->Init.ExtendedDataMode != DCMI_EXTEND_DATA_8B)
 228:Drivers/STM32H7xx_HAL_Driver/Src/stm32h7xx_hal_dcmi.c ****   {
 229:Drivers/STM32H7xx_HAL_Driver/Src/stm32h7xx_hal_dcmi.c ****     /* Byte select mode must be programmed to the reset value if the extended mode
 230:Drivers/STM32H7xx_HAL_Driver/Src/stm32h7xx_hal_dcmi.c ****     is not set to 8-bit data capture on every pixel clock */
 231:Drivers/STM32H7xx_HAL_Driver/Src/stm32h7xx_hal_dcmi.c ****     hdcmi->Init.ByteSelectMode = DCMI_BSM_ALL;
 232:Drivers/STM32H7xx_HAL_Driver/Src/stm32h7xx_hal_dcmi.c ****   }
 233:Drivers/STM32H7xx_HAL_Driver/Src/stm32h7xx_hal_dcmi.c ****   /* Configures the HS, VS, DE and PC polarity */
 234:Drivers/STM32H7xx_HAL_Driver/Src/stm32h7xx_hal_dcmi.c ****   hdcmi->Instance->CR &= ~(DCMI_CR_PCKPOL | DCMI_CR_HSPOL  | DCMI_CR_VSPOL  | DCMI_CR_EDM_0 | \
 235:Drivers/STM32H7xx_HAL_Driver/Src/stm32h7xx_hal_dcmi.c ****                            DCMI_CR_EDM_1  | DCMI_CR_FCRC_0 | DCMI_CR_FCRC_1 | DCMI_CR_JPEG  | \
 236:Drivers/STM32H7xx_HAL_Driver/Src/stm32h7xx_hal_dcmi.c ****                            DCMI_CR_ESS | DCMI_CR_BSM_0 | DCMI_CR_BSM_1 | DCMI_CR_OEBS | \
 237:Drivers/STM32H7xx_HAL_Driver/Src/stm32h7xx_hal_dcmi.c ****                            DCMI_CR_LSM | DCMI_CR_OELS);
 238:Drivers/STM32H7xx_HAL_Driver/Src/stm32h7xx_hal_dcmi.c **** 
 239:Drivers/STM32H7xx_HAL_Driver/Src/stm32h7xx_hal_dcmi.c ****   hdcmi->Instance->CR |= (uint32_t)(hdcmi->Init.SynchroMode | hdcmi->Init.CaptureRate | \
 240:Drivers/STM32H7xx_HAL_Driver/Src/stm32h7xx_hal_dcmi.c ****                                     hdcmi->Init.VSPolarity  | hdcmi->Init.HSPolarity  | \
 241:Drivers/STM32H7xx_HAL_Driver/Src/stm32h7xx_hal_dcmi.c ****                                     hdcmi->Init.PCKPolarity | hdcmi->Init.ExtendedDataMode | \
 242:Drivers/STM32H7xx_HAL_Driver/Src/stm32h7xx_hal_dcmi.c ****                                     hdcmi->Init.JPEGMode | hdcmi->Init.ByteSelectMode | \
 243:Drivers/STM32H7xx_HAL_Driver/Src/stm32h7xx_hal_dcmi.c ****                                     hdcmi->Init.ByteSelectStart | hdcmi->Init.LineSelectMode | \
 244:Drivers/STM32H7xx_HAL_Driver/Src/stm32h7xx_hal_dcmi.c ****                                     hdcmi->Init.LineSelectStart);
 245:Drivers/STM32H7xx_HAL_Driver/Src/stm32h7xx_hal_dcmi.c **** 
 246:Drivers/STM32H7xx_HAL_Driver/Src/stm32h7xx_hal_dcmi.c ****   if (hdcmi->Init.SynchroMode == DCMI_SYNCHRO_EMBEDDED)
 247:Drivers/STM32H7xx_HAL_Driver/Src/stm32h7xx_hal_dcmi.c ****   {
 248:Drivers/STM32H7xx_HAL_Driver/Src/stm32h7xx_hal_dcmi.c ****     hdcmi->Instance->ESCR = (((uint32_t)hdcmi->Init.SyncroCode.FrameStartCode)    | \
 249:Drivers/STM32H7xx_HAL_Driver/Src/stm32h7xx_hal_dcmi.c ****                              ((uint32_t)hdcmi->Init.SyncroCode.LineStartCode << DCMI_ESCR_LSC_Pos) 
 250:Drivers/STM32H7xx_HAL_Driver/Src/stm32h7xx_hal_dcmi.c ****                              ((uint32_t)hdcmi->Init.SyncroCode.LineEndCode << DCMI_ESCR_LEC_Pos) | 
 251:Drivers/STM32H7xx_HAL_Driver/Src/stm32h7xx_hal_dcmi.c ****                              ((uint32_t)hdcmi->Init.SyncroCode.FrameEndCode << DCMI_ESCR_FEC_Pos));
 252:Drivers/STM32H7xx_HAL_Driver/Src/stm32h7xx_hal_dcmi.c **** 
 253:Drivers/STM32H7xx_HAL_Driver/Src/stm32h7xx_hal_dcmi.c ****   }
 254:Drivers/STM32H7xx_HAL_Driver/Src/stm32h7xx_hal_dcmi.c **** 
 255:Drivers/STM32H7xx_HAL_Driver/Src/stm32h7xx_hal_dcmi.c ****   /* Enable the Line, Vsync, Error and Overrun interrupts */
 256:Drivers/STM32H7xx_HAL_Driver/Src/stm32h7xx_hal_dcmi.c ****   __HAL_DCMI_ENABLE_IT(hdcmi, DCMI_IT_LINE | DCMI_IT_VSYNC | DCMI_IT_ERR | DCMI_IT_OVR);
 257:Drivers/STM32H7xx_HAL_Driver/Src/stm32h7xx_hal_dcmi.c **** 
 258:Drivers/STM32H7xx_HAL_Driver/Src/stm32h7xx_hal_dcmi.c ****   /* Update error code */
 259:Drivers/STM32H7xx_HAL_Driver/Src/stm32h7xx_hal_dcmi.c ****   hdcmi->ErrorCode = HAL_DCMI_ERROR_NONE;
ARM GAS  /tmp/ccYwYWEs.s 			page 6


 260:Drivers/STM32H7xx_HAL_Driver/Src/stm32h7xx_hal_dcmi.c **** 
 261:Drivers/STM32H7xx_HAL_Driver/Src/stm32h7xx_hal_dcmi.c ****   /* Initialize the DCMI state*/
 262:Drivers/STM32H7xx_HAL_Driver/Src/stm32h7xx_hal_dcmi.c ****   hdcmi->State  = HAL_DCMI_STATE_READY;
 263:Drivers/STM32H7xx_HAL_Driver/Src/stm32h7xx_hal_dcmi.c **** 
 264:Drivers/STM32H7xx_HAL_Driver/Src/stm32h7xx_hal_dcmi.c ****   return HAL_OK;
 265:Drivers/STM32H7xx_HAL_Driver/Src/stm32h7xx_hal_dcmi.c **** }
 266:Drivers/STM32H7xx_HAL_Driver/Src/stm32h7xx_hal_dcmi.c **** 
 267:Drivers/STM32H7xx_HAL_Driver/Src/stm32h7xx_hal_dcmi.c **** /**
 268:Drivers/STM32H7xx_HAL_Driver/Src/stm32h7xx_hal_dcmi.c ****   * @brief  Deinitializes the DCMI peripheral registers to their default reset
 269:Drivers/STM32H7xx_HAL_Driver/Src/stm32h7xx_hal_dcmi.c ****   *         values.
 270:Drivers/STM32H7xx_HAL_Driver/Src/stm32h7xx_hal_dcmi.c ****   * @param  hdcmi pointer to a DCMI_HandleTypeDef structure that contains
 271:Drivers/STM32H7xx_HAL_Driver/Src/stm32h7xx_hal_dcmi.c ****   *                the configuration information for DCMI.
 272:Drivers/STM32H7xx_HAL_Driver/Src/stm32h7xx_hal_dcmi.c ****   * @retval HAL status
 273:Drivers/STM32H7xx_HAL_Driver/Src/stm32h7xx_hal_dcmi.c ****   */
 274:Drivers/STM32H7xx_HAL_Driver/Src/stm32h7xx_hal_dcmi.c **** 
 275:Drivers/STM32H7xx_HAL_Driver/Src/stm32h7xx_hal_dcmi.c **** HAL_StatusTypeDef HAL_DCMI_DeInit(DCMI_HandleTypeDef *hdcmi)
 276:Drivers/STM32H7xx_HAL_Driver/Src/stm32h7xx_hal_dcmi.c **** {
 277:Drivers/STM32H7xx_HAL_Driver/Src/stm32h7xx_hal_dcmi.c **** #if (USE_HAL_DCMI_REGISTER_CALLBACKS == 1)
 278:Drivers/STM32H7xx_HAL_Driver/Src/stm32h7xx_hal_dcmi.c ****   if (hdcmi->MspDeInitCallback == NULL)
 279:Drivers/STM32H7xx_HAL_Driver/Src/stm32h7xx_hal_dcmi.c ****   {
 280:Drivers/STM32H7xx_HAL_Driver/Src/stm32h7xx_hal_dcmi.c ****     hdcmi->MspDeInitCallback = HAL_DCMI_MspDeInit;
 281:Drivers/STM32H7xx_HAL_Driver/Src/stm32h7xx_hal_dcmi.c ****   }
 282:Drivers/STM32H7xx_HAL_Driver/Src/stm32h7xx_hal_dcmi.c ****   /* De-Initialize the low level hardware (MSP) */
 283:Drivers/STM32H7xx_HAL_Driver/Src/stm32h7xx_hal_dcmi.c ****   hdcmi->MspDeInitCallback(hdcmi);
 284:Drivers/STM32H7xx_HAL_Driver/Src/stm32h7xx_hal_dcmi.c **** #else
 285:Drivers/STM32H7xx_HAL_Driver/Src/stm32h7xx_hal_dcmi.c ****   /* DeInit the low level hardware: GPIO, CLOCK, NVIC and DMA */
 286:Drivers/STM32H7xx_HAL_Driver/Src/stm32h7xx_hal_dcmi.c ****   HAL_DCMI_MspDeInit(hdcmi);
 287:Drivers/STM32H7xx_HAL_Driver/Src/stm32h7xx_hal_dcmi.c **** #endif /* (USE_HAL_DCMI_REGISTER_CALLBACKS) */
 288:Drivers/STM32H7xx_HAL_Driver/Src/stm32h7xx_hal_dcmi.c **** 
 289:Drivers/STM32H7xx_HAL_Driver/Src/stm32h7xx_hal_dcmi.c ****   /* Update error code */
 290:Drivers/STM32H7xx_HAL_Driver/Src/stm32h7xx_hal_dcmi.c ****   hdcmi->ErrorCode = HAL_DCMI_ERROR_NONE;
 291:Drivers/STM32H7xx_HAL_Driver/Src/stm32h7xx_hal_dcmi.c **** 
 292:Drivers/STM32H7xx_HAL_Driver/Src/stm32h7xx_hal_dcmi.c ****   /* Initialize the DCMI state*/
 293:Drivers/STM32H7xx_HAL_Driver/Src/stm32h7xx_hal_dcmi.c ****   hdcmi->State = HAL_DCMI_STATE_RESET;
 294:Drivers/STM32H7xx_HAL_Driver/Src/stm32h7xx_hal_dcmi.c **** 
 295:Drivers/STM32H7xx_HAL_Driver/Src/stm32h7xx_hal_dcmi.c ****   /* Release Lock */
 296:Drivers/STM32H7xx_HAL_Driver/Src/stm32h7xx_hal_dcmi.c ****   __HAL_UNLOCK(hdcmi);
 297:Drivers/STM32H7xx_HAL_Driver/Src/stm32h7xx_hal_dcmi.c **** 
 298:Drivers/STM32H7xx_HAL_Driver/Src/stm32h7xx_hal_dcmi.c ****   return HAL_OK;
 299:Drivers/STM32H7xx_HAL_Driver/Src/stm32h7xx_hal_dcmi.c **** }
 300:Drivers/STM32H7xx_HAL_Driver/Src/stm32h7xx_hal_dcmi.c **** 
 301:Drivers/STM32H7xx_HAL_Driver/Src/stm32h7xx_hal_dcmi.c **** /**
 302:Drivers/STM32H7xx_HAL_Driver/Src/stm32h7xx_hal_dcmi.c ****   * @brief  Initializes the DCMI MSP.
 303:Drivers/STM32H7xx_HAL_Driver/Src/stm32h7xx_hal_dcmi.c ****   * @param  hdcmi pointer to a DCMI_HandleTypeDef structure that contains
 304:Drivers/STM32H7xx_HAL_Driver/Src/stm32h7xx_hal_dcmi.c ****   *                the configuration information for DCMI.
 305:Drivers/STM32H7xx_HAL_Driver/Src/stm32h7xx_hal_dcmi.c ****   * @retval None
 306:Drivers/STM32H7xx_HAL_Driver/Src/stm32h7xx_hal_dcmi.c ****   */
 307:Drivers/STM32H7xx_HAL_Driver/Src/stm32h7xx_hal_dcmi.c **** __weak void HAL_DCMI_MspInit(DCMI_HandleTypeDef *hdcmi)
 308:Drivers/STM32H7xx_HAL_Driver/Src/stm32h7xx_hal_dcmi.c **** {
 309:Drivers/STM32H7xx_HAL_Driver/Src/stm32h7xx_hal_dcmi.c ****   /* Prevent unused argument(s) compilation warning */
 310:Drivers/STM32H7xx_HAL_Driver/Src/stm32h7xx_hal_dcmi.c ****   UNUSED(hdcmi);
 311:Drivers/STM32H7xx_HAL_Driver/Src/stm32h7xx_hal_dcmi.c **** 
 312:Drivers/STM32H7xx_HAL_Driver/Src/stm32h7xx_hal_dcmi.c ****   /* NOTE : This function Should not be modified, when the callback is needed,
 313:Drivers/STM32H7xx_HAL_Driver/Src/stm32h7xx_hal_dcmi.c ****             the HAL_DCMI_MspInit could be implemented in the user file
 314:Drivers/STM32H7xx_HAL_Driver/Src/stm32h7xx_hal_dcmi.c ****    */
 315:Drivers/STM32H7xx_HAL_Driver/Src/stm32h7xx_hal_dcmi.c **** }
 316:Drivers/STM32H7xx_HAL_Driver/Src/stm32h7xx_hal_dcmi.c **** 
ARM GAS  /tmp/ccYwYWEs.s 			page 7


 317:Drivers/STM32H7xx_HAL_Driver/Src/stm32h7xx_hal_dcmi.c **** /**
 318:Drivers/STM32H7xx_HAL_Driver/Src/stm32h7xx_hal_dcmi.c ****   * @brief  DeInitializes the DCMI MSP.
 319:Drivers/STM32H7xx_HAL_Driver/Src/stm32h7xx_hal_dcmi.c ****   * @param  hdcmi pointer to a DCMI_HandleTypeDef structure that contains
 320:Drivers/STM32H7xx_HAL_Driver/Src/stm32h7xx_hal_dcmi.c ****   *                the configuration information for DCMI.
 321:Drivers/STM32H7xx_HAL_Driver/Src/stm32h7xx_hal_dcmi.c ****   * @retval None
 322:Drivers/STM32H7xx_HAL_Driver/Src/stm32h7xx_hal_dcmi.c ****   */
 323:Drivers/STM32H7xx_HAL_Driver/Src/stm32h7xx_hal_dcmi.c **** __weak void HAL_DCMI_MspDeInit(DCMI_HandleTypeDef *hdcmi)
 324:Drivers/STM32H7xx_HAL_Driver/Src/stm32h7xx_hal_dcmi.c **** {
 325:Drivers/STM32H7xx_HAL_Driver/Src/stm32h7xx_hal_dcmi.c ****   /* Prevent unused argument(s) compilation warning */
 326:Drivers/STM32H7xx_HAL_Driver/Src/stm32h7xx_hal_dcmi.c ****   UNUSED(hdcmi);
 327:Drivers/STM32H7xx_HAL_Driver/Src/stm32h7xx_hal_dcmi.c **** 
 328:Drivers/STM32H7xx_HAL_Driver/Src/stm32h7xx_hal_dcmi.c ****   /* NOTE : This function Should not be modified, when the callback is needed,
 329:Drivers/STM32H7xx_HAL_Driver/Src/stm32h7xx_hal_dcmi.c ****             the HAL_DCMI_MspDeInit could be implemented in the user file
 330:Drivers/STM32H7xx_HAL_Driver/Src/stm32h7xx_hal_dcmi.c ****    */
 331:Drivers/STM32H7xx_HAL_Driver/Src/stm32h7xx_hal_dcmi.c **** }
 332:Drivers/STM32H7xx_HAL_Driver/Src/stm32h7xx_hal_dcmi.c **** 
 333:Drivers/STM32H7xx_HAL_Driver/Src/stm32h7xx_hal_dcmi.c **** /**
 334:Drivers/STM32H7xx_HAL_Driver/Src/stm32h7xx_hal_dcmi.c ****   * @}
 335:Drivers/STM32H7xx_HAL_Driver/Src/stm32h7xx_hal_dcmi.c ****   */
 336:Drivers/STM32H7xx_HAL_Driver/Src/stm32h7xx_hal_dcmi.c **** /** @defgroup DCMI_Exported_Functions_Group2 IO operation functions
 337:Drivers/STM32H7xx_HAL_Driver/Src/stm32h7xx_hal_dcmi.c ****  *  @brief   IO operation functions
 338:Drivers/STM32H7xx_HAL_Driver/Src/stm32h7xx_hal_dcmi.c ****  *
 339:Drivers/STM32H7xx_HAL_Driver/Src/stm32h7xx_hal_dcmi.c **** @verbatim
 340:Drivers/STM32H7xx_HAL_Driver/Src/stm32h7xx_hal_dcmi.c ****  ===============================================================================
 341:Drivers/STM32H7xx_HAL_Driver/Src/stm32h7xx_hal_dcmi.c ****                       #####  IO operation functions  #####
 342:Drivers/STM32H7xx_HAL_Driver/Src/stm32h7xx_hal_dcmi.c ****  ===============================================================================
 343:Drivers/STM32H7xx_HAL_Driver/Src/stm32h7xx_hal_dcmi.c ****     [..]  This section provides functions allowing to:
 344:Drivers/STM32H7xx_HAL_Driver/Src/stm32h7xx_hal_dcmi.c ****       (+) Configure destination address and data length and
 345:Drivers/STM32H7xx_HAL_Driver/Src/stm32h7xx_hal_dcmi.c ****           Enables DCMI DMA request and enables DCMI capture
 346:Drivers/STM32H7xx_HAL_Driver/Src/stm32h7xx_hal_dcmi.c ****       (+) Stop the DCMI capture.
 347:Drivers/STM32H7xx_HAL_Driver/Src/stm32h7xx_hal_dcmi.c ****       (+) Handles DCMI interrupt request.
 348:Drivers/STM32H7xx_HAL_Driver/Src/stm32h7xx_hal_dcmi.c **** 
 349:Drivers/STM32H7xx_HAL_Driver/Src/stm32h7xx_hal_dcmi.c **** @endverbatim
 350:Drivers/STM32H7xx_HAL_Driver/Src/stm32h7xx_hal_dcmi.c ****   * @{
 351:Drivers/STM32H7xx_HAL_Driver/Src/stm32h7xx_hal_dcmi.c ****   */
 352:Drivers/STM32H7xx_HAL_Driver/Src/stm32h7xx_hal_dcmi.c **** 
 353:Drivers/STM32H7xx_HAL_Driver/Src/stm32h7xx_hal_dcmi.c **** /**
 354:Drivers/STM32H7xx_HAL_Driver/Src/stm32h7xx_hal_dcmi.c ****   * @brief  Enables DCMI DMA request and enables DCMI capture
 355:Drivers/STM32H7xx_HAL_Driver/Src/stm32h7xx_hal_dcmi.c ****   * @param  hdcmi     pointer to a DCMI_HandleTypeDef structure that contains
 356:Drivers/STM32H7xx_HAL_Driver/Src/stm32h7xx_hal_dcmi.c ****   *                    the configuration information for DCMI.
 357:Drivers/STM32H7xx_HAL_Driver/Src/stm32h7xx_hal_dcmi.c ****   * @param  DCMI_Mode DCMI capture mode snapshot or continuous grab.
 358:Drivers/STM32H7xx_HAL_Driver/Src/stm32h7xx_hal_dcmi.c ****   * @param  pData     The destination memory Buffer address (LCD Frame buffer).
 359:Drivers/STM32H7xx_HAL_Driver/Src/stm32h7xx_hal_dcmi.c ****   * @param  Length    The length of capture to be transferred.
 360:Drivers/STM32H7xx_HAL_Driver/Src/stm32h7xx_hal_dcmi.c ****   * @retval HAL status
 361:Drivers/STM32H7xx_HAL_Driver/Src/stm32h7xx_hal_dcmi.c ****   */
 362:Drivers/STM32H7xx_HAL_Driver/Src/stm32h7xx_hal_dcmi.c **** HAL_StatusTypeDef HAL_DCMI_Start_DMA(DCMI_HandleTypeDef *hdcmi, uint32_t DCMI_Mode, uint32_t pData,
 363:Drivers/STM32H7xx_HAL_Driver/Src/stm32h7xx_hal_dcmi.c **** {
 364:Drivers/STM32H7xx_HAL_Driver/Src/stm32h7xx_hal_dcmi.c ****   /* Initialize the second memory address */
 365:Drivers/STM32H7xx_HAL_Driver/Src/stm32h7xx_hal_dcmi.c ****   uint32_t SecondMemAddress;
 366:Drivers/STM32H7xx_HAL_Driver/Src/stm32h7xx_hal_dcmi.c **** 
 367:Drivers/STM32H7xx_HAL_Driver/Src/stm32h7xx_hal_dcmi.c ****   /* Check function parameters */
 368:Drivers/STM32H7xx_HAL_Driver/Src/stm32h7xx_hal_dcmi.c ****   assert_param(IS_DCMI_CAPTURE_MODE(DCMI_Mode));
 369:Drivers/STM32H7xx_HAL_Driver/Src/stm32h7xx_hal_dcmi.c **** 
 370:Drivers/STM32H7xx_HAL_Driver/Src/stm32h7xx_hal_dcmi.c ****   /* Process Locked */
 371:Drivers/STM32H7xx_HAL_Driver/Src/stm32h7xx_hal_dcmi.c ****   __HAL_LOCK(hdcmi);
 372:Drivers/STM32H7xx_HAL_Driver/Src/stm32h7xx_hal_dcmi.c **** 
 373:Drivers/STM32H7xx_HAL_Driver/Src/stm32h7xx_hal_dcmi.c ****   /* Lock the DCMI peripheral state */
ARM GAS  /tmp/ccYwYWEs.s 			page 8


 374:Drivers/STM32H7xx_HAL_Driver/Src/stm32h7xx_hal_dcmi.c ****   hdcmi->State = HAL_DCMI_STATE_BUSY;
 375:Drivers/STM32H7xx_HAL_Driver/Src/stm32h7xx_hal_dcmi.c **** 
 376:Drivers/STM32H7xx_HAL_Driver/Src/stm32h7xx_hal_dcmi.c ****   /* Enable DCMI by setting DCMIEN bit */
 377:Drivers/STM32H7xx_HAL_Driver/Src/stm32h7xx_hal_dcmi.c ****   __HAL_DCMI_ENABLE(hdcmi);
 378:Drivers/STM32H7xx_HAL_Driver/Src/stm32h7xx_hal_dcmi.c **** 
 379:Drivers/STM32H7xx_HAL_Driver/Src/stm32h7xx_hal_dcmi.c ****   /* Configure the DCMI Mode */
 380:Drivers/STM32H7xx_HAL_Driver/Src/stm32h7xx_hal_dcmi.c ****   hdcmi->Instance->CR &= ~(DCMI_CR_CM);
 381:Drivers/STM32H7xx_HAL_Driver/Src/stm32h7xx_hal_dcmi.c ****   hdcmi->Instance->CR |= (uint32_t)(DCMI_Mode);
 382:Drivers/STM32H7xx_HAL_Driver/Src/stm32h7xx_hal_dcmi.c **** 
 383:Drivers/STM32H7xx_HAL_Driver/Src/stm32h7xx_hal_dcmi.c ****   /* Set the DMA memory0 conversion complete callback */
 384:Drivers/STM32H7xx_HAL_Driver/Src/stm32h7xx_hal_dcmi.c ****   hdcmi->DMA_Handle->XferCpltCallback = DCMI_DMAXferCplt;
 385:Drivers/STM32H7xx_HAL_Driver/Src/stm32h7xx_hal_dcmi.c **** 
 386:Drivers/STM32H7xx_HAL_Driver/Src/stm32h7xx_hal_dcmi.c ****   /* Set the DMA error callback */
 387:Drivers/STM32H7xx_HAL_Driver/Src/stm32h7xx_hal_dcmi.c ****   hdcmi->DMA_Handle->XferErrorCallback = DCMI_DMAError;
 388:Drivers/STM32H7xx_HAL_Driver/Src/stm32h7xx_hal_dcmi.c **** 
 389:Drivers/STM32H7xx_HAL_Driver/Src/stm32h7xx_hal_dcmi.c ****   /* Set the dma abort callback */
 390:Drivers/STM32H7xx_HAL_Driver/Src/stm32h7xx_hal_dcmi.c ****   hdcmi->DMA_Handle->XferAbortCallback = NULL;
 391:Drivers/STM32H7xx_HAL_Driver/Src/stm32h7xx_hal_dcmi.c **** 
 392:Drivers/STM32H7xx_HAL_Driver/Src/stm32h7xx_hal_dcmi.c ****   /* Reset transfer counters value */
 393:Drivers/STM32H7xx_HAL_Driver/Src/stm32h7xx_hal_dcmi.c ****   hdcmi->XferCount = 0;
 394:Drivers/STM32H7xx_HAL_Driver/Src/stm32h7xx_hal_dcmi.c ****   hdcmi->XferTransferNumber = 0;
 395:Drivers/STM32H7xx_HAL_Driver/Src/stm32h7xx_hal_dcmi.c ****   hdcmi->XferSize = 0;
 396:Drivers/STM32H7xx_HAL_Driver/Src/stm32h7xx_hal_dcmi.c ****   hdcmi->pBuffPtr = 0;
 397:Drivers/STM32H7xx_HAL_Driver/Src/stm32h7xx_hal_dcmi.c **** 
 398:Drivers/STM32H7xx_HAL_Driver/Src/stm32h7xx_hal_dcmi.c ****   if (Length <= 0xFFFFU)
 399:Drivers/STM32H7xx_HAL_Driver/Src/stm32h7xx_hal_dcmi.c ****   {
 400:Drivers/STM32H7xx_HAL_Driver/Src/stm32h7xx_hal_dcmi.c ****     /* Enable the DMA Stream */
 401:Drivers/STM32H7xx_HAL_Driver/Src/stm32h7xx_hal_dcmi.c ****     if (HAL_DMA_Start_IT(hdcmi->DMA_Handle, (uint32_t)&hdcmi->Instance->DR, (uint32_t)pData, Length
 402:Drivers/STM32H7xx_HAL_Driver/Src/stm32h7xx_hal_dcmi.c ****     {
 403:Drivers/STM32H7xx_HAL_Driver/Src/stm32h7xx_hal_dcmi.c ****       /* Set Error Code */
 404:Drivers/STM32H7xx_HAL_Driver/Src/stm32h7xx_hal_dcmi.c ****       hdcmi->ErrorCode = HAL_DCMI_ERROR_DMA;
 405:Drivers/STM32H7xx_HAL_Driver/Src/stm32h7xx_hal_dcmi.c ****       /* Change DCMI state */
 406:Drivers/STM32H7xx_HAL_Driver/Src/stm32h7xx_hal_dcmi.c ****       hdcmi->State = HAL_DCMI_STATE_READY;
 407:Drivers/STM32H7xx_HAL_Driver/Src/stm32h7xx_hal_dcmi.c ****       /* Release Lock */
 408:Drivers/STM32H7xx_HAL_Driver/Src/stm32h7xx_hal_dcmi.c ****       __HAL_UNLOCK(hdcmi);
 409:Drivers/STM32H7xx_HAL_Driver/Src/stm32h7xx_hal_dcmi.c ****       /* Return function status */
 410:Drivers/STM32H7xx_HAL_Driver/Src/stm32h7xx_hal_dcmi.c ****       return HAL_ERROR;
 411:Drivers/STM32H7xx_HAL_Driver/Src/stm32h7xx_hal_dcmi.c ****     }
 412:Drivers/STM32H7xx_HAL_Driver/Src/stm32h7xx_hal_dcmi.c ****   }
 413:Drivers/STM32H7xx_HAL_Driver/Src/stm32h7xx_hal_dcmi.c ****   else /* DCMI_DOUBLE_BUFFER Mode */
 414:Drivers/STM32H7xx_HAL_Driver/Src/stm32h7xx_hal_dcmi.c ****   {
 415:Drivers/STM32H7xx_HAL_Driver/Src/stm32h7xx_hal_dcmi.c ****     /* Set the DMA memory1 conversion complete callback */
 416:Drivers/STM32H7xx_HAL_Driver/Src/stm32h7xx_hal_dcmi.c ****     hdcmi->DMA_Handle->XferM1CpltCallback = DCMI_DMAXferCplt;
 417:Drivers/STM32H7xx_HAL_Driver/Src/stm32h7xx_hal_dcmi.c **** 
 418:Drivers/STM32H7xx_HAL_Driver/Src/stm32h7xx_hal_dcmi.c ****     /* Initialize transfer parameters */
 419:Drivers/STM32H7xx_HAL_Driver/Src/stm32h7xx_hal_dcmi.c ****     hdcmi->XferCount = 1;
 420:Drivers/STM32H7xx_HAL_Driver/Src/stm32h7xx_hal_dcmi.c ****     hdcmi->XferSize = Length;
 421:Drivers/STM32H7xx_HAL_Driver/Src/stm32h7xx_hal_dcmi.c ****     hdcmi->pBuffPtr = pData;
 422:Drivers/STM32H7xx_HAL_Driver/Src/stm32h7xx_hal_dcmi.c **** 
 423:Drivers/STM32H7xx_HAL_Driver/Src/stm32h7xx_hal_dcmi.c ****     /* Get the number of buffer */
 424:Drivers/STM32H7xx_HAL_Driver/Src/stm32h7xx_hal_dcmi.c ****     while (hdcmi->XferSize > 0xFFFFU)
 425:Drivers/STM32H7xx_HAL_Driver/Src/stm32h7xx_hal_dcmi.c ****     {
 426:Drivers/STM32H7xx_HAL_Driver/Src/stm32h7xx_hal_dcmi.c ****       hdcmi->XferSize = (hdcmi->XferSize / 2U);
 427:Drivers/STM32H7xx_HAL_Driver/Src/stm32h7xx_hal_dcmi.c ****       hdcmi->XferCount = hdcmi->XferCount * 2U;
 428:Drivers/STM32H7xx_HAL_Driver/Src/stm32h7xx_hal_dcmi.c ****     }
 429:Drivers/STM32H7xx_HAL_Driver/Src/stm32h7xx_hal_dcmi.c **** 
 430:Drivers/STM32H7xx_HAL_Driver/Src/stm32h7xx_hal_dcmi.c ****     /* Update DCMI counter  and transfer number*/
ARM GAS  /tmp/ccYwYWEs.s 			page 9


 431:Drivers/STM32H7xx_HAL_Driver/Src/stm32h7xx_hal_dcmi.c ****     hdcmi->XferCount = (hdcmi->XferCount - 2U);
 432:Drivers/STM32H7xx_HAL_Driver/Src/stm32h7xx_hal_dcmi.c ****     hdcmi->XferTransferNumber = hdcmi->XferCount;
 433:Drivers/STM32H7xx_HAL_Driver/Src/stm32h7xx_hal_dcmi.c **** 
 434:Drivers/STM32H7xx_HAL_Driver/Src/stm32h7xx_hal_dcmi.c ****     /* Update second memory address */
 435:Drivers/STM32H7xx_HAL_Driver/Src/stm32h7xx_hal_dcmi.c ****     SecondMemAddress = (uint32_t)(pData + (4U * hdcmi->XferSize));
 436:Drivers/STM32H7xx_HAL_Driver/Src/stm32h7xx_hal_dcmi.c **** 
 437:Drivers/STM32H7xx_HAL_Driver/Src/stm32h7xx_hal_dcmi.c ****     /* Start DMA multi buffer transfer */
 438:Drivers/STM32H7xx_HAL_Driver/Src/stm32h7xx_hal_dcmi.c ****     if (HAL_DMAEx_MultiBufferStart_IT(hdcmi->DMA_Handle, (uint32_t)&hdcmi->Instance->DR, (uint32_t)
 439:Drivers/STM32H7xx_HAL_Driver/Src/stm32h7xx_hal_dcmi.c ****     {
 440:Drivers/STM32H7xx_HAL_Driver/Src/stm32h7xx_hal_dcmi.c ****       /* Set Error Code */
 441:Drivers/STM32H7xx_HAL_Driver/Src/stm32h7xx_hal_dcmi.c ****       hdcmi->ErrorCode = HAL_DCMI_ERROR_DMA;
 442:Drivers/STM32H7xx_HAL_Driver/Src/stm32h7xx_hal_dcmi.c ****       /* Change DCMI state */
 443:Drivers/STM32H7xx_HAL_Driver/Src/stm32h7xx_hal_dcmi.c ****       hdcmi->State = HAL_DCMI_STATE_READY;
 444:Drivers/STM32H7xx_HAL_Driver/Src/stm32h7xx_hal_dcmi.c ****       /* Release Lock */
 445:Drivers/STM32H7xx_HAL_Driver/Src/stm32h7xx_hal_dcmi.c ****       __HAL_UNLOCK(hdcmi);
 446:Drivers/STM32H7xx_HAL_Driver/Src/stm32h7xx_hal_dcmi.c ****       /* Return function status */
 447:Drivers/STM32H7xx_HAL_Driver/Src/stm32h7xx_hal_dcmi.c ****       return HAL_ERROR;
 448:Drivers/STM32H7xx_HAL_Driver/Src/stm32h7xx_hal_dcmi.c ****     }
 449:Drivers/STM32H7xx_HAL_Driver/Src/stm32h7xx_hal_dcmi.c ****   }
 450:Drivers/STM32H7xx_HAL_Driver/Src/stm32h7xx_hal_dcmi.c **** 
 451:Drivers/STM32H7xx_HAL_Driver/Src/stm32h7xx_hal_dcmi.c ****   /* Enable Capture */
 452:Drivers/STM32H7xx_HAL_Driver/Src/stm32h7xx_hal_dcmi.c ****   hdcmi->Instance->CR |= DCMI_CR_CAPTURE;
 453:Drivers/STM32H7xx_HAL_Driver/Src/stm32h7xx_hal_dcmi.c **** 
 454:Drivers/STM32H7xx_HAL_Driver/Src/stm32h7xx_hal_dcmi.c ****   /* Release Lock */
 455:Drivers/STM32H7xx_HAL_Driver/Src/stm32h7xx_hal_dcmi.c ****   __HAL_UNLOCK(hdcmi);
 456:Drivers/STM32H7xx_HAL_Driver/Src/stm32h7xx_hal_dcmi.c **** 
 457:Drivers/STM32H7xx_HAL_Driver/Src/stm32h7xx_hal_dcmi.c ****   /* Return function status */
 458:Drivers/STM32H7xx_HAL_Driver/Src/stm32h7xx_hal_dcmi.c ****   return HAL_OK;
 459:Drivers/STM32H7xx_HAL_Driver/Src/stm32h7xx_hal_dcmi.c **** }
 460:Drivers/STM32H7xx_HAL_Driver/Src/stm32h7xx_hal_dcmi.c **** 
 461:Drivers/STM32H7xx_HAL_Driver/Src/stm32h7xx_hal_dcmi.c **** /**
 462:Drivers/STM32H7xx_HAL_Driver/Src/stm32h7xx_hal_dcmi.c ****   * @brief  Disable DCMI DMA request and Disable DCMI capture
 463:Drivers/STM32H7xx_HAL_Driver/Src/stm32h7xx_hal_dcmi.c ****   * @param  hdcmi pointer to a DCMI_HandleTypeDef structure that contains
 464:Drivers/STM32H7xx_HAL_Driver/Src/stm32h7xx_hal_dcmi.c ****   *                the configuration information for DCMI.
 465:Drivers/STM32H7xx_HAL_Driver/Src/stm32h7xx_hal_dcmi.c ****   * @retval HAL status
 466:Drivers/STM32H7xx_HAL_Driver/Src/stm32h7xx_hal_dcmi.c ****   */
 467:Drivers/STM32H7xx_HAL_Driver/Src/stm32h7xx_hal_dcmi.c **** HAL_StatusTypeDef HAL_DCMI_Stop(DCMI_HandleTypeDef *hdcmi)
 468:Drivers/STM32H7xx_HAL_Driver/Src/stm32h7xx_hal_dcmi.c **** {
 469:Drivers/STM32H7xx_HAL_Driver/Src/stm32h7xx_hal_dcmi.c ****   uint32_t count = HAL_TIMEOUT_DCMI_STOP * (SystemCoreClock / 8U / 1000U);
 470:Drivers/STM32H7xx_HAL_Driver/Src/stm32h7xx_hal_dcmi.c ****   HAL_StatusTypeDef status = HAL_OK;
 471:Drivers/STM32H7xx_HAL_Driver/Src/stm32h7xx_hal_dcmi.c **** 
 472:Drivers/STM32H7xx_HAL_Driver/Src/stm32h7xx_hal_dcmi.c ****   /* Process locked */
 473:Drivers/STM32H7xx_HAL_Driver/Src/stm32h7xx_hal_dcmi.c ****   __HAL_LOCK(hdcmi);
 474:Drivers/STM32H7xx_HAL_Driver/Src/stm32h7xx_hal_dcmi.c **** 
 475:Drivers/STM32H7xx_HAL_Driver/Src/stm32h7xx_hal_dcmi.c ****   /* Lock the DCMI peripheral state */
 476:Drivers/STM32H7xx_HAL_Driver/Src/stm32h7xx_hal_dcmi.c ****   hdcmi->State = HAL_DCMI_STATE_BUSY;
 477:Drivers/STM32H7xx_HAL_Driver/Src/stm32h7xx_hal_dcmi.c **** 
 478:Drivers/STM32H7xx_HAL_Driver/Src/stm32h7xx_hal_dcmi.c ****   /* Disable Capture */
 479:Drivers/STM32H7xx_HAL_Driver/Src/stm32h7xx_hal_dcmi.c ****   hdcmi->Instance->CR &= ~(DCMI_CR_CAPTURE);
 480:Drivers/STM32H7xx_HAL_Driver/Src/stm32h7xx_hal_dcmi.c **** 
 481:Drivers/STM32H7xx_HAL_Driver/Src/stm32h7xx_hal_dcmi.c ****   /* Check if the DCMI capture effectively disabled */
 482:Drivers/STM32H7xx_HAL_Driver/Src/stm32h7xx_hal_dcmi.c ****   do
 483:Drivers/STM32H7xx_HAL_Driver/Src/stm32h7xx_hal_dcmi.c ****   {
 484:Drivers/STM32H7xx_HAL_Driver/Src/stm32h7xx_hal_dcmi.c ****     count-- ;
 485:Drivers/STM32H7xx_HAL_Driver/Src/stm32h7xx_hal_dcmi.c ****     if (count == 0U)
 486:Drivers/STM32H7xx_HAL_Driver/Src/stm32h7xx_hal_dcmi.c ****     {
 487:Drivers/STM32H7xx_HAL_Driver/Src/stm32h7xx_hal_dcmi.c ****       /* Update error code */
ARM GAS  /tmp/ccYwYWEs.s 			page 10


 488:Drivers/STM32H7xx_HAL_Driver/Src/stm32h7xx_hal_dcmi.c ****       hdcmi->ErrorCode |= HAL_DCMI_ERROR_TIMEOUT;
 489:Drivers/STM32H7xx_HAL_Driver/Src/stm32h7xx_hal_dcmi.c **** 
 490:Drivers/STM32H7xx_HAL_Driver/Src/stm32h7xx_hal_dcmi.c ****       status = HAL_TIMEOUT;
 491:Drivers/STM32H7xx_HAL_Driver/Src/stm32h7xx_hal_dcmi.c ****       break;
 492:Drivers/STM32H7xx_HAL_Driver/Src/stm32h7xx_hal_dcmi.c ****     }
 493:Drivers/STM32H7xx_HAL_Driver/Src/stm32h7xx_hal_dcmi.c ****   }
 494:Drivers/STM32H7xx_HAL_Driver/Src/stm32h7xx_hal_dcmi.c ****   while ((hdcmi->Instance->CR & DCMI_CR_CAPTURE) != 0U);
 495:Drivers/STM32H7xx_HAL_Driver/Src/stm32h7xx_hal_dcmi.c **** 
 496:Drivers/STM32H7xx_HAL_Driver/Src/stm32h7xx_hal_dcmi.c ****   /* Disable the DCMI */
 497:Drivers/STM32H7xx_HAL_Driver/Src/stm32h7xx_hal_dcmi.c ****   __HAL_DCMI_DISABLE(hdcmi);
 498:Drivers/STM32H7xx_HAL_Driver/Src/stm32h7xx_hal_dcmi.c **** 
 499:Drivers/STM32H7xx_HAL_Driver/Src/stm32h7xx_hal_dcmi.c ****   /* Disable the DMA */
 500:Drivers/STM32H7xx_HAL_Driver/Src/stm32h7xx_hal_dcmi.c ****   (void)HAL_DMA_Abort(hdcmi->DMA_Handle);
 501:Drivers/STM32H7xx_HAL_Driver/Src/stm32h7xx_hal_dcmi.c **** 
 502:Drivers/STM32H7xx_HAL_Driver/Src/stm32h7xx_hal_dcmi.c ****   /* Update error code */
 503:Drivers/STM32H7xx_HAL_Driver/Src/stm32h7xx_hal_dcmi.c ****   hdcmi->ErrorCode |= HAL_DCMI_ERROR_NONE;
 504:Drivers/STM32H7xx_HAL_Driver/Src/stm32h7xx_hal_dcmi.c **** 
 505:Drivers/STM32H7xx_HAL_Driver/Src/stm32h7xx_hal_dcmi.c ****   /* Change DCMI state */
 506:Drivers/STM32H7xx_HAL_Driver/Src/stm32h7xx_hal_dcmi.c ****   hdcmi->State = HAL_DCMI_STATE_READY;
 507:Drivers/STM32H7xx_HAL_Driver/Src/stm32h7xx_hal_dcmi.c **** 
 508:Drivers/STM32H7xx_HAL_Driver/Src/stm32h7xx_hal_dcmi.c ****   /* Process Unlocked */
 509:Drivers/STM32H7xx_HAL_Driver/Src/stm32h7xx_hal_dcmi.c ****   __HAL_UNLOCK(hdcmi);
 510:Drivers/STM32H7xx_HAL_Driver/Src/stm32h7xx_hal_dcmi.c **** 
 511:Drivers/STM32H7xx_HAL_Driver/Src/stm32h7xx_hal_dcmi.c ****   /* Return function status */
 512:Drivers/STM32H7xx_HAL_Driver/Src/stm32h7xx_hal_dcmi.c ****   return status;
 513:Drivers/STM32H7xx_HAL_Driver/Src/stm32h7xx_hal_dcmi.c **** }
 514:Drivers/STM32H7xx_HAL_Driver/Src/stm32h7xx_hal_dcmi.c **** 
 515:Drivers/STM32H7xx_HAL_Driver/Src/stm32h7xx_hal_dcmi.c **** /**
 516:Drivers/STM32H7xx_HAL_Driver/Src/stm32h7xx_hal_dcmi.c ****   * @brief  Suspend DCMI capture
 517:Drivers/STM32H7xx_HAL_Driver/Src/stm32h7xx_hal_dcmi.c ****   * @param  hdcmi pointer to a DCMI_HandleTypeDef structure that contains
 518:Drivers/STM32H7xx_HAL_Driver/Src/stm32h7xx_hal_dcmi.c ****   *                the configuration information for DCMI.
 519:Drivers/STM32H7xx_HAL_Driver/Src/stm32h7xx_hal_dcmi.c ****   * @retval HAL status
 520:Drivers/STM32H7xx_HAL_Driver/Src/stm32h7xx_hal_dcmi.c ****   */
 521:Drivers/STM32H7xx_HAL_Driver/Src/stm32h7xx_hal_dcmi.c **** HAL_StatusTypeDef HAL_DCMI_Suspend(DCMI_HandleTypeDef *hdcmi)
 522:Drivers/STM32H7xx_HAL_Driver/Src/stm32h7xx_hal_dcmi.c **** {
 523:Drivers/STM32H7xx_HAL_Driver/Src/stm32h7xx_hal_dcmi.c ****   uint32_t count = HAL_TIMEOUT_DCMI_STOP * (SystemCoreClock / 8U / 1000U);
 524:Drivers/STM32H7xx_HAL_Driver/Src/stm32h7xx_hal_dcmi.c ****   HAL_StatusTypeDef status = HAL_OK;
 525:Drivers/STM32H7xx_HAL_Driver/Src/stm32h7xx_hal_dcmi.c **** 
 526:Drivers/STM32H7xx_HAL_Driver/Src/stm32h7xx_hal_dcmi.c ****   /* Process locked */
 527:Drivers/STM32H7xx_HAL_Driver/Src/stm32h7xx_hal_dcmi.c ****   __HAL_LOCK(hdcmi);
 528:Drivers/STM32H7xx_HAL_Driver/Src/stm32h7xx_hal_dcmi.c **** 
 529:Drivers/STM32H7xx_HAL_Driver/Src/stm32h7xx_hal_dcmi.c ****   if (hdcmi->State == HAL_DCMI_STATE_BUSY)
 530:Drivers/STM32H7xx_HAL_Driver/Src/stm32h7xx_hal_dcmi.c ****   {
 531:Drivers/STM32H7xx_HAL_Driver/Src/stm32h7xx_hal_dcmi.c ****     /* Change DCMI state */
 532:Drivers/STM32H7xx_HAL_Driver/Src/stm32h7xx_hal_dcmi.c ****     hdcmi->State = HAL_DCMI_STATE_SUSPENDED;
 533:Drivers/STM32H7xx_HAL_Driver/Src/stm32h7xx_hal_dcmi.c **** 
 534:Drivers/STM32H7xx_HAL_Driver/Src/stm32h7xx_hal_dcmi.c ****     /* Disable Capture */
 535:Drivers/STM32H7xx_HAL_Driver/Src/stm32h7xx_hal_dcmi.c ****     hdcmi->Instance->CR &= ~(DCMI_CR_CAPTURE);
 536:Drivers/STM32H7xx_HAL_Driver/Src/stm32h7xx_hal_dcmi.c **** 
 537:Drivers/STM32H7xx_HAL_Driver/Src/stm32h7xx_hal_dcmi.c ****     /* Check if the DCMI capture effectively disabled */
 538:Drivers/STM32H7xx_HAL_Driver/Src/stm32h7xx_hal_dcmi.c ****     do
 539:Drivers/STM32H7xx_HAL_Driver/Src/stm32h7xx_hal_dcmi.c ****     {
 540:Drivers/STM32H7xx_HAL_Driver/Src/stm32h7xx_hal_dcmi.c ****       count-- ;
 541:Drivers/STM32H7xx_HAL_Driver/Src/stm32h7xx_hal_dcmi.c ****       if (count == 0U)
 542:Drivers/STM32H7xx_HAL_Driver/Src/stm32h7xx_hal_dcmi.c ****       {
 543:Drivers/STM32H7xx_HAL_Driver/Src/stm32h7xx_hal_dcmi.c ****         /* Update error code */
 544:Drivers/STM32H7xx_HAL_Driver/Src/stm32h7xx_hal_dcmi.c ****         hdcmi->ErrorCode |= HAL_DCMI_ERROR_TIMEOUT;
ARM GAS  /tmp/ccYwYWEs.s 			page 11


 545:Drivers/STM32H7xx_HAL_Driver/Src/stm32h7xx_hal_dcmi.c **** 
 546:Drivers/STM32H7xx_HAL_Driver/Src/stm32h7xx_hal_dcmi.c ****         /* Change DCMI state */
 547:Drivers/STM32H7xx_HAL_Driver/Src/stm32h7xx_hal_dcmi.c ****         hdcmi->State = HAL_DCMI_STATE_READY;
 548:Drivers/STM32H7xx_HAL_Driver/Src/stm32h7xx_hal_dcmi.c **** 
 549:Drivers/STM32H7xx_HAL_Driver/Src/stm32h7xx_hal_dcmi.c ****         status = HAL_TIMEOUT;
 550:Drivers/STM32H7xx_HAL_Driver/Src/stm32h7xx_hal_dcmi.c ****         break;
 551:Drivers/STM32H7xx_HAL_Driver/Src/stm32h7xx_hal_dcmi.c ****       }
 552:Drivers/STM32H7xx_HAL_Driver/Src/stm32h7xx_hal_dcmi.c ****     }
 553:Drivers/STM32H7xx_HAL_Driver/Src/stm32h7xx_hal_dcmi.c ****     while ((hdcmi->Instance->CR & DCMI_CR_CAPTURE) != 0U);
 554:Drivers/STM32H7xx_HAL_Driver/Src/stm32h7xx_hal_dcmi.c ****   }
 555:Drivers/STM32H7xx_HAL_Driver/Src/stm32h7xx_hal_dcmi.c ****   /* Process Unlocked */
 556:Drivers/STM32H7xx_HAL_Driver/Src/stm32h7xx_hal_dcmi.c ****   __HAL_UNLOCK(hdcmi);
 557:Drivers/STM32H7xx_HAL_Driver/Src/stm32h7xx_hal_dcmi.c **** 
 558:Drivers/STM32H7xx_HAL_Driver/Src/stm32h7xx_hal_dcmi.c ****   /* Return function status */
 559:Drivers/STM32H7xx_HAL_Driver/Src/stm32h7xx_hal_dcmi.c ****   return status;
 560:Drivers/STM32H7xx_HAL_Driver/Src/stm32h7xx_hal_dcmi.c **** }
 561:Drivers/STM32H7xx_HAL_Driver/Src/stm32h7xx_hal_dcmi.c **** 
 562:Drivers/STM32H7xx_HAL_Driver/Src/stm32h7xx_hal_dcmi.c **** /**
 563:Drivers/STM32H7xx_HAL_Driver/Src/stm32h7xx_hal_dcmi.c ****   * @brief  Resume DCMI capture
 564:Drivers/STM32H7xx_HAL_Driver/Src/stm32h7xx_hal_dcmi.c ****   * @param  hdcmi pointer to a DCMI_HandleTypeDef structure that contains
 565:Drivers/STM32H7xx_HAL_Driver/Src/stm32h7xx_hal_dcmi.c ****   *                the configuration information for DCMI.
 566:Drivers/STM32H7xx_HAL_Driver/Src/stm32h7xx_hal_dcmi.c ****   * @retval HAL status
 567:Drivers/STM32H7xx_HAL_Driver/Src/stm32h7xx_hal_dcmi.c ****   */
 568:Drivers/STM32H7xx_HAL_Driver/Src/stm32h7xx_hal_dcmi.c **** HAL_StatusTypeDef HAL_DCMI_Resume(DCMI_HandleTypeDef *hdcmi)
 569:Drivers/STM32H7xx_HAL_Driver/Src/stm32h7xx_hal_dcmi.c **** {
 570:Drivers/STM32H7xx_HAL_Driver/Src/stm32h7xx_hal_dcmi.c ****   /* Process locked */
 571:Drivers/STM32H7xx_HAL_Driver/Src/stm32h7xx_hal_dcmi.c ****   __HAL_LOCK(hdcmi);
 572:Drivers/STM32H7xx_HAL_Driver/Src/stm32h7xx_hal_dcmi.c **** 
 573:Drivers/STM32H7xx_HAL_Driver/Src/stm32h7xx_hal_dcmi.c ****   if (hdcmi->State == HAL_DCMI_STATE_SUSPENDED)
 574:Drivers/STM32H7xx_HAL_Driver/Src/stm32h7xx_hal_dcmi.c ****   {
 575:Drivers/STM32H7xx_HAL_Driver/Src/stm32h7xx_hal_dcmi.c ****     /* Change DCMI state */
 576:Drivers/STM32H7xx_HAL_Driver/Src/stm32h7xx_hal_dcmi.c ****     hdcmi->State = HAL_DCMI_STATE_BUSY;
 577:Drivers/STM32H7xx_HAL_Driver/Src/stm32h7xx_hal_dcmi.c **** 
 578:Drivers/STM32H7xx_HAL_Driver/Src/stm32h7xx_hal_dcmi.c ****     /* Enable Capture */
 579:Drivers/STM32H7xx_HAL_Driver/Src/stm32h7xx_hal_dcmi.c ****     hdcmi->Instance->CR |= DCMI_CR_CAPTURE;
 580:Drivers/STM32H7xx_HAL_Driver/Src/stm32h7xx_hal_dcmi.c ****   }
 581:Drivers/STM32H7xx_HAL_Driver/Src/stm32h7xx_hal_dcmi.c ****   /* Process Unlocked */
 582:Drivers/STM32H7xx_HAL_Driver/Src/stm32h7xx_hal_dcmi.c ****   __HAL_UNLOCK(hdcmi);
 583:Drivers/STM32H7xx_HAL_Driver/Src/stm32h7xx_hal_dcmi.c **** 
 584:Drivers/STM32H7xx_HAL_Driver/Src/stm32h7xx_hal_dcmi.c ****   /* Return function status */
 585:Drivers/STM32H7xx_HAL_Driver/Src/stm32h7xx_hal_dcmi.c ****   return HAL_OK;
 586:Drivers/STM32H7xx_HAL_Driver/Src/stm32h7xx_hal_dcmi.c **** }
 587:Drivers/STM32H7xx_HAL_Driver/Src/stm32h7xx_hal_dcmi.c **** 
 588:Drivers/STM32H7xx_HAL_Driver/Src/stm32h7xx_hal_dcmi.c **** /**
 589:Drivers/STM32H7xx_HAL_Driver/Src/stm32h7xx_hal_dcmi.c ****   * @brief  Handles DCMI interrupt request.
 590:Drivers/STM32H7xx_HAL_Driver/Src/stm32h7xx_hal_dcmi.c ****   * @param  hdcmi pointer to a DCMI_HandleTypeDef structure that contains
 591:Drivers/STM32H7xx_HAL_Driver/Src/stm32h7xx_hal_dcmi.c ****   *                the configuration information for the DCMI.
 592:Drivers/STM32H7xx_HAL_Driver/Src/stm32h7xx_hal_dcmi.c ****   * @retval None
 593:Drivers/STM32H7xx_HAL_Driver/Src/stm32h7xx_hal_dcmi.c ****   */
 594:Drivers/STM32H7xx_HAL_Driver/Src/stm32h7xx_hal_dcmi.c **** void HAL_DCMI_IRQHandler(DCMI_HandleTypeDef *hdcmi)
 595:Drivers/STM32H7xx_HAL_Driver/Src/stm32h7xx_hal_dcmi.c **** {
 596:Drivers/STM32H7xx_HAL_Driver/Src/stm32h7xx_hal_dcmi.c ****   uint32_t isr_value = READ_REG(hdcmi->Instance->MISR);
 597:Drivers/STM32H7xx_HAL_Driver/Src/stm32h7xx_hal_dcmi.c **** 
 598:Drivers/STM32H7xx_HAL_Driver/Src/stm32h7xx_hal_dcmi.c ****   /* Synchronization error interrupt management *******************************/
 599:Drivers/STM32H7xx_HAL_Driver/Src/stm32h7xx_hal_dcmi.c ****   if ((isr_value & DCMI_FLAG_ERRRI) == DCMI_FLAG_ERRRI)
 600:Drivers/STM32H7xx_HAL_Driver/Src/stm32h7xx_hal_dcmi.c ****   {
 601:Drivers/STM32H7xx_HAL_Driver/Src/stm32h7xx_hal_dcmi.c ****     /* Clear the Synchronization error flag */
ARM GAS  /tmp/ccYwYWEs.s 			page 12


 602:Drivers/STM32H7xx_HAL_Driver/Src/stm32h7xx_hal_dcmi.c ****     __HAL_DCMI_CLEAR_FLAG(hdcmi, DCMI_FLAG_ERRRI);
 603:Drivers/STM32H7xx_HAL_Driver/Src/stm32h7xx_hal_dcmi.c **** 
 604:Drivers/STM32H7xx_HAL_Driver/Src/stm32h7xx_hal_dcmi.c ****     /* Update error code */
 605:Drivers/STM32H7xx_HAL_Driver/Src/stm32h7xx_hal_dcmi.c ****     hdcmi->ErrorCode |= HAL_DCMI_ERROR_SYNC;
 606:Drivers/STM32H7xx_HAL_Driver/Src/stm32h7xx_hal_dcmi.c **** 
 607:Drivers/STM32H7xx_HAL_Driver/Src/stm32h7xx_hal_dcmi.c ****     /* Change DCMI state */
 608:Drivers/STM32H7xx_HAL_Driver/Src/stm32h7xx_hal_dcmi.c ****     hdcmi->State = HAL_DCMI_STATE_ERROR;
 609:Drivers/STM32H7xx_HAL_Driver/Src/stm32h7xx_hal_dcmi.c **** 
 610:Drivers/STM32H7xx_HAL_Driver/Src/stm32h7xx_hal_dcmi.c ****     /* Set the synchronization error callback */
 611:Drivers/STM32H7xx_HAL_Driver/Src/stm32h7xx_hal_dcmi.c ****     hdcmi->DMA_Handle->XferAbortCallback = DCMI_DMAError;
 612:Drivers/STM32H7xx_HAL_Driver/Src/stm32h7xx_hal_dcmi.c **** 
 613:Drivers/STM32H7xx_HAL_Driver/Src/stm32h7xx_hal_dcmi.c ****     /* Abort the DMA Transfer */
 614:Drivers/STM32H7xx_HAL_Driver/Src/stm32h7xx_hal_dcmi.c ****     (void)HAL_DMA_Abort_IT(hdcmi->DMA_Handle);
 615:Drivers/STM32H7xx_HAL_Driver/Src/stm32h7xx_hal_dcmi.c ****   }
 616:Drivers/STM32H7xx_HAL_Driver/Src/stm32h7xx_hal_dcmi.c ****   /* Overflow interrupt management ********************************************/
 617:Drivers/STM32H7xx_HAL_Driver/Src/stm32h7xx_hal_dcmi.c ****   if ((isr_value & DCMI_FLAG_OVRRI) == DCMI_FLAG_OVRRI)
 618:Drivers/STM32H7xx_HAL_Driver/Src/stm32h7xx_hal_dcmi.c ****   {
 619:Drivers/STM32H7xx_HAL_Driver/Src/stm32h7xx_hal_dcmi.c ****     /* Clear the Overflow flag */
 620:Drivers/STM32H7xx_HAL_Driver/Src/stm32h7xx_hal_dcmi.c ****     __HAL_DCMI_CLEAR_FLAG(hdcmi, DCMI_FLAG_OVRRI);
 621:Drivers/STM32H7xx_HAL_Driver/Src/stm32h7xx_hal_dcmi.c **** 
 622:Drivers/STM32H7xx_HAL_Driver/Src/stm32h7xx_hal_dcmi.c ****     /* Update error code */
 623:Drivers/STM32H7xx_HAL_Driver/Src/stm32h7xx_hal_dcmi.c ****     hdcmi->ErrorCode |= HAL_DCMI_ERROR_OVR;
 624:Drivers/STM32H7xx_HAL_Driver/Src/stm32h7xx_hal_dcmi.c **** 
 625:Drivers/STM32H7xx_HAL_Driver/Src/stm32h7xx_hal_dcmi.c ****     /* Change DCMI state */
 626:Drivers/STM32H7xx_HAL_Driver/Src/stm32h7xx_hal_dcmi.c ****     hdcmi->State = HAL_DCMI_STATE_ERROR;
 627:Drivers/STM32H7xx_HAL_Driver/Src/stm32h7xx_hal_dcmi.c **** 
 628:Drivers/STM32H7xx_HAL_Driver/Src/stm32h7xx_hal_dcmi.c ****     /* Set the overflow callback */
 629:Drivers/STM32H7xx_HAL_Driver/Src/stm32h7xx_hal_dcmi.c ****     hdcmi->DMA_Handle->XferAbortCallback = DCMI_DMAError;
 630:Drivers/STM32H7xx_HAL_Driver/Src/stm32h7xx_hal_dcmi.c **** 
 631:Drivers/STM32H7xx_HAL_Driver/Src/stm32h7xx_hal_dcmi.c ****     /* Abort the DMA Transfer */
 632:Drivers/STM32H7xx_HAL_Driver/Src/stm32h7xx_hal_dcmi.c ****     (void)HAL_DMA_Abort_IT(hdcmi->DMA_Handle);
 633:Drivers/STM32H7xx_HAL_Driver/Src/stm32h7xx_hal_dcmi.c ****   }
 634:Drivers/STM32H7xx_HAL_Driver/Src/stm32h7xx_hal_dcmi.c ****   /* Line Interrupt management ************************************************/
 635:Drivers/STM32H7xx_HAL_Driver/Src/stm32h7xx_hal_dcmi.c ****   if ((isr_value & DCMI_FLAG_LINERI) == DCMI_FLAG_LINERI)
 636:Drivers/STM32H7xx_HAL_Driver/Src/stm32h7xx_hal_dcmi.c ****   {
 637:Drivers/STM32H7xx_HAL_Driver/Src/stm32h7xx_hal_dcmi.c ****     /* Clear the Line interrupt flag */
 638:Drivers/STM32H7xx_HAL_Driver/Src/stm32h7xx_hal_dcmi.c ****     __HAL_DCMI_CLEAR_FLAG(hdcmi, DCMI_FLAG_LINERI);
 639:Drivers/STM32H7xx_HAL_Driver/Src/stm32h7xx_hal_dcmi.c **** 
 640:Drivers/STM32H7xx_HAL_Driver/Src/stm32h7xx_hal_dcmi.c ****     /* Line interrupt Callback */
 641:Drivers/STM32H7xx_HAL_Driver/Src/stm32h7xx_hal_dcmi.c **** #if (USE_HAL_DCMI_REGISTER_CALLBACKS == 1)
 642:Drivers/STM32H7xx_HAL_Driver/Src/stm32h7xx_hal_dcmi.c ****     /*Call registered DCMI line event callback*/
 643:Drivers/STM32H7xx_HAL_Driver/Src/stm32h7xx_hal_dcmi.c ****     hdcmi->LineEventCallback(hdcmi);
 644:Drivers/STM32H7xx_HAL_Driver/Src/stm32h7xx_hal_dcmi.c **** #else
 645:Drivers/STM32H7xx_HAL_Driver/Src/stm32h7xx_hal_dcmi.c ****     HAL_DCMI_LineEventCallback(hdcmi);
 646:Drivers/STM32H7xx_HAL_Driver/Src/stm32h7xx_hal_dcmi.c **** #endif /* USE_HAL_DCMI_REGISTER_CALLBACKS */
 647:Drivers/STM32H7xx_HAL_Driver/Src/stm32h7xx_hal_dcmi.c ****   }
 648:Drivers/STM32H7xx_HAL_Driver/Src/stm32h7xx_hal_dcmi.c ****   /* VSYNC interrupt management ***********************************************/
 649:Drivers/STM32H7xx_HAL_Driver/Src/stm32h7xx_hal_dcmi.c ****   if ((isr_value & DCMI_FLAG_VSYNCRI) == DCMI_FLAG_VSYNCRI)
 650:Drivers/STM32H7xx_HAL_Driver/Src/stm32h7xx_hal_dcmi.c ****   {
 651:Drivers/STM32H7xx_HAL_Driver/Src/stm32h7xx_hal_dcmi.c ****     /* Clear the VSYNC flag */
 652:Drivers/STM32H7xx_HAL_Driver/Src/stm32h7xx_hal_dcmi.c ****     __HAL_DCMI_CLEAR_FLAG(hdcmi, DCMI_FLAG_VSYNCRI);
 653:Drivers/STM32H7xx_HAL_Driver/Src/stm32h7xx_hal_dcmi.c **** 
 654:Drivers/STM32H7xx_HAL_Driver/Src/stm32h7xx_hal_dcmi.c ****     /* VSYNC Callback */
 655:Drivers/STM32H7xx_HAL_Driver/Src/stm32h7xx_hal_dcmi.c **** #if (USE_HAL_DCMI_REGISTER_CALLBACKS == 1)
 656:Drivers/STM32H7xx_HAL_Driver/Src/stm32h7xx_hal_dcmi.c ****     /*Call registered DCMI vsync event callback*/
 657:Drivers/STM32H7xx_HAL_Driver/Src/stm32h7xx_hal_dcmi.c ****     hdcmi->VsyncEventCallback(hdcmi);
 658:Drivers/STM32H7xx_HAL_Driver/Src/stm32h7xx_hal_dcmi.c **** #else
ARM GAS  /tmp/ccYwYWEs.s 			page 13


 659:Drivers/STM32H7xx_HAL_Driver/Src/stm32h7xx_hal_dcmi.c ****     HAL_DCMI_VsyncEventCallback(hdcmi);
 660:Drivers/STM32H7xx_HAL_Driver/Src/stm32h7xx_hal_dcmi.c **** #endif /* USE_HAL_DCMI_REGISTER_CALLBACKS */
 661:Drivers/STM32H7xx_HAL_Driver/Src/stm32h7xx_hal_dcmi.c ****   }
 662:Drivers/STM32H7xx_HAL_Driver/Src/stm32h7xx_hal_dcmi.c ****   /* FRAME interrupt management ***********************************************/
 663:Drivers/STM32H7xx_HAL_Driver/Src/stm32h7xx_hal_dcmi.c ****   if ((isr_value & DCMI_FLAG_FRAMERI) == DCMI_FLAG_FRAMERI)
 664:Drivers/STM32H7xx_HAL_Driver/Src/stm32h7xx_hal_dcmi.c ****   {
 665:Drivers/STM32H7xx_HAL_Driver/Src/stm32h7xx_hal_dcmi.c ****     /* When snapshot mode, disable Vsync, Error and Overrun interrupts */
 666:Drivers/STM32H7xx_HAL_Driver/Src/stm32h7xx_hal_dcmi.c ****     if ((hdcmi->Instance->CR & DCMI_CR_CM) == DCMI_MODE_SNAPSHOT)
 667:Drivers/STM32H7xx_HAL_Driver/Src/stm32h7xx_hal_dcmi.c ****     {
 668:Drivers/STM32H7xx_HAL_Driver/Src/stm32h7xx_hal_dcmi.c ****       /* Disable the Line, Vsync, Error and Overrun interrupts */
 669:Drivers/STM32H7xx_HAL_Driver/Src/stm32h7xx_hal_dcmi.c ****       __HAL_DCMI_DISABLE_IT(hdcmi, DCMI_IT_LINE | DCMI_IT_VSYNC | DCMI_IT_ERR | DCMI_IT_OVR);
 670:Drivers/STM32H7xx_HAL_Driver/Src/stm32h7xx_hal_dcmi.c ****     }
 671:Drivers/STM32H7xx_HAL_Driver/Src/stm32h7xx_hal_dcmi.c **** 
 672:Drivers/STM32H7xx_HAL_Driver/Src/stm32h7xx_hal_dcmi.c ****     /* Disable the Frame interrupt */
 673:Drivers/STM32H7xx_HAL_Driver/Src/stm32h7xx_hal_dcmi.c ****     __HAL_DCMI_DISABLE_IT(hdcmi, DCMI_IT_FRAME);
 674:Drivers/STM32H7xx_HAL_Driver/Src/stm32h7xx_hal_dcmi.c **** 
 675:Drivers/STM32H7xx_HAL_Driver/Src/stm32h7xx_hal_dcmi.c ****     /* Clear the End of Frame flag */
 676:Drivers/STM32H7xx_HAL_Driver/Src/stm32h7xx_hal_dcmi.c ****     __HAL_DCMI_CLEAR_FLAG(hdcmi, DCMI_FLAG_FRAMERI);
 677:Drivers/STM32H7xx_HAL_Driver/Src/stm32h7xx_hal_dcmi.c **** 
 678:Drivers/STM32H7xx_HAL_Driver/Src/stm32h7xx_hal_dcmi.c ****     /* Frame Callback */
 679:Drivers/STM32H7xx_HAL_Driver/Src/stm32h7xx_hal_dcmi.c **** #if (USE_HAL_DCMI_REGISTER_CALLBACKS == 1)
 680:Drivers/STM32H7xx_HAL_Driver/Src/stm32h7xx_hal_dcmi.c ****     /*Call registered DCMI frame event callback*/
 681:Drivers/STM32H7xx_HAL_Driver/Src/stm32h7xx_hal_dcmi.c ****     hdcmi->FrameEventCallback(hdcmi);
 682:Drivers/STM32H7xx_HAL_Driver/Src/stm32h7xx_hal_dcmi.c **** #else
 683:Drivers/STM32H7xx_HAL_Driver/Src/stm32h7xx_hal_dcmi.c ****     HAL_DCMI_FrameEventCallback(hdcmi);
 684:Drivers/STM32H7xx_HAL_Driver/Src/stm32h7xx_hal_dcmi.c **** #endif /* USE_HAL_DCMI_REGISTER_CALLBACKS */
 685:Drivers/STM32H7xx_HAL_Driver/Src/stm32h7xx_hal_dcmi.c ****   }
 686:Drivers/STM32H7xx_HAL_Driver/Src/stm32h7xx_hal_dcmi.c **** }
 687:Drivers/STM32H7xx_HAL_Driver/Src/stm32h7xx_hal_dcmi.c **** 
 688:Drivers/STM32H7xx_HAL_Driver/Src/stm32h7xx_hal_dcmi.c **** /**
 689:Drivers/STM32H7xx_HAL_Driver/Src/stm32h7xx_hal_dcmi.c ****   * @brief  Error DCMI callback.
 690:Drivers/STM32H7xx_HAL_Driver/Src/stm32h7xx_hal_dcmi.c ****   * @param  hdcmi pointer to a DCMI_HandleTypeDef structure that contains
 691:Drivers/STM32H7xx_HAL_Driver/Src/stm32h7xx_hal_dcmi.c ****   *                the configuration information for DCMI.
 692:Drivers/STM32H7xx_HAL_Driver/Src/stm32h7xx_hal_dcmi.c ****   * @retval None
 693:Drivers/STM32H7xx_HAL_Driver/Src/stm32h7xx_hal_dcmi.c ****   */
 694:Drivers/STM32H7xx_HAL_Driver/Src/stm32h7xx_hal_dcmi.c **** __weak void HAL_DCMI_ErrorCallback(DCMI_HandleTypeDef *hdcmi)
 695:Drivers/STM32H7xx_HAL_Driver/Src/stm32h7xx_hal_dcmi.c **** {
 696:Drivers/STM32H7xx_HAL_Driver/Src/stm32h7xx_hal_dcmi.c ****   /* Prevent unused argument(s) compilation warning */
 697:Drivers/STM32H7xx_HAL_Driver/Src/stm32h7xx_hal_dcmi.c ****   UNUSED(hdcmi);
 698:Drivers/STM32H7xx_HAL_Driver/Src/stm32h7xx_hal_dcmi.c **** 
 699:Drivers/STM32H7xx_HAL_Driver/Src/stm32h7xx_hal_dcmi.c ****   /* NOTE : This function Should not be modified, when the callback is needed,
 700:Drivers/STM32H7xx_HAL_Driver/Src/stm32h7xx_hal_dcmi.c ****             the HAL_DCMI_ErrorCallback could be implemented in the user file
 701:Drivers/STM32H7xx_HAL_Driver/Src/stm32h7xx_hal_dcmi.c ****    */
 702:Drivers/STM32H7xx_HAL_Driver/Src/stm32h7xx_hal_dcmi.c **** }
 703:Drivers/STM32H7xx_HAL_Driver/Src/stm32h7xx_hal_dcmi.c **** 
 704:Drivers/STM32H7xx_HAL_Driver/Src/stm32h7xx_hal_dcmi.c **** /**
 705:Drivers/STM32H7xx_HAL_Driver/Src/stm32h7xx_hal_dcmi.c ****   * @brief  Line Event callback.
 706:Drivers/STM32H7xx_HAL_Driver/Src/stm32h7xx_hal_dcmi.c ****   * @param  hdcmi pointer to a DCMI_HandleTypeDef structure that contains
 707:Drivers/STM32H7xx_HAL_Driver/Src/stm32h7xx_hal_dcmi.c ****   *                the configuration information for DCMI.
 708:Drivers/STM32H7xx_HAL_Driver/Src/stm32h7xx_hal_dcmi.c ****   * @retval None
 709:Drivers/STM32H7xx_HAL_Driver/Src/stm32h7xx_hal_dcmi.c ****   */
 710:Drivers/STM32H7xx_HAL_Driver/Src/stm32h7xx_hal_dcmi.c **** __weak void HAL_DCMI_LineEventCallback(DCMI_HandleTypeDef *hdcmi)
 711:Drivers/STM32H7xx_HAL_Driver/Src/stm32h7xx_hal_dcmi.c **** {
 712:Drivers/STM32H7xx_HAL_Driver/Src/stm32h7xx_hal_dcmi.c ****   /* Prevent unused argument(s) compilation warning */
 713:Drivers/STM32H7xx_HAL_Driver/Src/stm32h7xx_hal_dcmi.c ****   UNUSED(hdcmi);
 714:Drivers/STM32H7xx_HAL_Driver/Src/stm32h7xx_hal_dcmi.c ****   /* NOTE : This function Should not be modified, when the callback is needed,
 715:Drivers/STM32H7xx_HAL_Driver/Src/stm32h7xx_hal_dcmi.c ****             the HAL_DCMI_LineEventCallback could be implemented in the user file
ARM GAS  /tmp/ccYwYWEs.s 			page 14


 716:Drivers/STM32H7xx_HAL_Driver/Src/stm32h7xx_hal_dcmi.c ****    */
 717:Drivers/STM32H7xx_HAL_Driver/Src/stm32h7xx_hal_dcmi.c **** }
 718:Drivers/STM32H7xx_HAL_Driver/Src/stm32h7xx_hal_dcmi.c **** 
 719:Drivers/STM32H7xx_HAL_Driver/Src/stm32h7xx_hal_dcmi.c **** /**
 720:Drivers/STM32H7xx_HAL_Driver/Src/stm32h7xx_hal_dcmi.c ****   * @brief  VSYNC Event callback.
 721:Drivers/STM32H7xx_HAL_Driver/Src/stm32h7xx_hal_dcmi.c ****   * @param  hdcmi pointer to a DCMI_HandleTypeDef structure that contains
 722:Drivers/STM32H7xx_HAL_Driver/Src/stm32h7xx_hal_dcmi.c ****   *                the configuration information for DCMI.
 723:Drivers/STM32H7xx_HAL_Driver/Src/stm32h7xx_hal_dcmi.c ****   * @retval None
 724:Drivers/STM32H7xx_HAL_Driver/Src/stm32h7xx_hal_dcmi.c ****   */
 725:Drivers/STM32H7xx_HAL_Driver/Src/stm32h7xx_hal_dcmi.c **** __weak void HAL_DCMI_VsyncEventCallback(DCMI_HandleTypeDef *hdcmi)
 726:Drivers/STM32H7xx_HAL_Driver/Src/stm32h7xx_hal_dcmi.c **** {
 727:Drivers/STM32H7xx_HAL_Driver/Src/stm32h7xx_hal_dcmi.c ****   /* Prevent unused argument(s) compilation warning */
 728:Drivers/STM32H7xx_HAL_Driver/Src/stm32h7xx_hal_dcmi.c ****   UNUSED(hdcmi);
 729:Drivers/STM32H7xx_HAL_Driver/Src/stm32h7xx_hal_dcmi.c **** 
 730:Drivers/STM32H7xx_HAL_Driver/Src/stm32h7xx_hal_dcmi.c ****   /* NOTE : This function Should not be modified, when the callback is needed,
 731:Drivers/STM32H7xx_HAL_Driver/Src/stm32h7xx_hal_dcmi.c ****             the HAL_DCMI_VsyncEventCallback could be implemented in the user file
 732:Drivers/STM32H7xx_HAL_Driver/Src/stm32h7xx_hal_dcmi.c ****    */
 733:Drivers/STM32H7xx_HAL_Driver/Src/stm32h7xx_hal_dcmi.c **** }
 734:Drivers/STM32H7xx_HAL_Driver/Src/stm32h7xx_hal_dcmi.c **** 
 735:Drivers/STM32H7xx_HAL_Driver/Src/stm32h7xx_hal_dcmi.c **** /**
 736:Drivers/STM32H7xx_HAL_Driver/Src/stm32h7xx_hal_dcmi.c ****   * @brief  Frame Event callback.
 737:Drivers/STM32H7xx_HAL_Driver/Src/stm32h7xx_hal_dcmi.c ****   * @param  hdcmi pointer to a DCMI_HandleTypeDef structure that contains
 738:Drivers/STM32H7xx_HAL_Driver/Src/stm32h7xx_hal_dcmi.c ****   *                the configuration information for DCMI.
 739:Drivers/STM32H7xx_HAL_Driver/Src/stm32h7xx_hal_dcmi.c ****   * @retval None
 740:Drivers/STM32H7xx_HAL_Driver/Src/stm32h7xx_hal_dcmi.c ****   */
 741:Drivers/STM32H7xx_HAL_Driver/Src/stm32h7xx_hal_dcmi.c **** __weak void HAL_DCMI_FrameEventCallback(DCMI_HandleTypeDef *hdcmi)
 742:Drivers/STM32H7xx_HAL_Driver/Src/stm32h7xx_hal_dcmi.c **** {
 743:Drivers/STM32H7xx_HAL_Driver/Src/stm32h7xx_hal_dcmi.c ****   /* Prevent unused argument(s) compilation warning */
 744:Drivers/STM32H7xx_HAL_Driver/Src/stm32h7xx_hal_dcmi.c ****   UNUSED(hdcmi);
 745:Drivers/STM32H7xx_HAL_Driver/Src/stm32h7xx_hal_dcmi.c **** 
 746:Drivers/STM32H7xx_HAL_Driver/Src/stm32h7xx_hal_dcmi.c ****   /* NOTE : This function Should not be modified, when the callback is needed,
 747:Drivers/STM32H7xx_HAL_Driver/Src/stm32h7xx_hal_dcmi.c ****             the HAL_DCMI_FrameEventCallback could be implemented in the user file
 748:Drivers/STM32H7xx_HAL_Driver/Src/stm32h7xx_hal_dcmi.c ****    */
 749:Drivers/STM32H7xx_HAL_Driver/Src/stm32h7xx_hal_dcmi.c **** }
 750:Drivers/STM32H7xx_HAL_Driver/Src/stm32h7xx_hal_dcmi.c **** 
 751:Drivers/STM32H7xx_HAL_Driver/Src/stm32h7xx_hal_dcmi.c **** /**
 752:Drivers/STM32H7xx_HAL_Driver/Src/stm32h7xx_hal_dcmi.c ****   * @}
 753:Drivers/STM32H7xx_HAL_Driver/Src/stm32h7xx_hal_dcmi.c ****   */
 754:Drivers/STM32H7xx_HAL_Driver/Src/stm32h7xx_hal_dcmi.c **** 
 755:Drivers/STM32H7xx_HAL_Driver/Src/stm32h7xx_hal_dcmi.c **** /** @defgroup DCMI_Exported_Functions_Group3 Peripheral Control functions
 756:Drivers/STM32H7xx_HAL_Driver/Src/stm32h7xx_hal_dcmi.c ****  *  @brief    Peripheral Control functions
 757:Drivers/STM32H7xx_HAL_Driver/Src/stm32h7xx_hal_dcmi.c ****  *
 758:Drivers/STM32H7xx_HAL_Driver/Src/stm32h7xx_hal_dcmi.c **** @verbatim
 759:Drivers/STM32H7xx_HAL_Driver/Src/stm32h7xx_hal_dcmi.c ****  ===============================================================================
 760:Drivers/STM32H7xx_HAL_Driver/Src/stm32h7xx_hal_dcmi.c ****                     ##### Peripheral Control functions #####
 761:Drivers/STM32H7xx_HAL_Driver/Src/stm32h7xx_hal_dcmi.c ****  ===============================================================================
 762:Drivers/STM32H7xx_HAL_Driver/Src/stm32h7xx_hal_dcmi.c **** [..]  This section provides functions allowing to:
 763:Drivers/STM32H7xx_HAL_Driver/Src/stm32h7xx_hal_dcmi.c ****       (+) Configure the CROP feature.
 764:Drivers/STM32H7xx_HAL_Driver/Src/stm32h7xx_hal_dcmi.c ****       (+) Enable/Disable the CROP feature.
 765:Drivers/STM32H7xx_HAL_Driver/Src/stm32h7xx_hal_dcmi.c ****       (+) Set embedded synchronization delimiters unmasks.
 766:Drivers/STM32H7xx_HAL_Driver/Src/stm32h7xx_hal_dcmi.c **** 
 767:Drivers/STM32H7xx_HAL_Driver/Src/stm32h7xx_hal_dcmi.c **** @endverbatim
 768:Drivers/STM32H7xx_HAL_Driver/Src/stm32h7xx_hal_dcmi.c ****   * @{
 769:Drivers/STM32H7xx_HAL_Driver/Src/stm32h7xx_hal_dcmi.c ****   */
 770:Drivers/STM32H7xx_HAL_Driver/Src/stm32h7xx_hal_dcmi.c **** 
 771:Drivers/STM32H7xx_HAL_Driver/Src/stm32h7xx_hal_dcmi.c **** /**
 772:Drivers/STM32H7xx_HAL_Driver/Src/stm32h7xx_hal_dcmi.c ****   * @brief  Configure the DCMI CROP coordinate.
ARM GAS  /tmp/ccYwYWEs.s 			page 15


 773:Drivers/STM32H7xx_HAL_Driver/Src/stm32h7xx_hal_dcmi.c ****   * @param  hdcmi pointer to a DCMI_HandleTypeDef structure that contains
 774:Drivers/STM32H7xx_HAL_Driver/Src/stm32h7xx_hal_dcmi.c ****   *                the configuration information for DCMI.
 775:Drivers/STM32H7xx_HAL_Driver/Src/stm32h7xx_hal_dcmi.c ****   * @param  YSize DCMI Line number
 776:Drivers/STM32H7xx_HAL_Driver/Src/stm32h7xx_hal_dcmi.c ****   * @param  XSize DCMI Pixel per line
 777:Drivers/STM32H7xx_HAL_Driver/Src/stm32h7xx_hal_dcmi.c ****   * @param  X0    DCMI window X offset
 778:Drivers/STM32H7xx_HAL_Driver/Src/stm32h7xx_hal_dcmi.c ****   * @param  Y0    DCMI window Y offset
 779:Drivers/STM32H7xx_HAL_Driver/Src/stm32h7xx_hal_dcmi.c ****   * @retval HAL status
 780:Drivers/STM32H7xx_HAL_Driver/Src/stm32h7xx_hal_dcmi.c ****   */
 781:Drivers/STM32H7xx_HAL_Driver/Src/stm32h7xx_hal_dcmi.c **** HAL_StatusTypeDef HAL_DCMI_ConfigCrop(DCMI_HandleTypeDef *hdcmi, uint32_t X0, uint32_t Y0, uint32_t
 782:Drivers/STM32H7xx_HAL_Driver/Src/stm32h7xx_hal_dcmi.c **** {
 783:Drivers/STM32H7xx_HAL_Driver/Src/stm32h7xx_hal_dcmi.c ****   /* Process Locked */
 784:Drivers/STM32H7xx_HAL_Driver/Src/stm32h7xx_hal_dcmi.c ****   __HAL_LOCK(hdcmi);
 785:Drivers/STM32H7xx_HAL_Driver/Src/stm32h7xx_hal_dcmi.c **** 
 786:Drivers/STM32H7xx_HAL_Driver/Src/stm32h7xx_hal_dcmi.c ****   /* Lock the DCMI peripheral state */
 787:Drivers/STM32H7xx_HAL_Driver/Src/stm32h7xx_hal_dcmi.c ****   hdcmi->State = HAL_DCMI_STATE_BUSY;
 788:Drivers/STM32H7xx_HAL_Driver/Src/stm32h7xx_hal_dcmi.c **** 
 789:Drivers/STM32H7xx_HAL_Driver/Src/stm32h7xx_hal_dcmi.c ****   /* Check the parameters */
 790:Drivers/STM32H7xx_HAL_Driver/Src/stm32h7xx_hal_dcmi.c ****   assert_param(IS_DCMI_WINDOW_COORDINATE(X0));
 791:Drivers/STM32H7xx_HAL_Driver/Src/stm32h7xx_hal_dcmi.c ****   assert_param(IS_DCMI_WINDOW_HEIGHT(Y0));
 792:Drivers/STM32H7xx_HAL_Driver/Src/stm32h7xx_hal_dcmi.c ****   assert_param(IS_DCMI_WINDOW_COORDINATE(XSize));
 793:Drivers/STM32H7xx_HAL_Driver/Src/stm32h7xx_hal_dcmi.c ****   assert_param(IS_DCMI_WINDOW_COORDINATE(YSize));
 794:Drivers/STM32H7xx_HAL_Driver/Src/stm32h7xx_hal_dcmi.c **** 
 795:Drivers/STM32H7xx_HAL_Driver/Src/stm32h7xx_hal_dcmi.c ****   /* Configure CROP */
 796:Drivers/STM32H7xx_HAL_Driver/Src/stm32h7xx_hal_dcmi.c ****   hdcmi->Instance->CWSIZER = (XSize | (YSize << DCMI_CWSIZE_VLINE_Pos));
 797:Drivers/STM32H7xx_HAL_Driver/Src/stm32h7xx_hal_dcmi.c ****   hdcmi->Instance->CWSTRTR = (X0 | (Y0 << DCMI_CWSTRT_VST_Pos));
 798:Drivers/STM32H7xx_HAL_Driver/Src/stm32h7xx_hal_dcmi.c **** 
 799:Drivers/STM32H7xx_HAL_Driver/Src/stm32h7xx_hal_dcmi.c ****   /* Initialize the DCMI state*/
 800:Drivers/STM32H7xx_HAL_Driver/Src/stm32h7xx_hal_dcmi.c ****   hdcmi->State  = HAL_DCMI_STATE_READY;
 801:Drivers/STM32H7xx_HAL_Driver/Src/stm32h7xx_hal_dcmi.c **** 
 802:Drivers/STM32H7xx_HAL_Driver/Src/stm32h7xx_hal_dcmi.c ****   /* Process Unlocked */
 803:Drivers/STM32H7xx_HAL_Driver/Src/stm32h7xx_hal_dcmi.c ****   __HAL_UNLOCK(hdcmi);
 804:Drivers/STM32H7xx_HAL_Driver/Src/stm32h7xx_hal_dcmi.c **** 
 805:Drivers/STM32H7xx_HAL_Driver/Src/stm32h7xx_hal_dcmi.c ****   return HAL_OK;
 806:Drivers/STM32H7xx_HAL_Driver/Src/stm32h7xx_hal_dcmi.c **** }
 807:Drivers/STM32H7xx_HAL_Driver/Src/stm32h7xx_hal_dcmi.c **** 
 808:Drivers/STM32H7xx_HAL_Driver/Src/stm32h7xx_hal_dcmi.c **** /**
 809:Drivers/STM32H7xx_HAL_Driver/Src/stm32h7xx_hal_dcmi.c ****   * @brief  Disable the Crop feature.
 810:Drivers/STM32H7xx_HAL_Driver/Src/stm32h7xx_hal_dcmi.c ****   * @param  hdcmi pointer to a DCMI_HandleTypeDef structure that contains
 811:Drivers/STM32H7xx_HAL_Driver/Src/stm32h7xx_hal_dcmi.c ****   *                the configuration information for DCMI.
 812:Drivers/STM32H7xx_HAL_Driver/Src/stm32h7xx_hal_dcmi.c ****   * @retval HAL status
 813:Drivers/STM32H7xx_HAL_Driver/Src/stm32h7xx_hal_dcmi.c ****   */
 814:Drivers/STM32H7xx_HAL_Driver/Src/stm32h7xx_hal_dcmi.c **** HAL_StatusTypeDef HAL_DCMI_DisableCrop(DCMI_HandleTypeDef *hdcmi)
 815:Drivers/STM32H7xx_HAL_Driver/Src/stm32h7xx_hal_dcmi.c **** {
 816:Drivers/STM32H7xx_HAL_Driver/Src/stm32h7xx_hal_dcmi.c ****   /* Process Locked */
 817:Drivers/STM32H7xx_HAL_Driver/Src/stm32h7xx_hal_dcmi.c ****   __HAL_LOCK(hdcmi);
 818:Drivers/STM32H7xx_HAL_Driver/Src/stm32h7xx_hal_dcmi.c **** 
 819:Drivers/STM32H7xx_HAL_Driver/Src/stm32h7xx_hal_dcmi.c ****   /* Lock the DCMI peripheral state */
 820:Drivers/STM32H7xx_HAL_Driver/Src/stm32h7xx_hal_dcmi.c ****   hdcmi->State = HAL_DCMI_STATE_BUSY;
 821:Drivers/STM32H7xx_HAL_Driver/Src/stm32h7xx_hal_dcmi.c **** 
 822:Drivers/STM32H7xx_HAL_Driver/Src/stm32h7xx_hal_dcmi.c ****   /* Disable DCMI Crop feature */
 823:Drivers/STM32H7xx_HAL_Driver/Src/stm32h7xx_hal_dcmi.c ****   hdcmi->Instance->CR &= ~(uint32_t)DCMI_CR_CROP;
 824:Drivers/STM32H7xx_HAL_Driver/Src/stm32h7xx_hal_dcmi.c **** 
 825:Drivers/STM32H7xx_HAL_Driver/Src/stm32h7xx_hal_dcmi.c ****   /* Change the DCMI state*/
 826:Drivers/STM32H7xx_HAL_Driver/Src/stm32h7xx_hal_dcmi.c ****   hdcmi->State = HAL_DCMI_STATE_READY;
 827:Drivers/STM32H7xx_HAL_Driver/Src/stm32h7xx_hal_dcmi.c **** 
 828:Drivers/STM32H7xx_HAL_Driver/Src/stm32h7xx_hal_dcmi.c ****   /* Process Unlocked */
 829:Drivers/STM32H7xx_HAL_Driver/Src/stm32h7xx_hal_dcmi.c ****   __HAL_UNLOCK(hdcmi);
ARM GAS  /tmp/ccYwYWEs.s 			page 16


 830:Drivers/STM32H7xx_HAL_Driver/Src/stm32h7xx_hal_dcmi.c **** 
 831:Drivers/STM32H7xx_HAL_Driver/Src/stm32h7xx_hal_dcmi.c ****   return HAL_OK;
 832:Drivers/STM32H7xx_HAL_Driver/Src/stm32h7xx_hal_dcmi.c **** }
 833:Drivers/STM32H7xx_HAL_Driver/Src/stm32h7xx_hal_dcmi.c **** 
 834:Drivers/STM32H7xx_HAL_Driver/Src/stm32h7xx_hal_dcmi.c **** /**
 835:Drivers/STM32H7xx_HAL_Driver/Src/stm32h7xx_hal_dcmi.c ****   * @brief  Enable the Crop feature.
 836:Drivers/STM32H7xx_HAL_Driver/Src/stm32h7xx_hal_dcmi.c ****   * @param  hdcmi pointer to a DCMI_HandleTypeDef structure that contains
 837:Drivers/STM32H7xx_HAL_Driver/Src/stm32h7xx_hal_dcmi.c ****   *                the configuration information for DCMI.
 838:Drivers/STM32H7xx_HAL_Driver/Src/stm32h7xx_hal_dcmi.c ****   * @retval HAL status
 839:Drivers/STM32H7xx_HAL_Driver/Src/stm32h7xx_hal_dcmi.c ****   */
 840:Drivers/STM32H7xx_HAL_Driver/Src/stm32h7xx_hal_dcmi.c **** HAL_StatusTypeDef HAL_DCMI_EnableCrop(DCMI_HandleTypeDef *hdcmi)
 841:Drivers/STM32H7xx_HAL_Driver/Src/stm32h7xx_hal_dcmi.c **** {
 842:Drivers/STM32H7xx_HAL_Driver/Src/stm32h7xx_hal_dcmi.c ****   /* Process Locked */
 843:Drivers/STM32H7xx_HAL_Driver/Src/stm32h7xx_hal_dcmi.c ****   __HAL_LOCK(hdcmi);
 844:Drivers/STM32H7xx_HAL_Driver/Src/stm32h7xx_hal_dcmi.c **** 
 845:Drivers/STM32H7xx_HAL_Driver/Src/stm32h7xx_hal_dcmi.c ****   /* Lock the DCMI peripheral state */
 846:Drivers/STM32H7xx_HAL_Driver/Src/stm32h7xx_hal_dcmi.c ****   hdcmi->State = HAL_DCMI_STATE_BUSY;
 847:Drivers/STM32H7xx_HAL_Driver/Src/stm32h7xx_hal_dcmi.c **** 
 848:Drivers/STM32H7xx_HAL_Driver/Src/stm32h7xx_hal_dcmi.c ****   /* Enable DCMI Crop feature */
 849:Drivers/STM32H7xx_HAL_Driver/Src/stm32h7xx_hal_dcmi.c ****   hdcmi->Instance->CR |= (uint32_t)DCMI_CR_CROP;
 850:Drivers/STM32H7xx_HAL_Driver/Src/stm32h7xx_hal_dcmi.c **** 
 851:Drivers/STM32H7xx_HAL_Driver/Src/stm32h7xx_hal_dcmi.c ****   /* Change the DCMI state*/
 852:Drivers/STM32H7xx_HAL_Driver/Src/stm32h7xx_hal_dcmi.c ****   hdcmi->State = HAL_DCMI_STATE_READY;
 853:Drivers/STM32H7xx_HAL_Driver/Src/stm32h7xx_hal_dcmi.c **** 
 854:Drivers/STM32H7xx_HAL_Driver/Src/stm32h7xx_hal_dcmi.c ****   /* Process Unlocked */
 855:Drivers/STM32H7xx_HAL_Driver/Src/stm32h7xx_hal_dcmi.c ****   __HAL_UNLOCK(hdcmi);
 856:Drivers/STM32H7xx_HAL_Driver/Src/stm32h7xx_hal_dcmi.c **** 
 857:Drivers/STM32H7xx_HAL_Driver/Src/stm32h7xx_hal_dcmi.c ****   return HAL_OK;
 858:Drivers/STM32H7xx_HAL_Driver/Src/stm32h7xx_hal_dcmi.c **** }
 859:Drivers/STM32H7xx_HAL_Driver/Src/stm32h7xx_hal_dcmi.c **** 
 860:Drivers/STM32H7xx_HAL_Driver/Src/stm32h7xx_hal_dcmi.c **** /**
 861:Drivers/STM32H7xx_HAL_Driver/Src/stm32h7xx_hal_dcmi.c ****   * @brief  Set embedded synchronization delimiters unmasks.
 862:Drivers/STM32H7xx_HAL_Driver/Src/stm32h7xx_hal_dcmi.c ****   * @param  hdcmi pointer to a DCMI_HandleTypeDef structure that contains
 863:Drivers/STM32H7xx_HAL_Driver/Src/stm32h7xx_hal_dcmi.c ****   *               the configuration information for DCMI.
 864:Drivers/STM32H7xx_HAL_Driver/Src/stm32h7xx_hal_dcmi.c ****   * @param  SyncUnmask pointer to a DCMI_SyncUnmaskTypeDef structure that contains
 865:Drivers/STM32H7xx_HAL_Driver/Src/stm32h7xx_hal_dcmi.c ****   *                    the embedded synchronization delimiters unmasks.
 866:Drivers/STM32H7xx_HAL_Driver/Src/stm32h7xx_hal_dcmi.c ****   * @retval HAL status
 867:Drivers/STM32H7xx_HAL_Driver/Src/stm32h7xx_hal_dcmi.c ****   */
 868:Drivers/STM32H7xx_HAL_Driver/Src/stm32h7xx_hal_dcmi.c **** HAL_StatusTypeDef  HAL_DCMI_ConfigSyncUnmask(DCMI_HandleTypeDef *hdcmi, DCMI_SyncUnmaskTypeDef *Syn
 869:Drivers/STM32H7xx_HAL_Driver/Src/stm32h7xx_hal_dcmi.c **** {
 870:Drivers/STM32H7xx_HAL_Driver/Src/stm32h7xx_hal_dcmi.c ****   /* Process Locked */
 871:Drivers/STM32H7xx_HAL_Driver/Src/stm32h7xx_hal_dcmi.c ****   __HAL_LOCK(hdcmi);
 872:Drivers/STM32H7xx_HAL_Driver/Src/stm32h7xx_hal_dcmi.c **** 
 873:Drivers/STM32H7xx_HAL_Driver/Src/stm32h7xx_hal_dcmi.c ****   /* Lock the DCMI peripheral state */
 874:Drivers/STM32H7xx_HAL_Driver/Src/stm32h7xx_hal_dcmi.c ****   hdcmi->State = HAL_DCMI_STATE_BUSY;
 875:Drivers/STM32H7xx_HAL_Driver/Src/stm32h7xx_hal_dcmi.c **** 
 876:Drivers/STM32H7xx_HAL_Driver/Src/stm32h7xx_hal_dcmi.c ****   /* Write DCMI embedded synchronization unmask register */
 877:Drivers/STM32H7xx_HAL_Driver/Src/stm32h7xx_hal_dcmi.c ****   hdcmi->Instance->ESUR = (((uint32_t)SyncUnmask->FrameStartUnmask) | \
 878:Drivers/STM32H7xx_HAL_Driver/Src/stm32h7xx_hal_dcmi.c ****                            ((uint32_t)SyncUnmask->LineStartUnmask << DCMI_ESUR_LSU_Pos) | \
 879:Drivers/STM32H7xx_HAL_Driver/Src/stm32h7xx_hal_dcmi.c ****                            ((uint32_t)SyncUnmask->LineEndUnmask << DCMI_ESUR_LEU_Pos) | \
 880:Drivers/STM32H7xx_HAL_Driver/Src/stm32h7xx_hal_dcmi.c ****                            ((uint32_t)SyncUnmask->FrameEndUnmask << DCMI_ESUR_FEU_Pos));
 881:Drivers/STM32H7xx_HAL_Driver/Src/stm32h7xx_hal_dcmi.c **** 
 882:Drivers/STM32H7xx_HAL_Driver/Src/stm32h7xx_hal_dcmi.c ****   /* Change the DCMI state*/
 883:Drivers/STM32H7xx_HAL_Driver/Src/stm32h7xx_hal_dcmi.c ****   hdcmi->State = HAL_DCMI_STATE_READY;
 884:Drivers/STM32H7xx_HAL_Driver/Src/stm32h7xx_hal_dcmi.c **** 
 885:Drivers/STM32H7xx_HAL_Driver/Src/stm32h7xx_hal_dcmi.c ****   /* Process Unlocked */
 886:Drivers/STM32H7xx_HAL_Driver/Src/stm32h7xx_hal_dcmi.c ****   __HAL_UNLOCK(hdcmi);
ARM GAS  /tmp/ccYwYWEs.s 			page 17


 887:Drivers/STM32H7xx_HAL_Driver/Src/stm32h7xx_hal_dcmi.c **** 
 888:Drivers/STM32H7xx_HAL_Driver/Src/stm32h7xx_hal_dcmi.c ****   return HAL_OK;
 889:Drivers/STM32H7xx_HAL_Driver/Src/stm32h7xx_hal_dcmi.c **** }
 890:Drivers/STM32H7xx_HAL_Driver/Src/stm32h7xx_hal_dcmi.c **** 
 891:Drivers/STM32H7xx_HAL_Driver/Src/stm32h7xx_hal_dcmi.c **** /**
 892:Drivers/STM32H7xx_HAL_Driver/Src/stm32h7xx_hal_dcmi.c ****   * @}
 893:Drivers/STM32H7xx_HAL_Driver/Src/stm32h7xx_hal_dcmi.c ****   */
 894:Drivers/STM32H7xx_HAL_Driver/Src/stm32h7xx_hal_dcmi.c **** 
 895:Drivers/STM32H7xx_HAL_Driver/Src/stm32h7xx_hal_dcmi.c **** /** @defgroup DCMI_Exported_Functions_Group4 Peripheral State functions
 896:Drivers/STM32H7xx_HAL_Driver/Src/stm32h7xx_hal_dcmi.c ****  *  @brief    Peripheral State functions
 897:Drivers/STM32H7xx_HAL_Driver/Src/stm32h7xx_hal_dcmi.c ****  *
 898:Drivers/STM32H7xx_HAL_Driver/Src/stm32h7xx_hal_dcmi.c **** @verbatim
 899:Drivers/STM32H7xx_HAL_Driver/Src/stm32h7xx_hal_dcmi.c ****  ===============================================================================
 900:Drivers/STM32H7xx_HAL_Driver/Src/stm32h7xx_hal_dcmi.c ****                ##### Peripheral State and Errors functions #####
 901:Drivers/STM32H7xx_HAL_Driver/Src/stm32h7xx_hal_dcmi.c ****  ===============================================================================
 902:Drivers/STM32H7xx_HAL_Driver/Src/stm32h7xx_hal_dcmi.c ****     [..]
 903:Drivers/STM32H7xx_HAL_Driver/Src/stm32h7xx_hal_dcmi.c ****     This subsection provides functions allowing to
 904:Drivers/STM32H7xx_HAL_Driver/Src/stm32h7xx_hal_dcmi.c ****       (+) Check the DCMI state.
 905:Drivers/STM32H7xx_HAL_Driver/Src/stm32h7xx_hal_dcmi.c ****       (+) Get the specific DCMI error flag.
 906:Drivers/STM32H7xx_HAL_Driver/Src/stm32h7xx_hal_dcmi.c **** 
 907:Drivers/STM32H7xx_HAL_Driver/Src/stm32h7xx_hal_dcmi.c **** @endverbatim
 908:Drivers/STM32H7xx_HAL_Driver/Src/stm32h7xx_hal_dcmi.c ****   * @{
 909:Drivers/STM32H7xx_HAL_Driver/Src/stm32h7xx_hal_dcmi.c ****   */
 910:Drivers/STM32H7xx_HAL_Driver/Src/stm32h7xx_hal_dcmi.c **** 
 911:Drivers/STM32H7xx_HAL_Driver/Src/stm32h7xx_hal_dcmi.c **** /**
 912:Drivers/STM32H7xx_HAL_Driver/Src/stm32h7xx_hal_dcmi.c ****   * @brief  Return the DCMI state
 913:Drivers/STM32H7xx_HAL_Driver/Src/stm32h7xx_hal_dcmi.c ****   * @param  hdcmi pointer to a DCMI_HandleTypeDef structure that contains
 914:Drivers/STM32H7xx_HAL_Driver/Src/stm32h7xx_hal_dcmi.c ****   *                the configuration information for DCMI.
 915:Drivers/STM32H7xx_HAL_Driver/Src/stm32h7xx_hal_dcmi.c ****   * @retval HAL state
 916:Drivers/STM32H7xx_HAL_Driver/Src/stm32h7xx_hal_dcmi.c ****   */
 917:Drivers/STM32H7xx_HAL_Driver/Src/stm32h7xx_hal_dcmi.c **** HAL_DCMI_StateTypeDef HAL_DCMI_GetState(const DCMI_HandleTypeDef *hdcmi)
 918:Drivers/STM32H7xx_HAL_Driver/Src/stm32h7xx_hal_dcmi.c **** {
 919:Drivers/STM32H7xx_HAL_Driver/Src/stm32h7xx_hal_dcmi.c ****   return hdcmi->State;
 920:Drivers/STM32H7xx_HAL_Driver/Src/stm32h7xx_hal_dcmi.c **** }
 921:Drivers/STM32H7xx_HAL_Driver/Src/stm32h7xx_hal_dcmi.c **** 
 922:Drivers/STM32H7xx_HAL_Driver/Src/stm32h7xx_hal_dcmi.c **** /**
 923:Drivers/STM32H7xx_HAL_Driver/Src/stm32h7xx_hal_dcmi.c **** * @brief  Return the DCMI error code
 924:Drivers/STM32H7xx_HAL_Driver/Src/stm32h7xx_hal_dcmi.c **** * @param  hdcmi  pointer to a DCMI_HandleTypeDef structure that contains
 925:Drivers/STM32H7xx_HAL_Driver/Src/stm32h7xx_hal_dcmi.c ****   *               the configuration information for DCMI.
 926:Drivers/STM32H7xx_HAL_Driver/Src/stm32h7xx_hal_dcmi.c **** * @retval DCMI Error Code
 927:Drivers/STM32H7xx_HAL_Driver/Src/stm32h7xx_hal_dcmi.c **** */
 928:Drivers/STM32H7xx_HAL_Driver/Src/stm32h7xx_hal_dcmi.c **** uint32_t HAL_DCMI_GetError(const DCMI_HandleTypeDef *hdcmi)
 929:Drivers/STM32H7xx_HAL_Driver/Src/stm32h7xx_hal_dcmi.c **** {
 930:Drivers/STM32H7xx_HAL_Driver/Src/stm32h7xx_hal_dcmi.c ****   return hdcmi->ErrorCode;
 931:Drivers/STM32H7xx_HAL_Driver/Src/stm32h7xx_hal_dcmi.c **** }
 932:Drivers/STM32H7xx_HAL_Driver/Src/stm32h7xx_hal_dcmi.c **** 
 933:Drivers/STM32H7xx_HAL_Driver/Src/stm32h7xx_hal_dcmi.c **** #if (USE_HAL_DCMI_REGISTER_CALLBACKS == 1)
 934:Drivers/STM32H7xx_HAL_Driver/Src/stm32h7xx_hal_dcmi.c **** /**
 935:Drivers/STM32H7xx_HAL_Driver/Src/stm32h7xx_hal_dcmi.c ****   * @brief  Register a User DCMI Callback
 936:Drivers/STM32H7xx_HAL_Driver/Src/stm32h7xx_hal_dcmi.c ****   *         To be used instead of the weak predefined callback
 937:Drivers/STM32H7xx_HAL_Driver/Src/stm32h7xx_hal_dcmi.c ****   * @param  hdcmi DCMI handle
 938:Drivers/STM32H7xx_HAL_Driver/Src/stm32h7xx_hal_dcmi.c ****   * @param  CallbackID ID of the callback to be registered
 939:Drivers/STM32H7xx_HAL_Driver/Src/stm32h7xx_hal_dcmi.c ****   *         This parameter can be one of the following values:
 940:Drivers/STM32H7xx_HAL_Driver/Src/stm32h7xx_hal_dcmi.c ****   *          @arg @ref HAL_DCMI_LINE_EVENT_CB_ID Line Event callback ID
 941:Drivers/STM32H7xx_HAL_Driver/Src/stm32h7xx_hal_dcmi.c ****   *          @arg @ref HAL_DCMI_FRAME_EVENT_CB_ID Frame Event callback ID
 942:Drivers/STM32H7xx_HAL_Driver/Src/stm32h7xx_hal_dcmi.c ****   *          @arg @ref HAL_DCMI_VSYNC_EVENT_CB_ID Vsync Event callback ID
 943:Drivers/STM32H7xx_HAL_Driver/Src/stm32h7xx_hal_dcmi.c ****   *          @arg @ref HAL_DCMI_ERROR_CB_ID Error callback ID
ARM GAS  /tmp/ccYwYWEs.s 			page 18


 944:Drivers/STM32H7xx_HAL_Driver/Src/stm32h7xx_hal_dcmi.c ****   *          @arg @ref HAL_DCMI_MSPINIT_CB_ID MspInit callback ID
 945:Drivers/STM32H7xx_HAL_Driver/Src/stm32h7xx_hal_dcmi.c ****   *          @arg @ref HAL_DCMI_MSPDEINIT_CB_ID MspDeInit callback ID
 946:Drivers/STM32H7xx_HAL_Driver/Src/stm32h7xx_hal_dcmi.c ****   * @param  pCallback pointer to the Callback function
 947:Drivers/STM32H7xx_HAL_Driver/Src/stm32h7xx_hal_dcmi.c ****   * @retval HAL status
 948:Drivers/STM32H7xx_HAL_Driver/Src/stm32h7xx_hal_dcmi.c ****   */
 949:Drivers/STM32H7xx_HAL_Driver/Src/stm32h7xx_hal_dcmi.c **** HAL_StatusTypeDef HAL_DCMI_RegisterCallback(DCMI_HandleTypeDef *hdcmi, HAL_DCMI_CallbackIDTypeDef C
 950:Drivers/STM32H7xx_HAL_Driver/Src/stm32h7xx_hal_dcmi.c **** {
 951:Drivers/STM32H7xx_HAL_Driver/Src/stm32h7xx_hal_dcmi.c ****   HAL_StatusTypeDef status = HAL_OK;
 952:Drivers/STM32H7xx_HAL_Driver/Src/stm32h7xx_hal_dcmi.c **** 
 953:Drivers/STM32H7xx_HAL_Driver/Src/stm32h7xx_hal_dcmi.c ****   if (pCallback == NULL)
 954:Drivers/STM32H7xx_HAL_Driver/Src/stm32h7xx_hal_dcmi.c ****   {
 955:Drivers/STM32H7xx_HAL_Driver/Src/stm32h7xx_hal_dcmi.c ****     /* update the error code */
 956:Drivers/STM32H7xx_HAL_Driver/Src/stm32h7xx_hal_dcmi.c ****     hdcmi->ErrorCode |= HAL_DCMI_ERROR_INVALID_CALLBACK;
 957:Drivers/STM32H7xx_HAL_Driver/Src/stm32h7xx_hal_dcmi.c ****     /* update return status */
 958:Drivers/STM32H7xx_HAL_Driver/Src/stm32h7xx_hal_dcmi.c ****     status = HAL_ERROR;
 959:Drivers/STM32H7xx_HAL_Driver/Src/stm32h7xx_hal_dcmi.c ****   }
 960:Drivers/STM32H7xx_HAL_Driver/Src/stm32h7xx_hal_dcmi.c ****   else
 961:Drivers/STM32H7xx_HAL_Driver/Src/stm32h7xx_hal_dcmi.c ****   {
 962:Drivers/STM32H7xx_HAL_Driver/Src/stm32h7xx_hal_dcmi.c ****     if (hdcmi->State == HAL_DCMI_STATE_READY)
 963:Drivers/STM32H7xx_HAL_Driver/Src/stm32h7xx_hal_dcmi.c ****     {
 964:Drivers/STM32H7xx_HAL_Driver/Src/stm32h7xx_hal_dcmi.c ****       switch (CallbackID)
 965:Drivers/STM32H7xx_HAL_Driver/Src/stm32h7xx_hal_dcmi.c ****       {
 966:Drivers/STM32H7xx_HAL_Driver/Src/stm32h7xx_hal_dcmi.c ****         case HAL_DCMI_FRAME_EVENT_CB_ID :
 967:Drivers/STM32H7xx_HAL_Driver/Src/stm32h7xx_hal_dcmi.c ****           hdcmi->FrameEventCallback = pCallback;
 968:Drivers/STM32H7xx_HAL_Driver/Src/stm32h7xx_hal_dcmi.c ****           break;
 969:Drivers/STM32H7xx_HAL_Driver/Src/stm32h7xx_hal_dcmi.c **** 
 970:Drivers/STM32H7xx_HAL_Driver/Src/stm32h7xx_hal_dcmi.c ****         case HAL_DCMI_VSYNC_EVENT_CB_ID :
 971:Drivers/STM32H7xx_HAL_Driver/Src/stm32h7xx_hal_dcmi.c ****           hdcmi->VsyncEventCallback = pCallback;
 972:Drivers/STM32H7xx_HAL_Driver/Src/stm32h7xx_hal_dcmi.c ****           break;
 973:Drivers/STM32H7xx_HAL_Driver/Src/stm32h7xx_hal_dcmi.c **** 
 974:Drivers/STM32H7xx_HAL_Driver/Src/stm32h7xx_hal_dcmi.c ****         case HAL_DCMI_LINE_EVENT_CB_ID :
 975:Drivers/STM32H7xx_HAL_Driver/Src/stm32h7xx_hal_dcmi.c ****           hdcmi->LineEventCallback = pCallback;
 976:Drivers/STM32H7xx_HAL_Driver/Src/stm32h7xx_hal_dcmi.c ****           break;
 977:Drivers/STM32H7xx_HAL_Driver/Src/stm32h7xx_hal_dcmi.c **** 
 978:Drivers/STM32H7xx_HAL_Driver/Src/stm32h7xx_hal_dcmi.c ****         case HAL_DCMI_ERROR_CB_ID :
 979:Drivers/STM32H7xx_HAL_Driver/Src/stm32h7xx_hal_dcmi.c ****           hdcmi->ErrorCallback = pCallback;
 980:Drivers/STM32H7xx_HAL_Driver/Src/stm32h7xx_hal_dcmi.c ****           break;
 981:Drivers/STM32H7xx_HAL_Driver/Src/stm32h7xx_hal_dcmi.c **** 
 982:Drivers/STM32H7xx_HAL_Driver/Src/stm32h7xx_hal_dcmi.c ****         case HAL_DCMI_MSPINIT_CB_ID :
 983:Drivers/STM32H7xx_HAL_Driver/Src/stm32h7xx_hal_dcmi.c ****           hdcmi->MspInitCallback = pCallback;
 984:Drivers/STM32H7xx_HAL_Driver/Src/stm32h7xx_hal_dcmi.c ****           break;
 985:Drivers/STM32H7xx_HAL_Driver/Src/stm32h7xx_hal_dcmi.c **** 
 986:Drivers/STM32H7xx_HAL_Driver/Src/stm32h7xx_hal_dcmi.c ****         case HAL_DCMI_MSPDEINIT_CB_ID :
 987:Drivers/STM32H7xx_HAL_Driver/Src/stm32h7xx_hal_dcmi.c ****           hdcmi->MspDeInitCallback = pCallback;
 988:Drivers/STM32H7xx_HAL_Driver/Src/stm32h7xx_hal_dcmi.c ****           break;
 989:Drivers/STM32H7xx_HAL_Driver/Src/stm32h7xx_hal_dcmi.c **** 
 990:Drivers/STM32H7xx_HAL_Driver/Src/stm32h7xx_hal_dcmi.c ****         default :
 991:Drivers/STM32H7xx_HAL_Driver/Src/stm32h7xx_hal_dcmi.c ****           /* Return error status */
 992:Drivers/STM32H7xx_HAL_Driver/Src/stm32h7xx_hal_dcmi.c ****           status =  HAL_ERROR;
 993:Drivers/STM32H7xx_HAL_Driver/Src/stm32h7xx_hal_dcmi.c ****           break;
 994:Drivers/STM32H7xx_HAL_Driver/Src/stm32h7xx_hal_dcmi.c ****       }
 995:Drivers/STM32H7xx_HAL_Driver/Src/stm32h7xx_hal_dcmi.c ****     }
 996:Drivers/STM32H7xx_HAL_Driver/Src/stm32h7xx_hal_dcmi.c ****     else if (hdcmi->State == HAL_DCMI_STATE_RESET)
 997:Drivers/STM32H7xx_HAL_Driver/Src/stm32h7xx_hal_dcmi.c ****     {
 998:Drivers/STM32H7xx_HAL_Driver/Src/stm32h7xx_hal_dcmi.c ****       switch (CallbackID)
 999:Drivers/STM32H7xx_HAL_Driver/Src/stm32h7xx_hal_dcmi.c ****       {
1000:Drivers/STM32H7xx_HAL_Driver/Src/stm32h7xx_hal_dcmi.c ****         case HAL_DCMI_MSPINIT_CB_ID :
ARM GAS  /tmp/ccYwYWEs.s 			page 19


1001:Drivers/STM32H7xx_HAL_Driver/Src/stm32h7xx_hal_dcmi.c ****           hdcmi->MspInitCallback = pCallback;
1002:Drivers/STM32H7xx_HAL_Driver/Src/stm32h7xx_hal_dcmi.c ****           break;
1003:Drivers/STM32H7xx_HAL_Driver/Src/stm32h7xx_hal_dcmi.c **** 
1004:Drivers/STM32H7xx_HAL_Driver/Src/stm32h7xx_hal_dcmi.c ****         case HAL_DCMI_MSPDEINIT_CB_ID :
1005:Drivers/STM32H7xx_HAL_Driver/Src/stm32h7xx_hal_dcmi.c ****           hdcmi->MspDeInitCallback = pCallback;
1006:Drivers/STM32H7xx_HAL_Driver/Src/stm32h7xx_hal_dcmi.c ****           break;
1007:Drivers/STM32H7xx_HAL_Driver/Src/stm32h7xx_hal_dcmi.c **** 
1008:Drivers/STM32H7xx_HAL_Driver/Src/stm32h7xx_hal_dcmi.c ****         default :
1009:Drivers/STM32H7xx_HAL_Driver/Src/stm32h7xx_hal_dcmi.c ****           /* update the error code */
1010:Drivers/STM32H7xx_HAL_Driver/Src/stm32h7xx_hal_dcmi.c ****           hdcmi->ErrorCode |= HAL_DCMI_ERROR_INVALID_CALLBACK;
1011:Drivers/STM32H7xx_HAL_Driver/Src/stm32h7xx_hal_dcmi.c ****           /* update return status */
1012:Drivers/STM32H7xx_HAL_Driver/Src/stm32h7xx_hal_dcmi.c ****           status = HAL_ERROR;
1013:Drivers/STM32H7xx_HAL_Driver/Src/stm32h7xx_hal_dcmi.c ****           break;
1014:Drivers/STM32H7xx_HAL_Driver/Src/stm32h7xx_hal_dcmi.c ****       }
1015:Drivers/STM32H7xx_HAL_Driver/Src/stm32h7xx_hal_dcmi.c ****     }
1016:Drivers/STM32H7xx_HAL_Driver/Src/stm32h7xx_hal_dcmi.c ****     else
1017:Drivers/STM32H7xx_HAL_Driver/Src/stm32h7xx_hal_dcmi.c ****     {
1018:Drivers/STM32H7xx_HAL_Driver/Src/stm32h7xx_hal_dcmi.c ****       /* update the error code */
1019:Drivers/STM32H7xx_HAL_Driver/Src/stm32h7xx_hal_dcmi.c ****       hdcmi->ErrorCode |= HAL_DCMI_ERROR_INVALID_CALLBACK;
1020:Drivers/STM32H7xx_HAL_Driver/Src/stm32h7xx_hal_dcmi.c ****       /* update return status */
1021:Drivers/STM32H7xx_HAL_Driver/Src/stm32h7xx_hal_dcmi.c ****       status = HAL_ERROR;
1022:Drivers/STM32H7xx_HAL_Driver/Src/stm32h7xx_hal_dcmi.c ****     }
1023:Drivers/STM32H7xx_HAL_Driver/Src/stm32h7xx_hal_dcmi.c ****   }
1024:Drivers/STM32H7xx_HAL_Driver/Src/stm32h7xx_hal_dcmi.c **** 
1025:Drivers/STM32H7xx_HAL_Driver/Src/stm32h7xx_hal_dcmi.c ****   return status;
1026:Drivers/STM32H7xx_HAL_Driver/Src/stm32h7xx_hal_dcmi.c **** }
1027:Drivers/STM32H7xx_HAL_Driver/Src/stm32h7xx_hal_dcmi.c **** 
1028:Drivers/STM32H7xx_HAL_Driver/Src/stm32h7xx_hal_dcmi.c **** /**
1029:Drivers/STM32H7xx_HAL_Driver/Src/stm32h7xx_hal_dcmi.c ****   * @brief  Unregister a DCMI Callback
1030:Drivers/STM32H7xx_HAL_Driver/Src/stm32h7xx_hal_dcmi.c ****   *         DCMI callback is redirected to the weak predefined callback
1031:Drivers/STM32H7xx_HAL_Driver/Src/stm32h7xx_hal_dcmi.c ****   * @param  hdcmi DCMI handle
1032:Drivers/STM32H7xx_HAL_Driver/Src/stm32h7xx_hal_dcmi.c ****   * @param  CallbackID ID of the callback to be registered
1033:Drivers/STM32H7xx_HAL_Driver/Src/stm32h7xx_hal_dcmi.c ****   *         This parameter can be one of the following values:
1034:Drivers/STM32H7xx_HAL_Driver/Src/stm32h7xx_hal_dcmi.c ****   *          @arg @ref HAL_DCMI_LINE_EVENT_CB_ID Line Event callback ID
1035:Drivers/STM32H7xx_HAL_Driver/Src/stm32h7xx_hal_dcmi.c ****   *          @arg @ref HAL_DCMI_FRAME_EVENT_CB_ID Frame Event callback ID
1036:Drivers/STM32H7xx_HAL_Driver/Src/stm32h7xx_hal_dcmi.c ****   *          @arg @ref HAL_DCMI_VSYNC_EVENT_CB_ID Vsync Event callback ID
1037:Drivers/STM32H7xx_HAL_Driver/Src/stm32h7xx_hal_dcmi.c ****   *          @arg @ref HAL_DCMI_ERROR_CB_ID Error callback ID
1038:Drivers/STM32H7xx_HAL_Driver/Src/stm32h7xx_hal_dcmi.c ****   *          @arg @ref HAL_DCMI_MSPINIT_CB_ID MspInit callback ID
1039:Drivers/STM32H7xx_HAL_Driver/Src/stm32h7xx_hal_dcmi.c ****   *          @arg @ref HAL_DCMI_MSPDEINIT_CB_ID MspDeInit callback ID
1040:Drivers/STM32H7xx_HAL_Driver/Src/stm32h7xx_hal_dcmi.c ****   * @retval HAL status
1041:Drivers/STM32H7xx_HAL_Driver/Src/stm32h7xx_hal_dcmi.c ****   */
1042:Drivers/STM32H7xx_HAL_Driver/Src/stm32h7xx_hal_dcmi.c **** HAL_StatusTypeDef HAL_DCMI_UnRegisterCallback(DCMI_HandleTypeDef *hdcmi, HAL_DCMI_CallbackIDTypeDef
1043:Drivers/STM32H7xx_HAL_Driver/Src/stm32h7xx_hal_dcmi.c **** {
1044:Drivers/STM32H7xx_HAL_Driver/Src/stm32h7xx_hal_dcmi.c ****   HAL_StatusTypeDef status = HAL_OK;
1045:Drivers/STM32H7xx_HAL_Driver/Src/stm32h7xx_hal_dcmi.c **** 
1046:Drivers/STM32H7xx_HAL_Driver/Src/stm32h7xx_hal_dcmi.c ****   if (hdcmi->State == HAL_DCMI_STATE_READY)
1047:Drivers/STM32H7xx_HAL_Driver/Src/stm32h7xx_hal_dcmi.c ****   {
1048:Drivers/STM32H7xx_HAL_Driver/Src/stm32h7xx_hal_dcmi.c ****     switch (CallbackID)
1049:Drivers/STM32H7xx_HAL_Driver/Src/stm32h7xx_hal_dcmi.c ****     {
1050:Drivers/STM32H7xx_HAL_Driver/Src/stm32h7xx_hal_dcmi.c ****       case HAL_DCMI_FRAME_EVENT_CB_ID :
1051:Drivers/STM32H7xx_HAL_Driver/Src/stm32h7xx_hal_dcmi.c ****         hdcmi->FrameEventCallback = HAL_DCMI_FrameEventCallback;  /* Legacy weak  FrameEventCallbac
1052:Drivers/STM32H7xx_HAL_Driver/Src/stm32h7xx_hal_dcmi.c ****         break;
1053:Drivers/STM32H7xx_HAL_Driver/Src/stm32h7xx_hal_dcmi.c **** 
1054:Drivers/STM32H7xx_HAL_Driver/Src/stm32h7xx_hal_dcmi.c ****       case HAL_DCMI_VSYNC_EVENT_CB_ID :
1055:Drivers/STM32H7xx_HAL_Driver/Src/stm32h7xx_hal_dcmi.c ****         hdcmi->VsyncEventCallback = HAL_DCMI_VsyncEventCallback;  /* Legacy weak VsyncEventCallback
1056:Drivers/STM32H7xx_HAL_Driver/Src/stm32h7xx_hal_dcmi.c ****         break;
1057:Drivers/STM32H7xx_HAL_Driver/Src/stm32h7xx_hal_dcmi.c **** 
ARM GAS  /tmp/ccYwYWEs.s 			page 20


1058:Drivers/STM32H7xx_HAL_Driver/Src/stm32h7xx_hal_dcmi.c ****       case HAL_DCMI_LINE_EVENT_CB_ID :
1059:Drivers/STM32H7xx_HAL_Driver/Src/stm32h7xx_hal_dcmi.c ****         hdcmi->LineEventCallback = HAL_DCMI_LineEventCallback;    /* Legacy weak LineEventCallback 
1060:Drivers/STM32H7xx_HAL_Driver/Src/stm32h7xx_hal_dcmi.c ****         break;
1061:Drivers/STM32H7xx_HAL_Driver/Src/stm32h7xx_hal_dcmi.c **** 
1062:Drivers/STM32H7xx_HAL_Driver/Src/stm32h7xx_hal_dcmi.c ****       case HAL_DCMI_ERROR_CB_ID :
1063:Drivers/STM32H7xx_HAL_Driver/Src/stm32h7xx_hal_dcmi.c ****         hdcmi->ErrorCallback = HAL_DCMI_ErrorCallback;           /* Legacy weak ErrorCallback      
1064:Drivers/STM32H7xx_HAL_Driver/Src/stm32h7xx_hal_dcmi.c ****         break;
1065:Drivers/STM32H7xx_HAL_Driver/Src/stm32h7xx_hal_dcmi.c **** 
1066:Drivers/STM32H7xx_HAL_Driver/Src/stm32h7xx_hal_dcmi.c ****       case HAL_DCMI_MSPINIT_CB_ID :
1067:Drivers/STM32H7xx_HAL_Driver/Src/stm32h7xx_hal_dcmi.c ****         hdcmi->MspInitCallback = HAL_DCMI_MspInit;
1068:Drivers/STM32H7xx_HAL_Driver/Src/stm32h7xx_hal_dcmi.c ****         break;
1069:Drivers/STM32H7xx_HAL_Driver/Src/stm32h7xx_hal_dcmi.c **** 
1070:Drivers/STM32H7xx_HAL_Driver/Src/stm32h7xx_hal_dcmi.c ****       case HAL_DCMI_MSPDEINIT_CB_ID :
1071:Drivers/STM32H7xx_HAL_Driver/Src/stm32h7xx_hal_dcmi.c ****         hdcmi->MspDeInitCallback = HAL_DCMI_MspDeInit;
1072:Drivers/STM32H7xx_HAL_Driver/Src/stm32h7xx_hal_dcmi.c ****         break;
1073:Drivers/STM32H7xx_HAL_Driver/Src/stm32h7xx_hal_dcmi.c **** 
1074:Drivers/STM32H7xx_HAL_Driver/Src/stm32h7xx_hal_dcmi.c ****       default :
1075:Drivers/STM32H7xx_HAL_Driver/Src/stm32h7xx_hal_dcmi.c ****         /* update the error code */
1076:Drivers/STM32H7xx_HAL_Driver/Src/stm32h7xx_hal_dcmi.c ****         hdcmi->ErrorCode |= HAL_DCMI_ERROR_INVALID_CALLBACK;
1077:Drivers/STM32H7xx_HAL_Driver/Src/stm32h7xx_hal_dcmi.c ****         /* update return status */
1078:Drivers/STM32H7xx_HAL_Driver/Src/stm32h7xx_hal_dcmi.c ****         status = HAL_ERROR;
1079:Drivers/STM32H7xx_HAL_Driver/Src/stm32h7xx_hal_dcmi.c ****         break;
1080:Drivers/STM32H7xx_HAL_Driver/Src/stm32h7xx_hal_dcmi.c ****     }
1081:Drivers/STM32H7xx_HAL_Driver/Src/stm32h7xx_hal_dcmi.c ****   }
1082:Drivers/STM32H7xx_HAL_Driver/Src/stm32h7xx_hal_dcmi.c ****   else if (hdcmi->State == HAL_DCMI_STATE_RESET)
1083:Drivers/STM32H7xx_HAL_Driver/Src/stm32h7xx_hal_dcmi.c ****   {
1084:Drivers/STM32H7xx_HAL_Driver/Src/stm32h7xx_hal_dcmi.c ****     switch (CallbackID)
1085:Drivers/STM32H7xx_HAL_Driver/Src/stm32h7xx_hal_dcmi.c ****     {
1086:Drivers/STM32H7xx_HAL_Driver/Src/stm32h7xx_hal_dcmi.c ****       case HAL_DCMI_MSPINIT_CB_ID :
1087:Drivers/STM32H7xx_HAL_Driver/Src/stm32h7xx_hal_dcmi.c ****         hdcmi->MspInitCallback = HAL_DCMI_MspInit;
1088:Drivers/STM32H7xx_HAL_Driver/Src/stm32h7xx_hal_dcmi.c ****         break;
1089:Drivers/STM32H7xx_HAL_Driver/Src/stm32h7xx_hal_dcmi.c **** 
1090:Drivers/STM32H7xx_HAL_Driver/Src/stm32h7xx_hal_dcmi.c ****       case HAL_DCMI_MSPDEINIT_CB_ID :
1091:Drivers/STM32H7xx_HAL_Driver/Src/stm32h7xx_hal_dcmi.c ****         hdcmi->MspDeInitCallback = HAL_DCMI_MspDeInit;
1092:Drivers/STM32H7xx_HAL_Driver/Src/stm32h7xx_hal_dcmi.c ****         break;
1093:Drivers/STM32H7xx_HAL_Driver/Src/stm32h7xx_hal_dcmi.c **** 
1094:Drivers/STM32H7xx_HAL_Driver/Src/stm32h7xx_hal_dcmi.c ****       default :
1095:Drivers/STM32H7xx_HAL_Driver/Src/stm32h7xx_hal_dcmi.c ****         /* update the error code */
1096:Drivers/STM32H7xx_HAL_Driver/Src/stm32h7xx_hal_dcmi.c ****         hdcmi->ErrorCode |= HAL_DCMI_ERROR_INVALID_CALLBACK;
1097:Drivers/STM32H7xx_HAL_Driver/Src/stm32h7xx_hal_dcmi.c ****         /* update return status */
1098:Drivers/STM32H7xx_HAL_Driver/Src/stm32h7xx_hal_dcmi.c ****         status = HAL_ERROR;
1099:Drivers/STM32H7xx_HAL_Driver/Src/stm32h7xx_hal_dcmi.c ****         break;
1100:Drivers/STM32H7xx_HAL_Driver/Src/stm32h7xx_hal_dcmi.c ****     }
1101:Drivers/STM32H7xx_HAL_Driver/Src/stm32h7xx_hal_dcmi.c ****   }
1102:Drivers/STM32H7xx_HAL_Driver/Src/stm32h7xx_hal_dcmi.c ****   else
1103:Drivers/STM32H7xx_HAL_Driver/Src/stm32h7xx_hal_dcmi.c ****   {
1104:Drivers/STM32H7xx_HAL_Driver/Src/stm32h7xx_hal_dcmi.c ****     /* update the error code */
1105:Drivers/STM32H7xx_HAL_Driver/Src/stm32h7xx_hal_dcmi.c ****     hdcmi->ErrorCode |= HAL_DCMI_ERROR_INVALID_CALLBACK;
1106:Drivers/STM32H7xx_HAL_Driver/Src/stm32h7xx_hal_dcmi.c ****     /* update return status */
1107:Drivers/STM32H7xx_HAL_Driver/Src/stm32h7xx_hal_dcmi.c ****     status = HAL_ERROR;
1108:Drivers/STM32H7xx_HAL_Driver/Src/stm32h7xx_hal_dcmi.c ****   }
1109:Drivers/STM32H7xx_HAL_Driver/Src/stm32h7xx_hal_dcmi.c **** 
1110:Drivers/STM32H7xx_HAL_Driver/Src/stm32h7xx_hal_dcmi.c ****   return status;
1111:Drivers/STM32H7xx_HAL_Driver/Src/stm32h7xx_hal_dcmi.c **** }
1112:Drivers/STM32H7xx_HAL_Driver/Src/stm32h7xx_hal_dcmi.c **** #endif /* USE_HAL_DCMI_REGISTER_CALLBACKS */
1113:Drivers/STM32H7xx_HAL_Driver/Src/stm32h7xx_hal_dcmi.c **** 
1114:Drivers/STM32H7xx_HAL_Driver/Src/stm32h7xx_hal_dcmi.c **** /**
ARM GAS  /tmp/ccYwYWEs.s 			page 21


1115:Drivers/STM32H7xx_HAL_Driver/Src/stm32h7xx_hal_dcmi.c ****   * @}
1116:Drivers/STM32H7xx_HAL_Driver/Src/stm32h7xx_hal_dcmi.c ****   */
1117:Drivers/STM32H7xx_HAL_Driver/Src/stm32h7xx_hal_dcmi.c **** 
1118:Drivers/STM32H7xx_HAL_Driver/Src/stm32h7xx_hal_dcmi.c **** /**
1119:Drivers/STM32H7xx_HAL_Driver/Src/stm32h7xx_hal_dcmi.c ****   * @}
1120:Drivers/STM32H7xx_HAL_Driver/Src/stm32h7xx_hal_dcmi.c ****   */
1121:Drivers/STM32H7xx_HAL_Driver/Src/stm32h7xx_hal_dcmi.c **** /* Private functions ---------------------------------------------------------*/
1122:Drivers/STM32H7xx_HAL_Driver/Src/stm32h7xx_hal_dcmi.c **** /** @defgroup DCMI_Private_Functions DCMI Private Functions
1123:Drivers/STM32H7xx_HAL_Driver/Src/stm32h7xx_hal_dcmi.c ****   * @{
1124:Drivers/STM32H7xx_HAL_Driver/Src/stm32h7xx_hal_dcmi.c ****   */
1125:Drivers/STM32H7xx_HAL_Driver/Src/stm32h7xx_hal_dcmi.c **** /**
1126:Drivers/STM32H7xx_HAL_Driver/Src/stm32h7xx_hal_dcmi.c ****   * @brief  DMA conversion complete callback.
1127:Drivers/STM32H7xx_HAL_Driver/Src/stm32h7xx_hal_dcmi.c ****   * @param  hdma pointer to a DMA_HandleTypeDef structure that contains
1128:Drivers/STM32H7xx_HAL_Driver/Src/stm32h7xx_hal_dcmi.c ****   *                the configuration information for the specified DMA module.
1129:Drivers/STM32H7xx_HAL_Driver/Src/stm32h7xx_hal_dcmi.c ****   * @retval None
1130:Drivers/STM32H7xx_HAL_Driver/Src/stm32h7xx_hal_dcmi.c ****   */
1131:Drivers/STM32H7xx_HAL_Driver/Src/stm32h7xx_hal_dcmi.c **** static void DCMI_DMAXferCplt(DMA_HandleTypeDef *hdma)
1132:Drivers/STM32H7xx_HAL_Driver/Src/stm32h7xx_hal_dcmi.c **** {
  28              		.loc 1 1132 1 view -0
  29              		.cfi_startproc
  30              		@ args = 0, pretend = 0, frame = 0
  31              		@ frame_needed = 0, uses_anonymous_args = 0
  32              		.loc 1 1132 1 is_stmt 0 view .LVU1
  33 0000 10B5     		push	{r4, lr}
  34              	.LCFI0:
  35              		.cfi_def_cfa_offset 8
  36              		.cfi_offset 4, -8
  37              		.cfi_offset 14, -4
1133:Drivers/STM32H7xx_HAL_Driver/Src/stm32h7xx_hal_dcmi.c ****   uint32_t tmp ;
  38              		.loc 1 1133 3 is_stmt 1 view .LVU2
1134:Drivers/STM32H7xx_HAL_Driver/Src/stm32h7xx_hal_dcmi.c **** 
1135:Drivers/STM32H7xx_HAL_Driver/Src/stm32h7xx_hal_dcmi.c ****   DCMI_HandleTypeDef *hdcmi = (DCMI_HandleTypeDef *)((DMA_HandleTypeDef *)hdma)->Parent;
  39              		.loc 1 1135 3 view .LVU3
  40              		.loc 1 1135 23 is_stmt 0 view .LVU4
  41 0002 846B     		ldr	r4, [r0, #56]
  42              	.LVL1:
1136:Drivers/STM32H7xx_HAL_Driver/Src/stm32h7xx_hal_dcmi.c **** 
1137:Drivers/STM32H7xx_HAL_Driver/Src/stm32h7xx_hal_dcmi.c ****   if (hdcmi->XferCount != 0U)
  43              		.loc 1 1137 3 is_stmt 1 view .LVU5
  44              		.loc 1 1137 12 is_stmt 0 view .LVU6
  45 0004 A36B     		ldr	r3, [r4, #56]
  46              		.loc 1 1137 6 view .LVU7
  47 0006 43B3     		cbz	r3, .L2
1138:Drivers/STM32H7xx_HAL_Driver/Src/stm32h7xx_hal_dcmi.c ****   {
1139:Drivers/STM32H7xx_HAL_Driver/Src/stm32h7xx_hal_dcmi.c ****     /* Update memory 0 address location */
1140:Drivers/STM32H7xx_HAL_Driver/Src/stm32h7xx_hal_dcmi.c ****     tmp = ((((DMA_Stream_TypeDef *)(hdcmi->DMA_Handle->Instance))->CR) & DMA_SxCR_CT);
  48              		.loc 1 1140 5 is_stmt 1 view .LVU8
  49              		.loc 1 1140 42 is_stmt 0 view .LVU9
  50 0008 A06C     		ldr	r0, [r4, #72]
  51              	.LVL2:
  52              		.loc 1 1140 54 view .LVU10
  53 000a 0268     		ldr	r2, [r0]
  54              		.loc 1 1140 66 view .LVU11
  55 000c 1368     		ldr	r3, [r2]
  56              		.loc 1 1140 9 view .LVU12
  57 000e 03F40023 		and	r3, r3, #524288
  58              	.LVL3:
ARM GAS  /tmp/ccYwYWEs.s 			page 22


1141:Drivers/STM32H7xx_HAL_Driver/Src/stm32h7xx_hal_dcmi.c ****     if (((hdcmi->XferCount % 2U) == 0U) && (tmp != 0U))
  59              		.loc 1 1141 5 is_stmt 1 view .LVU13
  60              		.loc 1 1141 16 is_stmt 0 view .LVU14
  61 0012 A16B     		ldr	r1, [r4, #56]
  62              		.loc 1 1141 8 view .LVU15
  63 0014 11F0010F 		tst	r1, #1
  64 0018 00D1     		bne	.L3
  65              		.loc 1 1141 41 discriminator 1 view .LVU16
  66 001a 43B9     		cbnz	r3, .L8
  67              	.L3:
1142:Drivers/STM32H7xx_HAL_Driver/Src/stm32h7xx_hal_dcmi.c ****     {
1143:Drivers/STM32H7xx_HAL_Driver/Src/stm32h7xx_hal_dcmi.c ****       tmp = ((DMA_Stream_TypeDef *)(hdcmi->DMA_Handle->Instance))->M0AR;
1144:Drivers/STM32H7xx_HAL_Driver/Src/stm32h7xx_hal_dcmi.c ****       (void)HAL_DMAEx_ChangeMemory(hdcmi->DMA_Handle, (tmp + (8U * hdcmi->XferSize)), MEMORY0);
1145:Drivers/STM32H7xx_HAL_Driver/Src/stm32h7xx_hal_dcmi.c ****       hdcmi->XferCount--;
1146:Drivers/STM32H7xx_HAL_Driver/Src/stm32h7xx_hal_dcmi.c ****     }
1147:Drivers/STM32H7xx_HAL_Driver/Src/stm32h7xx_hal_dcmi.c ****     /* Update memory 1 address location */
1148:Drivers/STM32H7xx_HAL_Driver/Src/stm32h7xx_hal_dcmi.c ****     else if ((((DMA_Stream_TypeDef *)(hdcmi->DMA_Handle->Instance))->CR & DMA_SxCR_CT) == 0U)
  68              		.loc 1 1148 10 is_stmt 1 view .LVU17
  69              		.loc 1 1148 68 is_stmt 0 view .LVU18
  70 001c 1368     		ldr	r3, [r2]
  71              	.LVL4:
  72              		.loc 1 1148 13 view .LVU19
  73 001e 13F4002F 		tst	r3, #524288
  74 0022 0FD0     		beq	.L9
  75              	.LVL5:
  76              	.L4:
1149:Drivers/STM32H7xx_HAL_Driver/Src/stm32h7xx_hal_dcmi.c ****     {
1150:Drivers/STM32H7xx_HAL_Driver/Src/stm32h7xx_hal_dcmi.c ****       tmp = ((DMA_Stream_TypeDef *)(hdcmi->DMA_Handle->Instance))->M1AR;
1151:Drivers/STM32H7xx_HAL_Driver/Src/stm32h7xx_hal_dcmi.c ****       (void)HAL_DMAEx_ChangeMemory(hdcmi->DMA_Handle, (tmp + (8U * hdcmi->XferSize)), MEMORY1);
1152:Drivers/STM32H7xx_HAL_Driver/Src/stm32h7xx_hal_dcmi.c ****       hdcmi->XferCount--;
1153:Drivers/STM32H7xx_HAL_Driver/Src/stm32h7xx_hal_dcmi.c ****     }
1154:Drivers/STM32H7xx_HAL_Driver/Src/stm32h7xx_hal_dcmi.c ****     else
1155:Drivers/STM32H7xx_HAL_Driver/Src/stm32h7xx_hal_dcmi.c ****     {
1156:Drivers/STM32H7xx_HAL_Driver/Src/stm32h7xx_hal_dcmi.c ****       /* Nothing to do */
1157:Drivers/STM32H7xx_HAL_Driver/Src/stm32h7xx_hal_dcmi.c ****     }
1158:Drivers/STM32H7xx_HAL_Driver/Src/stm32h7xx_hal_dcmi.c ****   }
1159:Drivers/STM32H7xx_HAL_Driver/Src/stm32h7xx_hal_dcmi.c ****   /* Update memory 0 address location */
1160:Drivers/STM32H7xx_HAL_Driver/Src/stm32h7xx_hal_dcmi.c ****   else if ((((DMA_Stream_TypeDef *)(hdcmi->DMA_Handle->Instance))->CR & DMA_SxCR_CT) != 0U)
1161:Drivers/STM32H7xx_HAL_Driver/Src/stm32h7xx_hal_dcmi.c ****   {
1162:Drivers/STM32H7xx_HAL_Driver/Src/stm32h7xx_hal_dcmi.c ****     ((DMA_Stream_TypeDef *)(hdcmi->DMA_Handle->Instance))->M0AR = hdcmi->pBuffPtr;
1163:Drivers/STM32H7xx_HAL_Driver/Src/stm32h7xx_hal_dcmi.c ****   }
1164:Drivers/STM32H7xx_HAL_Driver/Src/stm32h7xx_hal_dcmi.c ****   /* Update memory 1 address location */
1165:Drivers/STM32H7xx_HAL_Driver/Src/stm32h7xx_hal_dcmi.c ****   else if ((((DMA_Stream_TypeDef *)(hdcmi->DMA_Handle->Instance))->CR & DMA_SxCR_CT) == 0U)
1166:Drivers/STM32H7xx_HAL_Driver/Src/stm32h7xx_hal_dcmi.c ****   {
1167:Drivers/STM32H7xx_HAL_Driver/Src/stm32h7xx_hal_dcmi.c ****     tmp = hdcmi->pBuffPtr;
1168:Drivers/STM32H7xx_HAL_Driver/Src/stm32h7xx_hal_dcmi.c ****     ((DMA_Stream_TypeDef *)(hdcmi->DMA_Handle->Instance))->M1AR = (tmp + (4U * hdcmi->XferSize));
1169:Drivers/STM32H7xx_HAL_Driver/Src/stm32h7xx_hal_dcmi.c ****     hdcmi->XferCount = hdcmi->XferTransferNumber;
1170:Drivers/STM32H7xx_HAL_Driver/Src/stm32h7xx_hal_dcmi.c ****   }
1171:Drivers/STM32H7xx_HAL_Driver/Src/stm32h7xx_hal_dcmi.c ****   else
1172:Drivers/STM32H7xx_HAL_Driver/Src/stm32h7xx_hal_dcmi.c ****   {
1173:Drivers/STM32H7xx_HAL_Driver/Src/stm32h7xx_hal_dcmi.c ****     /* Nothing to do */
1174:Drivers/STM32H7xx_HAL_Driver/Src/stm32h7xx_hal_dcmi.c ****   }
  77              		.loc 1 1174 3 is_stmt 1 view .LVU20
1175:Drivers/STM32H7xx_HAL_Driver/Src/stm32h7xx_hal_dcmi.c **** 
1176:Drivers/STM32H7xx_HAL_Driver/Src/stm32h7xx_hal_dcmi.c ****   /* Check if the frame is transferred */
1177:Drivers/STM32H7xx_HAL_Driver/Src/stm32h7xx_hal_dcmi.c ****   if (hdcmi->XferCount == hdcmi->XferTransferNumber)
  78              		.loc 1 1177 3 view .LVU21
ARM GAS  /tmp/ccYwYWEs.s 			page 23


  79              		.loc 1 1177 12 is_stmt 0 view .LVU22
  80 0024 A26B     		ldr	r2, [r4, #56]
  81              		.loc 1 1177 32 view .LVU23
  82 0026 236C     		ldr	r3, [r4, #64]
  83              		.loc 1 1177 6 view .LVU24
  84 0028 9A42     		cmp	r2, r3
  85 002a 2BD0     		beq	.L10
  86              	.L1:
1178:Drivers/STM32H7xx_HAL_Driver/Src/stm32h7xx_hal_dcmi.c ****   {
1179:Drivers/STM32H7xx_HAL_Driver/Src/stm32h7xx_hal_dcmi.c ****     /* Enable the Frame interrupt */
1180:Drivers/STM32H7xx_HAL_Driver/Src/stm32h7xx_hal_dcmi.c ****     __HAL_DCMI_ENABLE_IT(hdcmi, DCMI_IT_FRAME);
1181:Drivers/STM32H7xx_HAL_Driver/Src/stm32h7xx_hal_dcmi.c **** 
1182:Drivers/STM32H7xx_HAL_Driver/Src/stm32h7xx_hal_dcmi.c ****     /* When snapshot mode, set dcmi state to ready */
1183:Drivers/STM32H7xx_HAL_Driver/Src/stm32h7xx_hal_dcmi.c ****     if ((hdcmi->Instance->CR & DCMI_CR_CM) == DCMI_MODE_SNAPSHOT)
1184:Drivers/STM32H7xx_HAL_Driver/Src/stm32h7xx_hal_dcmi.c ****     {
1185:Drivers/STM32H7xx_HAL_Driver/Src/stm32h7xx_hal_dcmi.c ****       hdcmi->State = HAL_DCMI_STATE_READY;
1186:Drivers/STM32H7xx_HAL_Driver/Src/stm32h7xx_hal_dcmi.c ****     }
1187:Drivers/STM32H7xx_HAL_Driver/Src/stm32h7xx_hal_dcmi.c ****   }
1188:Drivers/STM32H7xx_HAL_Driver/Src/stm32h7xx_hal_dcmi.c **** }
  87              		.loc 1 1188 1 view .LVU25
  88 002c 10BD     		pop	{r4, pc}
  89              	.LVL6:
  90              	.L8:
1143:Drivers/STM32H7xx_HAL_Driver/Src/stm32h7xx_hal_dcmi.c ****       (void)HAL_DMAEx_ChangeMemory(hdcmi->DMA_Handle, (tmp + (8U * hdcmi->XferSize)), MEMORY0);
  91              		.loc 1 1143 7 is_stmt 1 view .LVU26
1143:Drivers/STM32H7xx_HAL_Driver/Src/stm32h7xx_hal_dcmi.c ****       (void)HAL_DMAEx_ChangeMemory(hdcmi->DMA_Handle, (tmp + (8U * hdcmi->XferSize)), MEMORY0);
  92              		.loc 1 1143 11 is_stmt 0 view .LVU27
  93 002e D368     		ldr	r3, [r2, #12]
  94              	.LVL7:
1144:Drivers/STM32H7xx_HAL_Driver/Src/stm32h7xx_hal_dcmi.c ****       hdcmi->XferCount--;
  95              		.loc 1 1144 7 is_stmt 1 view .LVU28
1144:Drivers/STM32H7xx_HAL_Driver/Src/stm32h7xx_hal_dcmi.c ****       hdcmi->XferCount--;
  96              		.loc 1 1144 73 is_stmt 0 view .LVU29
  97 0030 E16B     		ldr	r1, [r4, #60]
1144:Drivers/STM32H7xx_HAL_Driver/Src/stm32h7xx_hal_dcmi.c ****       hdcmi->XferCount--;
  98              		.loc 1 1144 13 view .LVU30
  99 0032 0022     		movs	r2, #0
 100 0034 03EBC101 		add	r1, r3, r1, lsl #3
 101 0038 FFF7FEFF 		bl	HAL_DMAEx_ChangeMemory
 102              	.LVL8:
1145:Drivers/STM32H7xx_HAL_Driver/Src/stm32h7xx_hal_dcmi.c ****     }
 103              		.loc 1 1145 7 is_stmt 1 view .LVU31
1145:Drivers/STM32H7xx_HAL_Driver/Src/stm32h7xx_hal_dcmi.c ****     }
 104              		.loc 1 1145 12 is_stmt 0 view .LVU32
 105 003c A36B     		ldr	r3, [r4, #56]
1145:Drivers/STM32H7xx_HAL_Driver/Src/stm32h7xx_hal_dcmi.c ****     }
 106              		.loc 1 1145 23 view .LVU33
 107 003e 013B     		subs	r3, r3, #1
 108 0040 A363     		str	r3, [r4, #56]
 109 0042 EFE7     		b	.L4
 110              	.L9:
1150:Drivers/STM32H7xx_HAL_Driver/Src/stm32h7xx_hal_dcmi.c ****       (void)HAL_DMAEx_ChangeMemory(hdcmi->DMA_Handle, (tmp + (8U * hdcmi->XferSize)), MEMORY1);
 111              		.loc 1 1150 7 is_stmt 1 view .LVU34
1150:Drivers/STM32H7xx_HAL_Driver/Src/stm32h7xx_hal_dcmi.c ****       (void)HAL_DMAEx_ChangeMemory(hdcmi->DMA_Handle, (tmp + (8U * hdcmi->XferSize)), MEMORY1);
 112              		.loc 1 1150 11 is_stmt 0 view .LVU35
 113 0044 1369     		ldr	r3, [r2, #16]
 114              	.LVL9:
ARM GAS  /tmp/ccYwYWEs.s 			page 24


1151:Drivers/STM32H7xx_HAL_Driver/Src/stm32h7xx_hal_dcmi.c ****       hdcmi->XferCount--;
 115              		.loc 1 1151 7 is_stmt 1 view .LVU36
1151:Drivers/STM32H7xx_HAL_Driver/Src/stm32h7xx_hal_dcmi.c ****       hdcmi->XferCount--;
 116              		.loc 1 1151 73 is_stmt 0 view .LVU37
 117 0046 E16B     		ldr	r1, [r4, #60]
1151:Drivers/STM32H7xx_HAL_Driver/Src/stm32h7xx_hal_dcmi.c ****       hdcmi->XferCount--;
 118              		.loc 1 1151 13 view .LVU38
 119 0048 0122     		movs	r2, #1
 120 004a 03EBC101 		add	r1, r3, r1, lsl #3
 121 004e FFF7FEFF 		bl	HAL_DMAEx_ChangeMemory
 122              	.LVL10:
1152:Drivers/STM32H7xx_HAL_Driver/Src/stm32h7xx_hal_dcmi.c ****     }
 123              		.loc 1 1152 7 is_stmt 1 view .LVU39
1152:Drivers/STM32H7xx_HAL_Driver/Src/stm32h7xx_hal_dcmi.c ****     }
 124              		.loc 1 1152 12 is_stmt 0 view .LVU40
 125 0052 A36B     		ldr	r3, [r4, #56]
1152:Drivers/STM32H7xx_HAL_Driver/Src/stm32h7xx_hal_dcmi.c ****     }
 126              		.loc 1 1152 23 view .LVU41
 127 0054 013B     		subs	r3, r3, #1
 128 0056 A363     		str	r3, [r4, #56]
 129 0058 E4E7     		b	.L4
 130              	.LVL11:
 131              	.L2:
1160:Drivers/STM32H7xx_HAL_Driver/Src/stm32h7xx_hal_dcmi.c ****   {
 132              		.loc 1 1160 8 is_stmt 1 view .LVU42
1160:Drivers/STM32H7xx_HAL_Driver/Src/stm32h7xx_hal_dcmi.c ****   {
 133              		.loc 1 1160 42 is_stmt 0 view .LVU43
 134 005a A36C     		ldr	r3, [r4, #72]
1160:Drivers/STM32H7xx_HAL_Driver/Src/stm32h7xx_hal_dcmi.c ****   {
 135              		.loc 1 1160 54 view .LVU44
 136 005c 1B68     		ldr	r3, [r3]
1160:Drivers/STM32H7xx_HAL_Driver/Src/stm32h7xx_hal_dcmi.c ****   {
 137              		.loc 1 1160 66 view .LVU45
 138 005e 1A68     		ldr	r2, [r3]
1160:Drivers/STM32H7xx_HAL_Driver/Src/stm32h7xx_hal_dcmi.c ****   {
 139              		.loc 1 1160 11 view .LVU46
 140 0060 12F4002F 		tst	r2, #524288
 141 0064 02D0     		beq	.L5
1162:Drivers/STM32H7xx_HAL_Driver/Src/stm32h7xx_hal_dcmi.c ****   }
 142              		.loc 1 1162 5 is_stmt 1 view .LVU47
1162:Drivers/STM32H7xx_HAL_Driver/Src/stm32h7xx_hal_dcmi.c ****   }
 143              		.loc 1 1162 72 is_stmt 0 view .LVU48
 144 0066 626C     		ldr	r2, [r4, #68]
1162:Drivers/STM32H7xx_HAL_Driver/Src/stm32h7xx_hal_dcmi.c ****   }
 145              		.loc 1 1162 65 view .LVU49
 146 0068 DA60     		str	r2, [r3, #12]
 147 006a DBE7     		b	.L4
 148              	.L5:
1165:Drivers/STM32H7xx_HAL_Driver/Src/stm32h7xx_hal_dcmi.c ****   {
 149              		.loc 1 1165 8 is_stmt 1 view .LVU50
1165:Drivers/STM32H7xx_HAL_Driver/Src/stm32h7xx_hal_dcmi.c ****   {
 150              		.loc 1 1165 66 is_stmt 0 view .LVU51
 151 006c 1A68     		ldr	r2, [r3]
1165:Drivers/STM32H7xx_HAL_Driver/Src/stm32h7xx_hal_dcmi.c ****   {
 152              		.loc 1 1165 11 view .LVU52
 153 006e 12F4002F 		tst	r2, #524288
 154 0072 D7D1     		bne	.L4
ARM GAS  /tmp/ccYwYWEs.s 			page 25


1167:Drivers/STM32H7xx_HAL_Driver/Src/stm32h7xx_hal_dcmi.c ****     ((DMA_Stream_TypeDef *)(hdcmi->DMA_Handle->Instance))->M1AR = (tmp + (4U * hdcmi->XferSize));
 155              		.loc 1 1167 5 is_stmt 1 view .LVU53
1167:Drivers/STM32H7xx_HAL_Driver/Src/stm32h7xx_hal_dcmi.c ****     ((DMA_Stream_TypeDef *)(hdcmi->DMA_Handle->Instance))->M1AR = (tmp + (4U * hdcmi->XferSize));
 156              		.loc 1 1167 9 is_stmt 0 view .LVU54
 157 0074 626C     		ldr	r2, [r4, #68]
 158              	.LVL12:
1168:Drivers/STM32H7xx_HAL_Driver/Src/stm32h7xx_hal_dcmi.c ****     hdcmi->XferCount = hdcmi->XferTransferNumber;
 159              		.loc 1 1168 5 is_stmt 1 view .LVU55
1168:Drivers/STM32H7xx_HAL_Driver/Src/stm32h7xx_hal_dcmi.c ****     hdcmi->XferCount = hdcmi->XferTransferNumber;
 160              		.loc 1 1168 85 is_stmt 0 view .LVU56
 161 0076 E16B     		ldr	r1, [r4, #60]
1168:Drivers/STM32H7xx_HAL_Driver/Src/stm32h7xx_hal_dcmi.c ****     hdcmi->XferCount = hdcmi->XferTransferNumber;
 162              		.loc 1 1168 72 view .LVU57
 163 0078 02EB8102 		add	r2, r2, r1, lsl #2
 164              	.LVL13:
1168:Drivers/STM32H7xx_HAL_Driver/Src/stm32h7xx_hal_dcmi.c ****     hdcmi->XferCount = hdcmi->XferTransferNumber;
 165              		.loc 1 1168 65 view .LVU58
 166 007c 1A61     		str	r2, [r3, #16]
 167              	.LVL14:
1169:Drivers/STM32H7xx_HAL_Driver/Src/stm32h7xx_hal_dcmi.c ****   }
 168              		.loc 1 1169 5 is_stmt 1 view .LVU59
1169:Drivers/STM32H7xx_HAL_Driver/Src/stm32h7xx_hal_dcmi.c ****   }
 169              		.loc 1 1169 29 is_stmt 0 view .LVU60
 170 007e 236C     		ldr	r3, [r4, #64]
1169:Drivers/STM32H7xx_HAL_Driver/Src/stm32h7xx_hal_dcmi.c ****   }
 171              		.loc 1 1169 22 view .LVU61
 172 0080 A363     		str	r3, [r4, #56]
 173 0082 CFE7     		b	.L4
 174              	.LVL15:
 175              	.L10:
1180:Drivers/STM32H7xx_HAL_Driver/Src/stm32h7xx_hal_dcmi.c **** 
 176              		.loc 1 1180 5 is_stmt 1 view .LVU62
 177 0084 2268     		ldr	r2, [r4]
 178 0086 D368     		ldr	r3, [r2, #12]
 179 0088 43F00103 		orr	r3, r3, #1
 180 008c D360     		str	r3, [r2, #12]
1183:Drivers/STM32H7xx_HAL_Driver/Src/stm32h7xx_hal_dcmi.c ****     {
 181              		.loc 1 1183 5 view .LVU63
1183:Drivers/STM32H7xx_HAL_Driver/Src/stm32h7xx_hal_dcmi.c ****     {
 182              		.loc 1 1183 15 is_stmt 0 view .LVU64
 183 008e 2368     		ldr	r3, [r4]
1183:Drivers/STM32H7xx_HAL_Driver/Src/stm32h7xx_hal_dcmi.c ****     {
 184              		.loc 1 1183 25 view .LVU65
 185 0090 1B68     		ldr	r3, [r3]
1183:Drivers/STM32H7xx_HAL_Driver/Src/stm32h7xx_hal_dcmi.c ****     {
 186              		.loc 1 1183 8 view .LVU66
 187 0092 13F0020F 		tst	r3, #2
 188 0096 C9D0     		beq	.L1
1185:Drivers/STM32H7xx_HAL_Driver/Src/stm32h7xx_hal_dcmi.c ****     }
 189              		.loc 1 1185 7 is_stmt 1 view .LVU67
1185:Drivers/STM32H7xx_HAL_Driver/Src/stm32h7xx_hal_dcmi.c ****     }
 190              		.loc 1 1185 20 is_stmt 0 view .LVU68
 191 0098 0123     		movs	r3, #1
 192 009a 84F83530 		strb	r3, [r4, #53]
 193              		.loc 1 1188 1 view .LVU69
 194 009e C5E7     		b	.L1
 195              		.cfi_endproc
ARM GAS  /tmp/ccYwYWEs.s 			page 26


 196              	.LFE356:
 198              		.section	.text.HAL_DCMI_MspInit,"ax",%progbits
 199              		.align	1
 200              		.weak	HAL_DCMI_MspInit
 201              		.syntax unified
 202              		.thumb
 203              		.thumb_func
 205              	HAL_DCMI_MspInit:
 206              	.LVL16:
 207              	.LFB339:
 308:Drivers/STM32H7xx_HAL_Driver/Src/stm32h7xx_hal_dcmi.c ****   /* Prevent unused argument(s) compilation warning */
 208              		.loc 1 308 1 is_stmt 1 view -0
 209              		.cfi_startproc
 210              		@ args = 0, pretend = 0, frame = 0
 211              		@ frame_needed = 0, uses_anonymous_args = 0
 212              		@ link register save eliminated.
 310:Drivers/STM32H7xx_HAL_Driver/Src/stm32h7xx_hal_dcmi.c **** 
 213              		.loc 1 310 3 view .LVU71
 315:Drivers/STM32H7xx_HAL_Driver/Src/stm32h7xx_hal_dcmi.c **** 
 214              		.loc 1 315 1 is_stmt 0 view .LVU72
 215 0000 7047     		bx	lr
 216              		.cfi_endproc
 217              	.LFE339:
 219              		.section	.text.HAL_DCMI_Init,"ax",%progbits
 220              		.align	1
 221              		.global	HAL_DCMI_Init
 222              		.syntax unified
 223              		.thumb
 224              		.thumb_func
 226              	HAL_DCMI_Init:
 227              	.LVL17:
 228              	.LFB337:
 179:Drivers/STM32H7xx_HAL_Driver/Src/stm32h7xx_hal_dcmi.c ****   /* Check the DCMI peripheral state */
 229              		.loc 1 179 1 is_stmt 1 view -0
 230              		.cfi_startproc
 231              		@ args = 0, pretend = 0, frame = 0
 232              		@ frame_needed = 0, uses_anonymous_args = 0
 181:Drivers/STM32H7xx_HAL_Driver/Src/stm32h7xx_hal_dcmi.c ****   {
 233              		.loc 1 181 3 view .LVU74
 181:Drivers/STM32H7xx_HAL_Driver/Src/stm32h7xx_hal_dcmi.c ****   {
 234              		.loc 1 181 6 is_stmt 0 view .LVU75
 235 0000 0028     		cmp	r0, #0
 236 0002 48D0     		beq	.L17
 179:Drivers/STM32H7xx_HAL_Driver/Src/stm32h7xx_hal_dcmi.c ****   /* Check the DCMI peripheral state */
 237              		.loc 1 179 1 view .LVU76
 238 0004 10B5     		push	{r4, lr}
 239              	.LCFI1:
 240              		.cfi_def_cfa_offset 8
 241              		.cfi_offset 4, -8
 242              		.cfi_offset 14, -4
 243 0006 0446     		mov	r4, r0
 187:Drivers/STM32H7xx_HAL_Driver/Src/stm32h7xx_hal_dcmi.c ****   assert_param(IS_DCMI_PCKPOLARITY(hdcmi->Init.PCKPolarity));
 244              		.loc 1 187 3 is_stmt 1 view .LVU77
 188:Drivers/STM32H7xx_HAL_Driver/Src/stm32h7xx_hal_dcmi.c ****   assert_param(IS_DCMI_VSPOLARITY(hdcmi->Init.VSPolarity));
 245              		.loc 1 188 3 view .LVU78
 189:Drivers/STM32H7xx_HAL_Driver/Src/stm32h7xx_hal_dcmi.c ****   assert_param(IS_DCMI_HSPOLARITY(hdcmi->Init.HSPolarity));
 246              		.loc 1 189 3 view .LVU79
ARM GAS  /tmp/ccYwYWEs.s 			page 27


 190:Drivers/STM32H7xx_HAL_Driver/Src/stm32h7xx_hal_dcmi.c ****   assert_param(IS_DCMI_SYNCHRO(hdcmi->Init.SynchroMode));
 247              		.loc 1 190 3 view .LVU80
 191:Drivers/STM32H7xx_HAL_Driver/Src/stm32h7xx_hal_dcmi.c ****   assert_param(IS_DCMI_CAPTURE_RATE(hdcmi->Init.CaptureRate));
 248              		.loc 1 191 3 view .LVU81
 192:Drivers/STM32H7xx_HAL_Driver/Src/stm32h7xx_hal_dcmi.c ****   assert_param(IS_DCMI_EXTENDED_DATA(hdcmi->Init.ExtendedDataMode));
 249              		.loc 1 192 3 view .LVU82
 193:Drivers/STM32H7xx_HAL_Driver/Src/stm32h7xx_hal_dcmi.c ****   assert_param(IS_DCMI_MODE_JPEG(hdcmi->Init.JPEGMode));
 250              		.loc 1 193 3 view .LVU83
 194:Drivers/STM32H7xx_HAL_Driver/Src/stm32h7xx_hal_dcmi.c **** 
 251              		.loc 1 194 3 view .LVU84
 196:Drivers/STM32H7xx_HAL_Driver/Src/stm32h7xx_hal_dcmi.c ****   assert_param(IS_DCMI_BYTE_SELECT_START(hdcmi->Init.ByteSelectStart));
 252              		.loc 1 196 3 view .LVU85
 197:Drivers/STM32H7xx_HAL_Driver/Src/stm32h7xx_hal_dcmi.c ****   assert_param(IS_DCMI_LINE_SELECT_MODE(hdcmi->Init.LineSelectMode));
 253              		.loc 1 197 3 view .LVU86
 198:Drivers/STM32H7xx_HAL_Driver/Src/stm32h7xx_hal_dcmi.c ****   assert_param(IS_DCMI_LINE_SELECT_START(hdcmi->Init.LineSelectStart));
 254              		.loc 1 198 3 view .LVU87
 199:Drivers/STM32H7xx_HAL_Driver/Src/stm32h7xx_hal_dcmi.c **** 
 255              		.loc 1 199 3 view .LVU88
 201:Drivers/STM32H7xx_HAL_Driver/Src/stm32h7xx_hal_dcmi.c ****   {
 256              		.loc 1 201 3 view .LVU89
 201:Drivers/STM32H7xx_HAL_Driver/Src/stm32h7xx_hal_dcmi.c ****   {
 257              		.loc 1 201 12 is_stmt 0 view .LVU90
 258 0008 90F83530 		ldrb	r3, [r0, #53]	@ zero_extendqisi2
 201:Drivers/STM32H7xx_HAL_Driver/Src/stm32h7xx_hal_dcmi.c ****   {
 259              		.loc 1 201 6 view .LVU91
 260 000c 002B     		cmp	r3, #0
 261 000e 32D0     		beq	.L22
 262              	.LVL18:
 263              	.L14:
 225:Drivers/STM32H7xx_HAL_Driver/Src/stm32h7xx_hal_dcmi.c **** 
 264              		.loc 1 225 3 is_stmt 1 view .LVU92
 225:Drivers/STM32H7xx_HAL_Driver/Src/stm32h7xx_hal_dcmi.c **** 
 265              		.loc 1 225 16 is_stmt 0 view .LVU93
 266 0010 0223     		movs	r3, #2
 267 0012 84F83530 		strb	r3, [r4, #53]
 227:Drivers/STM32H7xx_HAL_Driver/Src/stm32h7xx_hal_dcmi.c ****   {
 268              		.loc 1 227 3 is_stmt 1 view .LVU94
 227:Drivers/STM32H7xx_HAL_Driver/Src/stm32h7xx_hal_dcmi.c ****   {
 269              		.loc 1 227 18 is_stmt 0 view .LVU95
 270 0016 A369     		ldr	r3, [r4, #24]
 227:Drivers/STM32H7xx_HAL_Driver/Src/stm32h7xx_hal_dcmi.c ****   {
 271              		.loc 1 227 6 view .LVU96
 272 0018 0BB1     		cbz	r3, .L15
 231:Drivers/STM32H7xx_HAL_Driver/Src/stm32h7xx_hal_dcmi.c ****   }
 273              		.loc 1 231 5 is_stmt 1 view .LVU97
 231:Drivers/STM32H7xx_HAL_Driver/Src/stm32h7xx_hal_dcmi.c ****   }
 274              		.loc 1 231 32 is_stmt 0 view .LVU98
 275 001a 0023     		movs	r3, #0
 276 001c 6362     		str	r3, [r4, #36]
 277              	.L15:
 234:Drivers/STM32H7xx_HAL_Driver/Src/stm32h7xx_hal_dcmi.c ****                            DCMI_CR_EDM_1  | DCMI_CR_FCRC_0 | DCMI_CR_FCRC_1 | DCMI_CR_JPEG  | \
 278              		.loc 1 234 3 is_stmt 1 view .LVU99
 234:Drivers/STM32H7xx_HAL_Driver/Src/stm32h7xx_hal_dcmi.c ****                            DCMI_CR_EDM_1  | DCMI_CR_FCRC_0 | DCMI_CR_FCRC_1 | DCMI_CR_JPEG  | \
 279              		.loc 1 234 8 is_stmt 0 view .LVU100
 280 001e 2268     		ldr	r2, [r4]
 234:Drivers/STM32H7xx_HAL_Driver/Src/stm32h7xx_hal_dcmi.c ****                            DCMI_CR_EDM_1  | DCMI_CR_FCRC_0 | DCMI_CR_FCRC_1 | DCMI_CR_JPEG  | \
 281              		.loc 1 234 18 view .LVU101
ARM GAS  /tmp/ccYwYWEs.s 			page 28


 282 0020 1168     		ldr	r1, [r2]
 234:Drivers/STM32H7xx_HAL_Driver/Src/stm32h7xx_hal_dcmi.c ****                            DCMI_CR_EDM_1  | DCMI_CR_FCRC_0 | DCMI_CR_FCRC_1 | DCMI_CR_JPEG  | \
 283              		.loc 1 234 23 view .LVU102
 284 0022 1E4B     		ldr	r3, .L24
 285 0024 0B40     		ands	r3, r3, r1
 286 0026 1360     		str	r3, [r2]
 239:Drivers/STM32H7xx_HAL_Driver/Src/stm32h7xx_hal_dcmi.c ****                                     hdcmi->Init.VSPolarity  | hdcmi->Init.HSPolarity  | \
 287              		.loc 1 239 3 is_stmt 1 view .LVU103
 239:Drivers/STM32H7xx_HAL_Driver/Src/stm32h7xx_hal_dcmi.c ****                                     hdcmi->Init.VSPolarity  | hdcmi->Init.HSPolarity  | \
 288              		.loc 1 239 8 is_stmt 0 view .LVU104
 289 0028 2268     		ldr	r2, [r4]
 239:Drivers/STM32H7xx_HAL_Driver/Src/stm32h7xx_hal_dcmi.c ****                                     hdcmi->Init.VSPolarity  | hdcmi->Init.HSPolarity  | \
 290              		.loc 1 239 18 view .LVU105
 291 002a 1168     		ldr	r1, [r2]
 239:Drivers/STM32H7xx_HAL_Driver/Src/stm32h7xx_hal_dcmi.c ****                                     hdcmi->Init.VSPolarity  | hdcmi->Init.HSPolarity  | \
 292              		.loc 1 239 48 view .LVU106
 293 002c 6368     		ldr	r3, [r4, #4]
 239:Drivers/STM32H7xx_HAL_Driver/Src/stm32h7xx_hal_dcmi.c ****                                     hdcmi->Init.VSPolarity  | hdcmi->Init.HSPolarity  | \
 294              		.loc 1 239 74 view .LVU107
 295 002e 6069     		ldr	r0, [r4, #20]
 239:Drivers/STM32H7xx_HAL_Driver/Src/stm32h7xx_hal_dcmi.c ****                                     hdcmi->Init.VSPolarity  | hdcmi->Init.HSPolarity  | \
 296              		.loc 1 239 61 view .LVU108
 297 0030 0343     		orrs	r3, r3, r0
 240:Drivers/STM32H7xx_HAL_Driver/Src/stm32h7xx_hal_dcmi.c ****                                     hdcmi->Init.PCKPolarity | hdcmi->Init.ExtendedDataMode | \
 298              		.loc 1 240 48 view .LVU109
 299 0032 E068     		ldr	r0, [r4, #12]
 239:Drivers/STM32H7xx_HAL_Driver/Src/stm32h7xx_hal_dcmi.c ****                                     hdcmi->Init.VSPolarity  | hdcmi->Init.HSPolarity  | \
 300              		.loc 1 239 87 view .LVU110
 301 0034 0343     		orrs	r3, r3, r0
 240:Drivers/STM32H7xx_HAL_Driver/Src/stm32h7xx_hal_dcmi.c ****                                     hdcmi->Init.PCKPolarity | hdcmi->Init.ExtendedDataMode | \
 302              		.loc 1 240 74 view .LVU111
 303 0036 2069     		ldr	r0, [r4, #16]
 240:Drivers/STM32H7xx_HAL_Driver/Src/stm32h7xx_hal_dcmi.c ****                                     hdcmi->Init.PCKPolarity | hdcmi->Init.ExtendedDataMode | \
 304              		.loc 1 240 61 view .LVU112
 305 0038 0343     		orrs	r3, r3, r0
 241:Drivers/STM32H7xx_HAL_Driver/Src/stm32h7xx_hal_dcmi.c ****                                     hdcmi->Init.JPEGMode | hdcmi->Init.ByteSelectMode | \
 306              		.loc 1 241 48 view .LVU113
 307 003a A068     		ldr	r0, [r4, #8]
 240:Drivers/STM32H7xx_HAL_Driver/Src/stm32h7xx_hal_dcmi.c ****                                     hdcmi->Init.PCKPolarity | hdcmi->Init.ExtendedDataMode | \
 308              		.loc 1 240 87 view .LVU114
 309 003c 0343     		orrs	r3, r3, r0
 241:Drivers/STM32H7xx_HAL_Driver/Src/stm32h7xx_hal_dcmi.c ****                                     hdcmi->Init.JPEGMode | hdcmi->Init.ByteSelectMode | \
 310              		.loc 1 241 74 view .LVU115
 311 003e A069     		ldr	r0, [r4, #24]
 241:Drivers/STM32H7xx_HAL_Driver/Src/stm32h7xx_hal_dcmi.c ****                                     hdcmi->Init.JPEGMode | hdcmi->Init.ByteSelectMode | \
 312              		.loc 1 241 61 view .LVU116
 313 0040 0343     		orrs	r3, r3, r0
 242:Drivers/STM32H7xx_HAL_Driver/Src/stm32h7xx_hal_dcmi.c ****                                     hdcmi->Init.ByteSelectStart | hdcmi->Init.LineSelectMode | \
 314              		.loc 1 242 48 view .LVU117
 315 0042 206A     		ldr	r0, [r4, #32]
 241:Drivers/STM32H7xx_HAL_Driver/Src/stm32h7xx_hal_dcmi.c ****                                     hdcmi->Init.JPEGMode | hdcmi->Init.ByteSelectMode | \
 316              		.loc 1 241 92 view .LVU118
 317 0044 0343     		orrs	r3, r3, r0
 242:Drivers/STM32H7xx_HAL_Driver/Src/stm32h7xx_hal_dcmi.c ****                                     hdcmi->Init.ByteSelectStart | hdcmi->Init.LineSelectMode | \
 318              		.loc 1 242 71 view .LVU119
 319 0046 606A     		ldr	r0, [r4, #36]
 242:Drivers/STM32H7xx_HAL_Driver/Src/stm32h7xx_hal_dcmi.c ****                                     hdcmi->Init.ByteSelectStart | hdcmi->Init.LineSelectMode | \
ARM GAS  /tmp/ccYwYWEs.s 			page 29


 320              		.loc 1 242 58 view .LVU120
 321 0048 0343     		orrs	r3, r3, r0
 243:Drivers/STM32H7xx_HAL_Driver/Src/stm32h7xx_hal_dcmi.c ****                                     hdcmi->Init.LineSelectStart);
 322              		.loc 1 243 48 view .LVU121
 323 004a A06A     		ldr	r0, [r4, #40]
 242:Drivers/STM32H7xx_HAL_Driver/Src/stm32h7xx_hal_dcmi.c ****                                     hdcmi->Init.ByteSelectStart | hdcmi->Init.LineSelectMode | \
 324              		.loc 1 242 87 view .LVU122
 325 004c 0343     		orrs	r3, r3, r0
 243:Drivers/STM32H7xx_HAL_Driver/Src/stm32h7xx_hal_dcmi.c ****                                     hdcmi->Init.LineSelectStart);
 326              		.loc 1 243 78 view .LVU123
 327 004e E06A     		ldr	r0, [r4, #44]
 243:Drivers/STM32H7xx_HAL_Driver/Src/stm32h7xx_hal_dcmi.c ****                                     hdcmi->Init.LineSelectStart);
 328              		.loc 1 243 65 view .LVU124
 329 0050 0343     		orrs	r3, r3, r0
 244:Drivers/STM32H7xx_HAL_Driver/Src/stm32h7xx_hal_dcmi.c **** 
 330              		.loc 1 244 48 view .LVU125
 331 0052 206B     		ldr	r0, [r4, #48]
 243:Drivers/STM32H7xx_HAL_Driver/Src/stm32h7xx_hal_dcmi.c ****                                     hdcmi->Init.LineSelectStart);
 332              		.loc 1 243 94 view .LVU126
 333 0054 0343     		orrs	r3, r3, r0
 239:Drivers/STM32H7xx_HAL_Driver/Src/stm32h7xx_hal_dcmi.c ****                                     hdcmi->Init.VSPolarity  | hdcmi->Init.HSPolarity  | \
 334              		.loc 1 239 23 view .LVU127
 335 0056 0B43     		orrs	r3, r3, r1
 336 0058 1360     		str	r3, [r2]
 246:Drivers/STM32H7xx_HAL_Driver/Src/stm32h7xx_hal_dcmi.c ****   {
 337              		.loc 1 246 3 is_stmt 1 view .LVU128
 246:Drivers/STM32H7xx_HAL_Driver/Src/stm32h7xx_hal_dcmi.c ****   {
 338              		.loc 1 246 18 is_stmt 0 view .LVU129
 339 005a 6368     		ldr	r3, [r4, #4]
 246:Drivers/STM32H7xx_HAL_Driver/Src/stm32h7xx_hal_dcmi.c ****   {
 340              		.loc 1 246 6 view .LVU130
 341 005c 102B     		cmp	r3, #16
 342 005e 0DD0     		beq	.L23
 343              	.L16:
 256:Drivers/STM32H7xx_HAL_Driver/Src/stm32h7xx_hal_dcmi.c **** 
 344              		.loc 1 256 3 is_stmt 1 view .LVU131
 345 0060 2268     		ldr	r2, [r4]
 346 0062 D368     		ldr	r3, [r2, #12]
 347 0064 43F01E03 		orr	r3, r3, #30
 348 0068 D360     		str	r3, [r2, #12]
 259:Drivers/STM32H7xx_HAL_Driver/Src/stm32h7xx_hal_dcmi.c **** 
 349              		.loc 1 259 3 view .LVU132
 259:Drivers/STM32H7xx_HAL_Driver/Src/stm32h7xx_hal_dcmi.c **** 
 350              		.loc 1 259 20 is_stmt 0 view .LVU133
 351 006a 0020     		movs	r0, #0
 352 006c E064     		str	r0, [r4, #76]
 262:Drivers/STM32H7xx_HAL_Driver/Src/stm32h7xx_hal_dcmi.c **** 
 353              		.loc 1 262 3 is_stmt 1 view .LVU134
 262:Drivers/STM32H7xx_HAL_Driver/Src/stm32h7xx_hal_dcmi.c **** 
 354              		.loc 1 262 17 is_stmt 0 view .LVU135
 355 006e 0123     		movs	r3, #1
 356 0070 84F83530 		strb	r3, [r4, #53]
 264:Drivers/STM32H7xx_HAL_Driver/Src/stm32h7xx_hal_dcmi.c **** }
 357              		.loc 1 264 3 is_stmt 1 view .LVU136
 265:Drivers/STM32H7xx_HAL_Driver/Src/stm32h7xx_hal_dcmi.c **** 
 358              		.loc 1 265 1 is_stmt 0 view .LVU137
 359 0074 10BD     		pop	{r4, pc}
ARM GAS  /tmp/ccYwYWEs.s 			page 30


 360              	.LVL19:
 361              	.L22:
 220:Drivers/STM32H7xx_HAL_Driver/Src/stm32h7xx_hal_dcmi.c **** #endif /* (USE_HAL_DCMI_REGISTER_CALLBACKS) */
 362              		.loc 1 220 5 is_stmt 1 view .LVU138
 363 0076 FFF7FEFF 		bl	HAL_DCMI_MspInit
 364              	.LVL20:
 220:Drivers/STM32H7xx_HAL_Driver/Src/stm32h7xx_hal_dcmi.c **** #endif /* (USE_HAL_DCMI_REGISTER_CALLBACKS) */
 365              		.loc 1 220 5 is_stmt 0 view .LVU139
 366 007a C9E7     		b	.L14
 367              	.L23:
 248:Drivers/STM32H7xx_HAL_Driver/Src/stm32h7xx_hal_dcmi.c ****                              ((uint32_t)hdcmi->Init.SyncroCode.LineStartCode << DCMI_ESCR_LSC_Pos) 
 368              		.loc 1 248 5 is_stmt 1 view .LVU140
 248:Drivers/STM32H7xx_HAL_Driver/Src/stm32h7xx_hal_dcmi.c ****                              ((uint32_t)hdcmi->Init.SyncroCode.LineStartCode << DCMI_ESCR_LSC_Pos) 
 369              		.loc 1 248 63 is_stmt 0 view .LVU141
 370 007c 237F     		ldrb	r3, [r4, #28]	@ zero_extendqisi2
 249:Drivers/STM32H7xx_HAL_Driver/Src/stm32h7xx_hal_dcmi.c ****                              ((uint32_t)hdcmi->Init.SyncroCode.LineEndCode << DCMI_ESCR_LEC_Pos) | 
 371              		.loc 1 249 63 view .LVU142
 372 007e 627F     		ldrb	r2, [r4, #29]	@ zero_extendqisi2
 248:Drivers/STM32H7xx_HAL_Driver/Src/stm32h7xx_hal_dcmi.c ****                              ((uint32_t)hdcmi->Init.SyncroCode.LineStartCode << DCMI_ESCR_LSC_Pos) 
 373              		.loc 1 248 83 view .LVU143
 374 0080 43EA0223 		orr	r3, r3, r2, lsl #8
 250:Drivers/STM32H7xx_HAL_Driver/Src/stm32h7xx_hal_dcmi.c ****                              ((uint32_t)hdcmi->Init.SyncroCode.FrameEndCode << DCMI_ESCR_FEC_Pos));
 375              		.loc 1 250 63 view .LVU144
 376 0084 A27F     		ldrb	r2, [r4, #30]	@ zero_extendqisi2
 249:Drivers/STM32H7xx_HAL_Driver/Src/stm32h7xx_hal_dcmi.c ****                              ((uint32_t)hdcmi->Init.SyncroCode.LineEndCode << DCMI_ESCR_LEC_Pos) | 
 377              		.loc 1 249 100 view .LVU145
 378 0086 43EA0243 		orr	r3, r3, r2, lsl #16
 251:Drivers/STM32H7xx_HAL_Driver/Src/stm32h7xx_hal_dcmi.c **** 
 379              		.loc 1 251 63 view .LVU146
 380 008a E17F     		ldrb	r1, [r4, #31]	@ zero_extendqisi2
 248:Drivers/STM32H7xx_HAL_Driver/Src/stm32h7xx_hal_dcmi.c ****                              ((uint32_t)hdcmi->Init.SyncroCode.LineStartCode << DCMI_ESCR_LSC_Pos) 
 381              		.loc 1 248 10 view .LVU147
 382 008c 2268     		ldr	r2, [r4]
 250:Drivers/STM32H7xx_HAL_Driver/Src/stm32h7xx_hal_dcmi.c ****                              ((uint32_t)hdcmi->Init.SyncroCode.FrameEndCode << DCMI_ESCR_FEC_Pos));
 383              		.loc 1 250 98 view .LVU148
 384 008e 43EA0163 		orr	r3, r3, r1, lsl #24
 248:Drivers/STM32H7xx_HAL_Driver/Src/stm32h7xx_hal_dcmi.c ****                              ((uint32_t)hdcmi->Init.SyncroCode.LineStartCode << DCMI_ESCR_LSC_Pos) 
 385              		.loc 1 248 27 view .LVU149
 386 0092 9361     		str	r3, [r2, #24]
 387 0094 E4E7     		b	.L16
 388              	.LVL21:
 389              	.L17:
 390              	.LCFI2:
 391              		.cfi_def_cfa_offset 0
 392              		.cfi_restore 4
 393              		.cfi_restore 14
 183:Drivers/STM32H7xx_HAL_Driver/Src/stm32h7xx_hal_dcmi.c ****   }
 394              		.loc 1 183 12 view .LVU150
 395 0096 0120     		movs	r0, #1
 396              	.LVL22:
 265:Drivers/STM32H7xx_HAL_Driver/Src/stm32h7xx_hal_dcmi.c **** 
 397              		.loc 1 265 1 view .LVU151
 398 0098 7047     		bx	lr
 399              	.L25:
 400 009a 00BF     		.align	2
 401              	.L24:
 402 009c 07F0E0FF 		.word	-2035705
ARM GAS  /tmp/ccYwYWEs.s 			page 31


 403              		.cfi_endproc
 404              	.LFE337:
 406              		.section	.text.HAL_DCMI_MspDeInit,"ax",%progbits
 407              		.align	1
 408              		.weak	HAL_DCMI_MspDeInit
 409              		.syntax unified
 410              		.thumb
 411              		.thumb_func
 413              	HAL_DCMI_MspDeInit:
 414              	.LVL23:
 415              	.LFB340:
 324:Drivers/STM32H7xx_HAL_Driver/Src/stm32h7xx_hal_dcmi.c ****   /* Prevent unused argument(s) compilation warning */
 416              		.loc 1 324 1 is_stmt 1 view -0
 417              		.cfi_startproc
 418              		@ args = 0, pretend = 0, frame = 0
 419              		@ frame_needed = 0, uses_anonymous_args = 0
 420              		@ link register save eliminated.
 326:Drivers/STM32H7xx_HAL_Driver/Src/stm32h7xx_hal_dcmi.c **** 
 421              		.loc 1 326 3 view .LVU153
 331:Drivers/STM32H7xx_HAL_Driver/Src/stm32h7xx_hal_dcmi.c **** 
 422              		.loc 1 331 1 is_stmt 0 view .LVU154
 423 0000 7047     		bx	lr
 424              		.cfi_endproc
 425              	.LFE340:
 427              		.section	.text.HAL_DCMI_DeInit,"ax",%progbits
 428              		.align	1
 429              		.global	HAL_DCMI_DeInit
 430              		.syntax unified
 431              		.thumb
 432              		.thumb_func
 434              	HAL_DCMI_DeInit:
 435              	.LVL24:
 436              	.LFB338:
 276:Drivers/STM32H7xx_HAL_Driver/Src/stm32h7xx_hal_dcmi.c **** #if (USE_HAL_DCMI_REGISTER_CALLBACKS == 1)
 437              		.loc 1 276 1 is_stmt 1 view -0
 438              		.cfi_startproc
 439              		@ args = 0, pretend = 0, frame = 0
 440              		@ frame_needed = 0, uses_anonymous_args = 0
 276:Drivers/STM32H7xx_HAL_Driver/Src/stm32h7xx_hal_dcmi.c **** #if (USE_HAL_DCMI_REGISTER_CALLBACKS == 1)
 441              		.loc 1 276 1 is_stmt 0 view .LVU156
 442 0000 10B5     		push	{r4, lr}
 443              	.LCFI3:
 444              		.cfi_def_cfa_offset 8
 445              		.cfi_offset 4, -8
 446              		.cfi_offset 14, -4
 447 0002 0446     		mov	r4, r0
 286:Drivers/STM32H7xx_HAL_Driver/Src/stm32h7xx_hal_dcmi.c **** #endif /* (USE_HAL_DCMI_REGISTER_CALLBACKS) */
 448              		.loc 1 286 3 is_stmt 1 view .LVU157
 449 0004 FFF7FEFF 		bl	HAL_DCMI_MspDeInit
 450              	.LVL25:
 290:Drivers/STM32H7xx_HAL_Driver/Src/stm32h7xx_hal_dcmi.c **** 
 451              		.loc 1 290 3 view .LVU158
 290:Drivers/STM32H7xx_HAL_Driver/Src/stm32h7xx_hal_dcmi.c **** 
 452              		.loc 1 290 20 is_stmt 0 view .LVU159
 453 0008 0020     		movs	r0, #0
 454 000a E064     		str	r0, [r4, #76]
 293:Drivers/STM32H7xx_HAL_Driver/Src/stm32h7xx_hal_dcmi.c **** 
ARM GAS  /tmp/ccYwYWEs.s 			page 32


 455              		.loc 1 293 3 is_stmt 1 view .LVU160
 293:Drivers/STM32H7xx_HAL_Driver/Src/stm32h7xx_hal_dcmi.c **** 
 456              		.loc 1 293 16 is_stmt 0 view .LVU161
 457 000c 84F83500 		strb	r0, [r4, #53]
 296:Drivers/STM32H7xx_HAL_Driver/Src/stm32h7xx_hal_dcmi.c **** 
 458              		.loc 1 296 3 is_stmt 1 view .LVU162
 296:Drivers/STM32H7xx_HAL_Driver/Src/stm32h7xx_hal_dcmi.c **** 
 459              		.loc 1 296 3 view .LVU163
 460 0010 84F83400 		strb	r0, [r4, #52]
 296:Drivers/STM32H7xx_HAL_Driver/Src/stm32h7xx_hal_dcmi.c **** 
 461              		.loc 1 296 3 view .LVU164
 298:Drivers/STM32H7xx_HAL_Driver/Src/stm32h7xx_hal_dcmi.c **** }
 462              		.loc 1 298 3 view .LVU165
 299:Drivers/STM32H7xx_HAL_Driver/Src/stm32h7xx_hal_dcmi.c **** 
 463              		.loc 1 299 1 is_stmt 0 view .LVU166
 464 0014 10BD     		pop	{r4, pc}
 299:Drivers/STM32H7xx_HAL_Driver/Src/stm32h7xx_hal_dcmi.c **** 
 465              		.loc 1 299 1 view .LVU167
 466              		.cfi_endproc
 467              	.LFE338:
 469              		.section	.text.HAL_DCMI_Start_DMA,"ax",%progbits
 470              		.align	1
 471              		.global	HAL_DCMI_Start_DMA
 472              		.syntax unified
 473              		.thumb
 474              		.thumb_func
 476              	HAL_DCMI_Start_DMA:
 477              	.LVL26:
 478              	.LFB341:
 363:Drivers/STM32H7xx_HAL_Driver/Src/stm32h7xx_hal_dcmi.c ****   /* Initialize the second memory address */
 479              		.loc 1 363 1 is_stmt 1 view -0
 480              		.cfi_startproc
 481              		@ args = 0, pretend = 0, frame = 0
 482              		@ frame_needed = 0, uses_anonymous_args = 0
 363:Drivers/STM32H7xx_HAL_Driver/Src/stm32h7xx_hal_dcmi.c ****   /* Initialize the second memory address */
 483              		.loc 1 363 1 is_stmt 0 view .LVU169
 484 0000 30B5     		push	{r4, r5, lr}
 485              	.LCFI4:
 486              		.cfi_def_cfa_offset 12
 487              		.cfi_offset 4, -12
 488              		.cfi_offset 5, -8
 489              		.cfi_offset 14, -4
 490 0002 83B0     		sub	sp, sp, #12
 491              	.LCFI5:
 492              		.cfi_def_cfa_offset 24
 493 0004 0446     		mov	r4, r0
 365:Drivers/STM32H7xx_HAL_Driver/Src/stm32h7xx_hal_dcmi.c **** 
 494              		.loc 1 365 3 is_stmt 1 view .LVU170
 368:Drivers/STM32H7xx_HAL_Driver/Src/stm32h7xx_hal_dcmi.c **** 
 495              		.loc 1 368 3 view .LVU171
 371:Drivers/STM32H7xx_HAL_Driver/Src/stm32h7xx_hal_dcmi.c **** 
 496              		.loc 1 371 3 view .LVU172
 371:Drivers/STM32H7xx_HAL_Driver/Src/stm32h7xx_hal_dcmi.c **** 
 497              		.loc 1 371 3 view .LVU173
 498 0006 90F83400 		ldrb	r0, [r0, #52]	@ zero_extendqisi2
 499              	.LVL27:
 371:Drivers/STM32H7xx_HAL_Driver/Src/stm32h7xx_hal_dcmi.c **** 
ARM GAS  /tmp/ccYwYWEs.s 			page 33


 500              		.loc 1 371 3 is_stmt 0 view .LVU174
 501 000a 0128     		cmp	r0, #1
 502 000c 67D0     		beq	.L35
 371:Drivers/STM32H7xx_HAL_Driver/Src/stm32h7xx_hal_dcmi.c **** 
 503              		.loc 1 371 3 is_stmt 1 discriminator 2 view .LVU175
 504 000e 0120     		movs	r0, #1
 505 0010 84F83400 		strb	r0, [r4, #52]
 371:Drivers/STM32H7xx_HAL_Driver/Src/stm32h7xx_hal_dcmi.c **** 
 506              		.loc 1 371 3 view .LVU176
 374:Drivers/STM32H7xx_HAL_Driver/Src/stm32h7xx_hal_dcmi.c **** 
 507              		.loc 1 374 3 view .LVU177
 374:Drivers/STM32H7xx_HAL_Driver/Src/stm32h7xx_hal_dcmi.c **** 
 508              		.loc 1 374 16 is_stmt 0 view .LVU178
 509 0014 0220     		movs	r0, #2
 510 0016 84F83500 		strb	r0, [r4, #53]
 377:Drivers/STM32H7xx_HAL_Driver/Src/stm32h7xx_hal_dcmi.c **** 
 511              		.loc 1 377 3 is_stmt 1 view .LVU179
 512 001a 2568     		ldr	r5, [r4]
 513 001c 2868     		ldr	r0, [r5]
 514 001e 40F48040 		orr	r0, r0, #16384
 515 0022 2860     		str	r0, [r5]
 380:Drivers/STM32H7xx_HAL_Driver/Src/stm32h7xx_hal_dcmi.c ****   hdcmi->Instance->CR |= (uint32_t)(DCMI_Mode);
 516              		.loc 1 380 3 view .LVU180
 380:Drivers/STM32H7xx_HAL_Driver/Src/stm32h7xx_hal_dcmi.c ****   hdcmi->Instance->CR |= (uint32_t)(DCMI_Mode);
 517              		.loc 1 380 8 is_stmt 0 view .LVU181
 518 0024 2568     		ldr	r5, [r4]
 380:Drivers/STM32H7xx_HAL_Driver/Src/stm32h7xx_hal_dcmi.c ****   hdcmi->Instance->CR |= (uint32_t)(DCMI_Mode);
 519              		.loc 1 380 18 view .LVU182
 520 0026 2868     		ldr	r0, [r5]
 380:Drivers/STM32H7xx_HAL_Driver/Src/stm32h7xx_hal_dcmi.c ****   hdcmi->Instance->CR |= (uint32_t)(DCMI_Mode);
 521              		.loc 1 380 23 view .LVU183
 522 0028 20F00200 		bic	r0, r0, #2
 523 002c 2860     		str	r0, [r5]
 381:Drivers/STM32H7xx_HAL_Driver/Src/stm32h7xx_hal_dcmi.c **** 
 524              		.loc 1 381 3 is_stmt 1 view .LVU184
 381:Drivers/STM32H7xx_HAL_Driver/Src/stm32h7xx_hal_dcmi.c **** 
 525              		.loc 1 381 8 is_stmt 0 view .LVU185
 526 002e 2568     		ldr	r5, [r4]
 381:Drivers/STM32H7xx_HAL_Driver/Src/stm32h7xx_hal_dcmi.c **** 
 527              		.loc 1 381 18 view .LVU186
 528 0030 2868     		ldr	r0, [r5]
 381:Drivers/STM32H7xx_HAL_Driver/Src/stm32h7xx_hal_dcmi.c **** 
 529              		.loc 1 381 23 view .LVU187
 530 0032 0143     		orrs	r1, r1, r0
 531              	.LVL28:
 381:Drivers/STM32H7xx_HAL_Driver/Src/stm32h7xx_hal_dcmi.c **** 
 532              		.loc 1 381 23 view .LVU188
 533 0034 2960     		str	r1, [r5]
 384:Drivers/STM32H7xx_HAL_Driver/Src/stm32h7xx_hal_dcmi.c **** 
 534              		.loc 1 384 3 is_stmt 1 view .LVU189
 384:Drivers/STM32H7xx_HAL_Driver/Src/stm32h7xx_hal_dcmi.c **** 
 535              		.loc 1 384 8 is_stmt 0 view .LVU190
 536 0036 A16C     		ldr	r1, [r4, #72]
 384:Drivers/STM32H7xx_HAL_Driver/Src/stm32h7xx_hal_dcmi.c **** 
 537              		.loc 1 384 39 view .LVU191
 538 0038 2A48     		ldr	r0, .L39
 539 003a C863     		str	r0, [r1, #60]
ARM GAS  /tmp/ccYwYWEs.s 			page 34


 387:Drivers/STM32H7xx_HAL_Driver/Src/stm32h7xx_hal_dcmi.c **** 
 540              		.loc 1 387 3 is_stmt 1 view .LVU192
 387:Drivers/STM32H7xx_HAL_Driver/Src/stm32h7xx_hal_dcmi.c **** 
 541              		.loc 1 387 8 is_stmt 0 view .LVU193
 542 003c A16C     		ldr	r1, [r4, #72]
 387:Drivers/STM32H7xx_HAL_Driver/Src/stm32h7xx_hal_dcmi.c **** 
 543              		.loc 1 387 40 view .LVU194
 544 003e 2A48     		ldr	r0, .L39+4
 545 0040 C864     		str	r0, [r1, #76]
 390:Drivers/STM32H7xx_HAL_Driver/Src/stm32h7xx_hal_dcmi.c **** 
 546              		.loc 1 390 3 is_stmt 1 view .LVU195
 390:Drivers/STM32H7xx_HAL_Driver/Src/stm32h7xx_hal_dcmi.c **** 
 547              		.loc 1 390 8 is_stmt 0 view .LVU196
 548 0042 A06C     		ldr	r0, [r4, #72]
 390:Drivers/STM32H7xx_HAL_Driver/Src/stm32h7xx_hal_dcmi.c **** 
 549              		.loc 1 390 40 view .LVU197
 550 0044 0021     		movs	r1, #0
 551 0046 0165     		str	r1, [r0, #80]
 393:Drivers/STM32H7xx_HAL_Driver/Src/stm32h7xx_hal_dcmi.c ****   hdcmi->XferTransferNumber = 0;
 552              		.loc 1 393 3 is_stmt 1 view .LVU198
 393:Drivers/STM32H7xx_HAL_Driver/Src/stm32h7xx_hal_dcmi.c ****   hdcmi->XferTransferNumber = 0;
 553              		.loc 1 393 20 is_stmt 0 view .LVU199
 554 0048 A163     		str	r1, [r4, #56]
 394:Drivers/STM32H7xx_HAL_Driver/Src/stm32h7xx_hal_dcmi.c ****   hdcmi->XferSize = 0;
 555              		.loc 1 394 3 is_stmt 1 view .LVU200
 394:Drivers/STM32H7xx_HAL_Driver/Src/stm32h7xx_hal_dcmi.c ****   hdcmi->XferSize = 0;
 556              		.loc 1 394 29 is_stmt 0 view .LVU201
 557 004a 2164     		str	r1, [r4, #64]
 395:Drivers/STM32H7xx_HAL_Driver/Src/stm32h7xx_hal_dcmi.c ****   hdcmi->pBuffPtr = 0;
 558              		.loc 1 395 3 is_stmt 1 view .LVU202
 395:Drivers/STM32H7xx_HAL_Driver/Src/stm32h7xx_hal_dcmi.c ****   hdcmi->pBuffPtr = 0;
 559              		.loc 1 395 19 is_stmt 0 view .LVU203
 560 004c E163     		str	r1, [r4, #60]
 396:Drivers/STM32H7xx_HAL_Driver/Src/stm32h7xx_hal_dcmi.c **** 
 561              		.loc 1 396 3 is_stmt 1 view .LVU204
 396:Drivers/STM32H7xx_HAL_Driver/Src/stm32h7xx_hal_dcmi.c **** 
 562              		.loc 1 396 19 is_stmt 0 view .LVU205
 563 004e 6164     		str	r1, [r4, #68]
 398:Drivers/STM32H7xx_HAL_Driver/Src/stm32h7xx_hal_dcmi.c ****   {
 564              		.loc 1 398 3 is_stmt 1 view .LVU206
 398:Drivers/STM32H7xx_HAL_Driver/Src/stm32h7xx_hal_dcmi.c ****   {
 565              		.loc 1 398 6 is_stmt 0 view .LVU207
 566 0050 B3F5803F 		cmp	r3, #65536
 567 0054 07D3     		bcc	.L37
 416:Drivers/STM32H7xx_HAL_Driver/Src/stm32h7xx_hal_dcmi.c **** 
 568              		.loc 1 416 5 is_stmt 1 view .LVU208
 416:Drivers/STM32H7xx_HAL_Driver/Src/stm32h7xx_hal_dcmi.c **** 
 569              		.loc 1 416 10 is_stmt 0 view .LVU209
 570 0056 A16C     		ldr	r1, [r4, #72]
 416:Drivers/STM32H7xx_HAL_Driver/Src/stm32h7xx_hal_dcmi.c **** 
 571              		.loc 1 416 43 view .LVU210
 572 0058 2248     		ldr	r0, .L39
 573 005a 4864     		str	r0, [r1, #68]
 419:Drivers/STM32H7xx_HAL_Driver/Src/stm32h7xx_hal_dcmi.c ****     hdcmi->XferSize = Length;
 574              		.loc 1 419 5 is_stmt 1 view .LVU211
 419:Drivers/STM32H7xx_HAL_Driver/Src/stm32h7xx_hal_dcmi.c ****     hdcmi->XferSize = Length;
 575              		.loc 1 419 22 is_stmt 0 view .LVU212
ARM GAS  /tmp/ccYwYWEs.s 			page 35


 576 005c 0121     		movs	r1, #1
 577 005e A163     		str	r1, [r4, #56]
 420:Drivers/STM32H7xx_HAL_Driver/Src/stm32h7xx_hal_dcmi.c ****     hdcmi->pBuffPtr = pData;
 578              		.loc 1 420 5 is_stmt 1 view .LVU213
 420:Drivers/STM32H7xx_HAL_Driver/Src/stm32h7xx_hal_dcmi.c ****     hdcmi->pBuffPtr = pData;
 579              		.loc 1 420 21 is_stmt 0 view .LVU214
 580 0060 E363     		str	r3, [r4, #60]
 421:Drivers/STM32H7xx_HAL_Driver/Src/stm32h7xx_hal_dcmi.c **** 
 581              		.loc 1 421 5 is_stmt 1 view .LVU215
 421:Drivers/STM32H7xx_HAL_Driver/Src/stm32h7xx_hal_dcmi.c **** 
 582              		.loc 1 421 21 is_stmt 0 view .LVU216
 583 0062 6264     		str	r2, [r4, #68]
 424:Drivers/STM32H7xx_HAL_Driver/Src/stm32h7xx_hal_dcmi.c ****     {
 584              		.loc 1 424 5 is_stmt 1 view .LVU217
 424:Drivers/STM32H7xx_HAL_Driver/Src/stm32h7xx_hal_dcmi.c ****     {
 585              		.loc 1 424 11 is_stmt 0 view .LVU218
 586 0064 14E0     		b	.L33
 587              	.L37:
 401:Drivers/STM32H7xx_HAL_Driver/Src/stm32h7xx_hal_dcmi.c ****     {
 588              		.loc 1 401 5 is_stmt 1 view .LVU219
 401:Drivers/STM32H7xx_HAL_Driver/Src/stm32h7xx_hal_dcmi.c ****     {
 589              		.loc 1 401 61 is_stmt 0 view .LVU220
 590 0066 2168     		ldr	r1, [r4]
 401:Drivers/STM32H7xx_HAL_Driver/Src/stm32h7xx_hal_dcmi.c ****     {
 591              		.loc 1 401 9 view .LVU221
 592 0068 2831     		adds	r1, r1, #40
 593 006a A06C     		ldr	r0, [r4, #72]
 594 006c FFF7FEFF 		bl	HAL_DMA_Start_IT
 595              	.LVL29:
 401:Drivers/STM32H7xx_HAL_Driver/Src/stm32h7xx_hal_dcmi.c ****     {
 596              		.loc 1 401 8 discriminator 1 view .LVU222
 597 0070 10B3     		cbz	r0, .L32
 404:Drivers/STM32H7xx_HAL_Driver/Src/stm32h7xx_hal_dcmi.c ****       /* Change DCMI state */
 598              		.loc 1 404 7 is_stmt 1 view .LVU223
 404:Drivers/STM32H7xx_HAL_Driver/Src/stm32h7xx_hal_dcmi.c ****       /* Change DCMI state */
 599              		.loc 1 404 24 is_stmt 0 view .LVU224
 600 0072 4023     		movs	r3, #64
 601 0074 E364     		str	r3, [r4, #76]
 406:Drivers/STM32H7xx_HAL_Driver/Src/stm32h7xx_hal_dcmi.c ****       /* Release Lock */
 602              		.loc 1 406 7 is_stmt 1 view .LVU225
 406:Drivers/STM32H7xx_HAL_Driver/Src/stm32h7xx_hal_dcmi.c ****       /* Release Lock */
 603              		.loc 1 406 20 is_stmt 0 view .LVU226
 604 0076 0120     		movs	r0, #1
 605 0078 84F83500 		strb	r0, [r4, #53]
 408:Drivers/STM32H7xx_HAL_Driver/Src/stm32h7xx_hal_dcmi.c ****       /* Return function status */
 606              		.loc 1 408 7 is_stmt 1 view .LVU227
 408:Drivers/STM32H7xx_HAL_Driver/Src/stm32h7xx_hal_dcmi.c ****       /* Return function status */
 607              		.loc 1 408 7 view .LVU228
 608 007c 0023     		movs	r3, #0
 609 007e 84F83430 		strb	r3, [r4, #52]
 408:Drivers/STM32H7xx_HAL_Driver/Src/stm32h7xx_hal_dcmi.c ****       /* Return function status */
 610              		.loc 1 408 7 view .LVU229
 410:Drivers/STM32H7xx_HAL_Driver/Src/stm32h7xx_hal_dcmi.c ****     }
 611              		.loc 1 410 7 view .LVU230
 410:Drivers/STM32H7xx_HAL_Driver/Src/stm32h7xx_hal_dcmi.c ****     }
 612              		.loc 1 410 14 is_stmt 0 view .LVU231
 613 0082 21E0     		b	.L30
ARM GAS  /tmp/ccYwYWEs.s 			page 36


 614              	.LVL30:
 615              	.L34:
 426:Drivers/STM32H7xx_HAL_Driver/Src/stm32h7xx_hal_dcmi.c ****       hdcmi->XferCount = hdcmi->XferCount * 2U;
 616              		.loc 1 426 7 is_stmt 1 view .LVU232
 426:Drivers/STM32H7xx_HAL_Driver/Src/stm32h7xx_hal_dcmi.c ****       hdcmi->XferCount = hdcmi->XferCount * 2U;
 617              		.loc 1 426 31 is_stmt 0 view .LVU233
 618 0084 E36B     		ldr	r3, [r4, #60]
 426:Drivers/STM32H7xx_HAL_Driver/Src/stm32h7xx_hal_dcmi.c ****       hdcmi->XferCount = hdcmi->XferCount * 2U;
 619              		.loc 1 426 42 view .LVU234
 620 0086 5B08     		lsrs	r3, r3, #1
 426:Drivers/STM32H7xx_HAL_Driver/Src/stm32h7xx_hal_dcmi.c ****       hdcmi->XferCount = hdcmi->XferCount * 2U;
 621              		.loc 1 426 23 view .LVU235
 622 0088 E363     		str	r3, [r4, #60]
 427:Drivers/STM32H7xx_HAL_Driver/Src/stm32h7xx_hal_dcmi.c ****     }
 623              		.loc 1 427 7 is_stmt 1 view .LVU236
 427:Drivers/STM32H7xx_HAL_Driver/Src/stm32h7xx_hal_dcmi.c ****     }
 624              		.loc 1 427 31 is_stmt 0 view .LVU237
 625 008a A36B     		ldr	r3, [r4, #56]
 427:Drivers/STM32H7xx_HAL_Driver/Src/stm32h7xx_hal_dcmi.c ****     }
 626              		.loc 1 427 43 view .LVU238
 627 008c 5B00     		lsls	r3, r3, #1
 427:Drivers/STM32H7xx_HAL_Driver/Src/stm32h7xx_hal_dcmi.c ****     }
 628              		.loc 1 427 24 view .LVU239
 629 008e A363     		str	r3, [r4, #56]
 630              	.L33:
 424:Drivers/STM32H7xx_HAL_Driver/Src/stm32h7xx_hal_dcmi.c ****     {
 631              		.loc 1 424 28 is_stmt 1 view .LVU240
 424:Drivers/STM32H7xx_HAL_Driver/Src/stm32h7xx_hal_dcmi.c ****     {
 632              		.loc 1 424 17 is_stmt 0 view .LVU241
 633 0090 E36B     		ldr	r3, [r4, #60]
 424:Drivers/STM32H7xx_HAL_Driver/Src/stm32h7xx_hal_dcmi.c ****     {
 634              		.loc 1 424 28 view .LVU242
 635 0092 B3F5803F 		cmp	r3, #65536
 636 0096 F5D2     		bcs	.L34
 431:Drivers/STM32H7xx_HAL_Driver/Src/stm32h7xx_hal_dcmi.c ****     hdcmi->XferTransferNumber = hdcmi->XferCount;
 637              		.loc 1 431 5 is_stmt 1 view .LVU243
 431:Drivers/STM32H7xx_HAL_Driver/Src/stm32h7xx_hal_dcmi.c ****     hdcmi->XferTransferNumber = hdcmi->XferCount;
 638              		.loc 1 431 30 is_stmt 0 view .LVU244
 639 0098 A36B     		ldr	r3, [r4, #56]
 431:Drivers/STM32H7xx_HAL_Driver/Src/stm32h7xx_hal_dcmi.c ****     hdcmi->XferTransferNumber = hdcmi->XferCount;
 640              		.loc 1 431 42 view .LVU245
 641 009a 023B     		subs	r3, r3, #2
 431:Drivers/STM32H7xx_HAL_Driver/Src/stm32h7xx_hal_dcmi.c ****     hdcmi->XferTransferNumber = hdcmi->XferCount;
 642              		.loc 1 431 22 view .LVU246
 643 009c A363     		str	r3, [r4, #56]
 432:Drivers/STM32H7xx_HAL_Driver/Src/stm32h7xx_hal_dcmi.c **** 
 644              		.loc 1 432 5 is_stmt 1 view .LVU247
 432:Drivers/STM32H7xx_HAL_Driver/Src/stm32h7xx_hal_dcmi.c **** 
 645              		.loc 1 432 38 is_stmt 0 view .LVU248
 646 009e A36B     		ldr	r3, [r4, #56]
 432:Drivers/STM32H7xx_HAL_Driver/Src/stm32h7xx_hal_dcmi.c **** 
 647              		.loc 1 432 31 view .LVU249
 648 00a0 2364     		str	r3, [r4, #64]
 435:Drivers/STM32H7xx_HAL_Driver/Src/stm32h7xx_hal_dcmi.c **** 
 649              		.loc 1 435 5 is_stmt 1 view .LVU250
 435:Drivers/STM32H7xx_HAL_Driver/Src/stm32h7xx_hal_dcmi.c **** 
 650              		.loc 1 435 54 is_stmt 0 view .LVU251
ARM GAS  /tmp/ccYwYWEs.s 			page 37


 651 00a2 E36B     		ldr	r3, [r4, #60]
 652              	.LVL31:
 438:Drivers/STM32H7xx_HAL_Driver/Src/stm32h7xx_hal_dcmi.c ****     {
 653              		.loc 1 438 5 is_stmt 1 view .LVU252
 438:Drivers/STM32H7xx_HAL_Driver/Src/stm32h7xx_hal_dcmi.c ****     {
 654              		.loc 1 438 74 is_stmt 0 view .LVU253
 655 00a4 2168     		ldr	r1, [r4]
 438:Drivers/STM32H7xx_HAL_Driver/Src/stm32h7xx_hal_dcmi.c ****     {
 656              		.loc 1 438 130 view .LVU254
 657 00a6 E06B     		ldr	r0, [r4, #60]
 438:Drivers/STM32H7xx_HAL_Driver/Src/stm32h7xx_hal_dcmi.c ****     {
 658              		.loc 1 438 9 view .LVU255
 659 00a8 0090     		str	r0, [sp]
 660 00aa 02EB8303 		add	r3, r2, r3, lsl #2
 661              	.LVL32:
 438:Drivers/STM32H7xx_HAL_Driver/Src/stm32h7xx_hal_dcmi.c ****     {
 662              		.loc 1 438 9 view .LVU256
 663 00ae 2831     		adds	r1, r1, #40
 664 00b0 A06C     		ldr	r0, [r4, #72]
 665 00b2 FFF7FEFF 		bl	HAL_DMAEx_MultiBufferStart_IT
 666              	.LVL33:
 438:Drivers/STM32H7xx_HAL_Driver/Src/stm32h7xx_hal_dcmi.c ****     {
 667              		.loc 1 438 8 discriminator 1 view .LVU257
 668 00b6 48B9     		cbnz	r0, .L38
 669              	.LVL34:
 670              	.L32:
 452:Drivers/STM32H7xx_HAL_Driver/Src/stm32h7xx_hal_dcmi.c **** 
 671              		.loc 1 452 3 is_stmt 1 view .LVU258
 452:Drivers/STM32H7xx_HAL_Driver/Src/stm32h7xx_hal_dcmi.c **** 
 672              		.loc 1 452 8 is_stmt 0 view .LVU259
 673 00b8 2268     		ldr	r2, [r4]
 452:Drivers/STM32H7xx_HAL_Driver/Src/stm32h7xx_hal_dcmi.c **** 
 674              		.loc 1 452 18 view .LVU260
 675 00ba 1368     		ldr	r3, [r2]
 452:Drivers/STM32H7xx_HAL_Driver/Src/stm32h7xx_hal_dcmi.c **** 
 676              		.loc 1 452 23 view .LVU261
 677 00bc 43F00103 		orr	r3, r3, #1
 678 00c0 1360     		str	r3, [r2]
 455:Drivers/STM32H7xx_HAL_Driver/Src/stm32h7xx_hal_dcmi.c **** 
 679              		.loc 1 455 3 is_stmt 1 view .LVU262
 455:Drivers/STM32H7xx_HAL_Driver/Src/stm32h7xx_hal_dcmi.c **** 
 680              		.loc 1 455 3 view .LVU263
 681 00c2 0020     		movs	r0, #0
 682 00c4 84F83400 		strb	r0, [r4, #52]
 455:Drivers/STM32H7xx_HAL_Driver/Src/stm32h7xx_hal_dcmi.c **** 
 683              		.loc 1 455 3 view .LVU264
 458:Drivers/STM32H7xx_HAL_Driver/Src/stm32h7xx_hal_dcmi.c **** }
 684              		.loc 1 458 3 view .LVU265
 685              	.L30:
 459:Drivers/STM32H7xx_HAL_Driver/Src/stm32h7xx_hal_dcmi.c **** 
 686              		.loc 1 459 1 is_stmt 0 view .LVU266
 687 00c8 03B0     		add	sp, sp, #12
 688              	.LCFI6:
 689              		.cfi_remember_state
 690              		.cfi_def_cfa_offset 12
 691              		@ sp needed
 692 00ca 30BD     		pop	{r4, r5, pc}
ARM GAS  /tmp/ccYwYWEs.s 			page 38


 693              	.LVL35:
 694              	.L38:
 695              	.LCFI7:
 696              		.cfi_restore_state
 441:Drivers/STM32H7xx_HAL_Driver/Src/stm32h7xx_hal_dcmi.c ****       /* Change DCMI state */
 697              		.loc 1 441 7 is_stmt 1 view .LVU267
 441:Drivers/STM32H7xx_HAL_Driver/Src/stm32h7xx_hal_dcmi.c ****       /* Change DCMI state */
 698              		.loc 1 441 24 is_stmt 0 view .LVU268
 699 00cc 4023     		movs	r3, #64
 700 00ce E364     		str	r3, [r4, #76]
 443:Drivers/STM32H7xx_HAL_Driver/Src/stm32h7xx_hal_dcmi.c ****       /* Release Lock */
 701              		.loc 1 443 7 is_stmt 1 view .LVU269
 443:Drivers/STM32H7xx_HAL_Driver/Src/stm32h7xx_hal_dcmi.c ****       /* Release Lock */
 702              		.loc 1 443 20 is_stmt 0 view .LVU270
 703 00d0 0120     		movs	r0, #1
 704 00d2 84F83500 		strb	r0, [r4, #53]
 445:Drivers/STM32H7xx_HAL_Driver/Src/stm32h7xx_hal_dcmi.c ****       /* Return function status */
 705              		.loc 1 445 7 is_stmt 1 view .LVU271
 445:Drivers/STM32H7xx_HAL_Driver/Src/stm32h7xx_hal_dcmi.c ****       /* Return function status */
 706              		.loc 1 445 7 view .LVU272
 707 00d6 0023     		movs	r3, #0
 708 00d8 84F83430 		strb	r3, [r4, #52]
 445:Drivers/STM32H7xx_HAL_Driver/Src/stm32h7xx_hal_dcmi.c ****       /* Return function status */
 709              		.loc 1 445 7 view .LVU273
 447:Drivers/STM32H7xx_HAL_Driver/Src/stm32h7xx_hal_dcmi.c ****     }
 710              		.loc 1 447 7 view .LVU274
 447:Drivers/STM32H7xx_HAL_Driver/Src/stm32h7xx_hal_dcmi.c ****     }
 711              		.loc 1 447 14 is_stmt 0 view .LVU275
 712 00dc F4E7     		b	.L30
 713              	.LVL36:
 714              	.L35:
 371:Drivers/STM32H7xx_HAL_Driver/Src/stm32h7xx_hal_dcmi.c **** 
 715              		.loc 1 371 3 discriminator 1 view .LVU276
 716 00de 0220     		movs	r0, #2
 717 00e0 F2E7     		b	.L30
 718              	.L40:
 719 00e2 00BF     		.align	2
 720              	.L39:
 721 00e4 00000000 		.word	DCMI_DMAXferCplt
 722 00e8 00000000 		.word	DCMI_DMAError
 723              		.cfi_endproc
 724              	.LFE341:
 726              		.section	.text.HAL_DCMI_Stop,"ax",%progbits
 727              		.align	1
 728              		.global	HAL_DCMI_Stop
 729              		.syntax unified
 730              		.thumb
 731              		.thumb_func
 733              	HAL_DCMI_Stop:
 734              	.LVL37:
 735              	.LFB342:
 468:Drivers/STM32H7xx_HAL_Driver/Src/stm32h7xx_hal_dcmi.c ****   uint32_t count = HAL_TIMEOUT_DCMI_STOP * (SystemCoreClock / 8U / 1000U);
 736              		.loc 1 468 1 is_stmt 1 view -0
 737              		.cfi_startproc
 738              		@ args = 0, pretend = 0, frame = 0
 739              		@ frame_needed = 0, uses_anonymous_args = 0
 468:Drivers/STM32H7xx_HAL_Driver/Src/stm32h7xx_hal_dcmi.c ****   uint32_t count = HAL_TIMEOUT_DCMI_STOP * (SystemCoreClock / 8U / 1000U);
ARM GAS  /tmp/ccYwYWEs.s 			page 39


 740              		.loc 1 468 1 is_stmt 0 view .LVU278
 741 0000 38B5     		push	{r3, r4, r5, lr}
 742              	.LCFI8:
 743              		.cfi_def_cfa_offset 16
 744              		.cfi_offset 3, -16
 745              		.cfi_offset 4, -12
 746              		.cfi_offset 5, -8
 747              		.cfi_offset 14, -4
 469:Drivers/STM32H7xx_HAL_Driver/Src/stm32h7xx_hal_dcmi.c ****   HAL_StatusTypeDef status = HAL_OK;
 748              		.loc 1 469 3 is_stmt 1 view .LVU279
 469:Drivers/STM32H7xx_HAL_Driver/Src/stm32h7xx_hal_dcmi.c ****   HAL_StatusTypeDef status = HAL_OK;
 749              		.loc 1 469 66 is_stmt 0 view .LVU280
 750 0002 1E4B     		ldr	r3, .L49
 751 0004 1B68     		ldr	r3, [r3]
 752 0006 1E4A     		ldr	r2, .L49+4
 753 0008 A2FB0323 		umull	r2, r3, r2, r3
 754 000c 5B0A     		lsrs	r3, r3, #9
 469:Drivers/STM32H7xx_HAL_Driver/Src/stm32h7xx_hal_dcmi.c ****   HAL_StatusTypeDef status = HAL_OK;
 755              		.loc 1 469 12 view .LVU281
 756 000e 4FF47A72 		mov	r2, #1000
 757 0012 02FB03F3 		mul	r3, r2, r3
 758              	.LVL38:
 470:Drivers/STM32H7xx_HAL_Driver/Src/stm32h7xx_hal_dcmi.c **** 
 759              		.loc 1 470 3 is_stmt 1 view .LVU282
 473:Drivers/STM32H7xx_HAL_Driver/Src/stm32h7xx_hal_dcmi.c **** 
 760              		.loc 1 473 3 view .LVU283
 473:Drivers/STM32H7xx_HAL_Driver/Src/stm32h7xx_hal_dcmi.c **** 
 761              		.loc 1 473 3 view .LVU284
 762 0016 90F83420 		ldrb	r2, [r0, #52]	@ zero_extendqisi2
 763 001a 012A     		cmp	r2, #1
 764 001c 2BD0     		beq	.L46
 765 001e 0446     		mov	r4, r0
 473:Drivers/STM32H7xx_HAL_Driver/Src/stm32h7xx_hal_dcmi.c **** 
 766              		.loc 1 473 3 discriminator 2 view .LVU285
 767 0020 0122     		movs	r2, #1
 768 0022 80F83420 		strb	r2, [r0, #52]
 473:Drivers/STM32H7xx_HAL_Driver/Src/stm32h7xx_hal_dcmi.c **** 
 769              		.loc 1 473 3 view .LVU286
 476:Drivers/STM32H7xx_HAL_Driver/Src/stm32h7xx_hal_dcmi.c **** 
 770              		.loc 1 476 3 view .LVU287
 476:Drivers/STM32H7xx_HAL_Driver/Src/stm32h7xx_hal_dcmi.c **** 
 771              		.loc 1 476 16 is_stmt 0 view .LVU288
 772 0026 0222     		movs	r2, #2
 773 0028 80F83520 		strb	r2, [r0, #53]
 479:Drivers/STM32H7xx_HAL_Driver/Src/stm32h7xx_hal_dcmi.c **** 
 774              		.loc 1 479 3 is_stmt 1 view .LVU289
 479:Drivers/STM32H7xx_HAL_Driver/Src/stm32h7xx_hal_dcmi.c **** 
 775              		.loc 1 479 8 is_stmt 0 view .LVU290
 776 002c 0168     		ldr	r1, [r0]
 479:Drivers/STM32H7xx_HAL_Driver/Src/stm32h7xx_hal_dcmi.c **** 
 777              		.loc 1 479 18 view .LVU291
 778 002e 0A68     		ldr	r2, [r1]
 479:Drivers/STM32H7xx_HAL_Driver/Src/stm32h7xx_hal_dcmi.c **** 
 779              		.loc 1 479 23 view .LVU292
 780 0030 22F00102 		bic	r2, r2, #1
 781 0034 0A60     		str	r2, [r1]
 782              	.L45:
ARM GAS  /tmp/ccYwYWEs.s 			page 40


 482:Drivers/STM32H7xx_HAL_Driver/Src/stm32h7xx_hal_dcmi.c ****   {
 783              		.loc 1 482 3 is_stmt 1 view .LVU293
 484:Drivers/STM32H7xx_HAL_Driver/Src/stm32h7xx_hal_dcmi.c ****     if (count == 0U)
 784              		.loc 1 484 5 view .LVU294
 785              	.LVL39:
 485:Drivers/STM32H7xx_HAL_Driver/Src/stm32h7xx_hal_dcmi.c ****     {
 786              		.loc 1 485 5 view .LVU295
 485:Drivers/STM32H7xx_HAL_Driver/Src/stm32h7xx_hal_dcmi.c ****     {
 787              		.loc 1 485 8 is_stmt 0 view .LVU296
 788 0036 013B     		subs	r3, r3, #1
 789              	.LVL40:
 485:Drivers/STM32H7xx_HAL_Driver/Src/stm32h7xx_hal_dcmi.c ****     {
 790              		.loc 1 485 8 view .LVU297
 791 0038 06D0     		beq	.L48
 494:Drivers/STM32H7xx_HAL_Driver/Src/stm32h7xx_hal_dcmi.c **** 
 792              		.loc 1 494 50 is_stmt 1 view .LVU298
 494:Drivers/STM32H7xx_HAL_Driver/Src/stm32h7xx_hal_dcmi.c **** 
 793              		.loc 1 494 16 is_stmt 0 view .LVU299
 794 003a 2268     		ldr	r2, [r4]
 494:Drivers/STM32H7xx_HAL_Driver/Src/stm32h7xx_hal_dcmi.c **** 
 795              		.loc 1 494 26 view .LVU300
 796 003c 1268     		ldr	r2, [r2]
 494:Drivers/STM32H7xx_HAL_Driver/Src/stm32h7xx_hal_dcmi.c **** 
 797              		.loc 1 494 50 view .LVU301
 798 003e 12F0010F 		tst	r2, #1
 799 0042 F8D1     		bne	.L45
 470:Drivers/STM32H7xx_HAL_Driver/Src/stm32h7xx_hal_dcmi.c **** 
 800              		.loc 1 470 21 view .LVU302
 801 0044 0025     		movs	r5, #0
 802 0046 04E0     		b	.L44
 803              	.L48:
 488:Drivers/STM32H7xx_HAL_Driver/Src/stm32h7xx_hal_dcmi.c **** 
 804              		.loc 1 488 7 is_stmt 1 view .LVU303
 488:Drivers/STM32H7xx_HAL_Driver/Src/stm32h7xx_hal_dcmi.c **** 
 805              		.loc 1 488 12 is_stmt 0 view .LVU304
 806 0048 E36C     		ldr	r3, [r4, #76]
 807              	.LVL41:
 488:Drivers/STM32H7xx_HAL_Driver/Src/stm32h7xx_hal_dcmi.c **** 
 808              		.loc 1 488 24 view .LVU305
 809 004a 43F02003 		orr	r3, r3, #32
 810 004e E364     		str	r3, [r4, #76]
 490:Drivers/STM32H7xx_HAL_Driver/Src/stm32h7xx_hal_dcmi.c ****       break;
 811              		.loc 1 490 7 is_stmt 1 view .LVU306
 812              	.LVL42:
 491:Drivers/STM32H7xx_HAL_Driver/Src/stm32h7xx_hal_dcmi.c ****     }
 813              		.loc 1 491 7 view .LVU307
 490:Drivers/STM32H7xx_HAL_Driver/Src/stm32h7xx_hal_dcmi.c ****       break;
 814              		.loc 1 490 14 is_stmt 0 view .LVU308
 815 0050 0325     		movs	r5, #3
 816              	.LVL43:
 817              	.L44:
 497:Drivers/STM32H7xx_HAL_Driver/Src/stm32h7xx_hal_dcmi.c **** 
 818              		.loc 1 497 3 is_stmt 1 view .LVU309
 819 0052 2268     		ldr	r2, [r4]
 820 0054 1368     		ldr	r3, [r2]
 821 0056 23F48043 		bic	r3, r3, #16384
 822 005a 1360     		str	r3, [r2]
ARM GAS  /tmp/ccYwYWEs.s 			page 41


 500:Drivers/STM32H7xx_HAL_Driver/Src/stm32h7xx_hal_dcmi.c **** 
 823              		.loc 1 500 3 view .LVU310
 500:Drivers/STM32H7xx_HAL_Driver/Src/stm32h7xx_hal_dcmi.c **** 
 824              		.loc 1 500 9 is_stmt 0 view .LVU311
 825 005c A06C     		ldr	r0, [r4, #72]
 826              	.LVL44:
 500:Drivers/STM32H7xx_HAL_Driver/Src/stm32h7xx_hal_dcmi.c **** 
 827              		.loc 1 500 9 view .LVU312
 828 005e FFF7FEFF 		bl	HAL_DMA_Abort
 829              	.LVL45:
 503:Drivers/STM32H7xx_HAL_Driver/Src/stm32h7xx_hal_dcmi.c **** 
 830              		.loc 1 503 3 is_stmt 1 view .LVU313
 503:Drivers/STM32H7xx_HAL_Driver/Src/stm32h7xx_hal_dcmi.c **** 
 831              		.loc 1 503 8 is_stmt 0 view .LVU314
 832 0062 E36C     		ldr	r3, [r4, #76]
 503:Drivers/STM32H7xx_HAL_Driver/Src/stm32h7xx_hal_dcmi.c **** 
 833              		.loc 1 503 20 view .LVU315
 834 0064 E364     		str	r3, [r4, #76]
 506:Drivers/STM32H7xx_HAL_Driver/Src/stm32h7xx_hal_dcmi.c **** 
 835              		.loc 1 506 3 is_stmt 1 view .LVU316
 506:Drivers/STM32H7xx_HAL_Driver/Src/stm32h7xx_hal_dcmi.c **** 
 836              		.loc 1 506 16 is_stmt 0 view .LVU317
 837 0066 0123     		movs	r3, #1
 838 0068 84F83530 		strb	r3, [r4, #53]
 509:Drivers/STM32H7xx_HAL_Driver/Src/stm32h7xx_hal_dcmi.c **** 
 839              		.loc 1 509 3 is_stmt 1 view .LVU318
 509:Drivers/STM32H7xx_HAL_Driver/Src/stm32h7xx_hal_dcmi.c **** 
 840              		.loc 1 509 3 view .LVU319
 841 006c 0023     		movs	r3, #0
 842 006e 84F83430 		strb	r3, [r4, #52]
 509:Drivers/STM32H7xx_HAL_Driver/Src/stm32h7xx_hal_dcmi.c **** 
 843              		.loc 1 509 3 view .LVU320
 512:Drivers/STM32H7xx_HAL_Driver/Src/stm32h7xx_hal_dcmi.c **** }
 844              		.loc 1 512 3 view .LVU321
 845              	.LVL46:
 846              	.L42:
 513:Drivers/STM32H7xx_HAL_Driver/Src/stm32h7xx_hal_dcmi.c **** 
 847              		.loc 1 513 1 is_stmt 0 view .LVU322
 848 0072 2846     		mov	r0, r5
 849 0074 38BD     		pop	{r3, r4, r5, pc}
 850              	.LVL47:
 851              	.L46:
 473:Drivers/STM32H7xx_HAL_Driver/Src/stm32h7xx_hal_dcmi.c **** 
 852              		.loc 1 473 3 discriminator 1 view .LVU323
 853 0076 0225     		movs	r5, #2
 854 0078 FBE7     		b	.L42
 855              	.L50:
 856 007a 00BF     		.align	2
 857              	.L49:
 858 007c 00000000 		.word	SystemCoreClock
 859 0080 D34D6210 		.word	274877907
 860              		.cfi_endproc
 861              	.LFE342:
 863              		.section	.text.HAL_DCMI_Suspend,"ax",%progbits
 864              		.align	1
 865              		.global	HAL_DCMI_Suspend
 866              		.syntax unified
ARM GAS  /tmp/ccYwYWEs.s 			page 42


 867              		.thumb
 868              		.thumb_func
 870              	HAL_DCMI_Suspend:
 871              	.LVL48:
 872              	.LFB343:
 522:Drivers/STM32H7xx_HAL_Driver/Src/stm32h7xx_hal_dcmi.c ****   uint32_t count = HAL_TIMEOUT_DCMI_STOP * (SystemCoreClock / 8U / 1000U);
 873              		.loc 1 522 1 is_stmt 1 view -0
 874              		.cfi_startproc
 875              		@ args = 0, pretend = 0, frame = 0
 876              		@ frame_needed = 0, uses_anonymous_args = 0
 877              		@ link register save eliminated.
 522:Drivers/STM32H7xx_HAL_Driver/Src/stm32h7xx_hal_dcmi.c ****   uint32_t count = HAL_TIMEOUT_DCMI_STOP * (SystemCoreClock / 8U / 1000U);
 878              		.loc 1 522 1 is_stmt 0 view .LVU325
 879 0000 0246     		mov	r2, r0
 523:Drivers/STM32H7xx_HAL_Driver/Src/stm32h7xx_hal_dcmi.c ****   HAL_StatusTypeDef status = HAL_OK;
 880              		.loc 1 523 3 is_stmt 1 view .LVU326
 523:Drivers/STM32H7xx_HAL_Driver/Src/stm32h7xx_hal_dcmi.c ****   HAL_StatusTypeDef status = HAL_OK;
 881              		.loc 1 523 66 is_stmt 0 view .LVU327
 882 0002 1B4B     		ldr	r3, .L60
 883 0004 1B68     		ldr	r3, [r3]
 884 0006 1B49     		ldr	r1, .L60+4
 885 0008 A1FB0313 		umull	r1, r3, r1, r3
 886 000c 5B0A     		lsrs	r3, r3, #9
 523:Drivers/STM32H7xx_HAL_Driver/Src/stm32h7xx_hal_dcmi.c ****   HAL_StatusTypeDef status = HAL_OK;
 887              		.loc 1 523 12 view .LVU328
 888 000e 4FF47A71 		mov	r1, #1000
 889 0012 01FB03F3 		mul	r3, r1, r3
 890              	.LVL49:
 524:Drivers/STM32H7xx_HAL_Driver/Src/stm32h7xx_hal_dcmi.c **** 
 891              		.loc 1 524 3 is_stmt 1 view .LVU329
 527:Drivers/STM32H7xx_HAL_Driver/Src/stm32h7xx_hal_dcmi.c **** 
 892              		.loc 1 527 3 view .LVU330
 527:Drivers/STM32H7xx_HAL_Driver/Src/stm32h7xx_hal_dcmi.c **** 
 893              		.loc 1 527 3 view .LVU331
 894 0016 90F83410 		ldrb	r1, [r0, #52]	@ zero_extendqisi2
 895 001a 0129     		cmp	r1, #1
 896 001c 25D0     		beq	.L56
 527:Drivers/STM32H7xx_HAL_Driver/Src/stm32h7xx_hal_dcmi.c **** 
 897              		.loc 1 527 3 discriminator 2 view .LVU332
 898 001e 0121     		movs	r1, #1
 899 0020 80F83410 		strb	r1, [r0, #52]
 527:Drivers/STM32H7xx_HAL_Driver/Src/stm32h7xx_hal_dcmi.c **** 
 900              		.loc 1 527 3 view .LVU333
 529:Drivers/STM32H7xx_HAL_Driver/Src/stm32h7xx_hal_dcmi.c ****   {
 901              		.loc 1 529 3 view .LVU334
 529:Drivers/STM32H7xx_HAL_Driver/Src/stm32h7xx_hal_dcmi.c ****   {
 902              		.loc 1 529 12 is_stmt 0 view .LVU335
 903 0024 90F83510 		ldrb	r1, [r0, #53]	@ zero_extendqisi2
 529:Drivers/STM32H7xx_HAL_Driver/Src/stm32h7xx_hal_dcmi.c ****   {
 904              		.loc 1 529 6 view .LVU336
 905 0028 0229     		cmp	r1, #2
 906 002a 04D0     		beq	.L58
 524:Drivers/STM32H7xx_HAL_Driver/Src/stm32h7xx_hal_dcmi.c **** 
 907              		.loc 1 524 21 view .LVU337
 908 002c 0020     		movs	r0, #0
 909              	.LVL50:
 910              	.L53:
ARM GAS  /tmp/ccYwYWEs.s 			page 43


 556:Drivers/STM32H7xx_HAL_Driver/Src/stm32h7xx_hal_dcmi.c **** 
 911              		.loc 1 556 3 is_stmt 1 view .LVU338
 556:Drivers/STM32H7xx_HAL_Driver/Src/stm32h7xx_hal_dcmi.c **** 
 912              		.loc 1 556 3 view .LVU339
 913 002e 0023     		movs	r3, #0
 914 0030 82F83430 		strb	r3, [r2, #52]
 556:Drivers/STM32H7xx_HAL_Driver/Src/stm32h7xx_hal_dcmi.c **** 
 915              		.loc 1 556 3 view .LVU340
 559:Drivers/STM32H7xx_HAL_Driver/Src/stm32h7xx_hal_dcmi.c **** }
 916              		.loc 1 559 3 view .LVU341
 559:Drivers/STM32H7xx_HAL_Driver/Src/stm32h7xx_hal_dcmi.c **** }
 917              		.loc 1 559 10 is_stmt 0 view .LVU342
 918 0034 7047     		bx	lr
 919              	.LVL51:
 920              	.L58:
 532:Drivers/STM32H7xx_HAL_Driver/Src/stm32h7xx_hal_dcmi.c **** 
 921              		.loc 1 532 5 is_stmt 1 view .LVU343
 532:Drivers/STM32H7xx_HAL_Driver/Src/stm32h7xx_hal_dcmi.c **** 
 922              		.loc 1 532 18 is_stmt 0 view .LVU344
 923 0036 0521     		movs	r1, #5
 924 0038 80F83510 		strb	r1, [r0, #53]
 535:Drivers/STM32H7xx_HAL_Driver/Src/stm32h7xx_hal_dcmi.c **** 
 925              		.loc 1 535 5 is_stmt 1 view .LVU345
 535:Drivers/STM32H7xx_HAL_Driver/Src/stm32h7xx_hal_dcmi.c **** 
 926              		.loc 1 535 10 is_stmt 0 view .LVU346
 927 003c 0068     		ldr	r0, [r0]
 928              	.LVL52:
 535:Drivers/STM32H7xx_HAL_Driver/Src/stm32h7xx_hal_dcmi.c **** 
 929              		.loc 1 535 20 view .LVU347
 930 003e 0168     		ldr	r1, [r0]
 535:Drivers/STM32H7xx_HAL_Driver/Src/stm32h7xx_hal_dcmi.c **** 
 931              		.loc 1 535 25 view .LVU348
 932 0040 21F00101 		bic	r1, r1, #1
 933 0044 0160     		str	r1, [r0]
 934              	.L55:
 538:Drivers/STM32H7xx_HAL_Driver/Src/stm32h7xx_hal_dcmi.c ****     {
 935              		.loc 1 538 5 is_stmt 1 view .LVU349
 540:Drivers/STM32H7xx_HAL_Driver/Src/stm32h7xx_hal_dcmi.c ****       if (count == 0U)
 936              		.loc 1 540 7 view .LVU350
 937              	.LVL53:
 541:Drivers/STM32H7xx_HAL_Driver/Src/stm32h7xx_hal_dcmi.c ****       {
 938              		.loc 1 541 7 view .LVU351
 541:Drivers/STM32H7xx_HAL_Driver/Src/stm32h7xx_hal_dcmi.c ****       {
 939              		.loc 1 541 10 is_stmt 0 view .LVU352
 940 0046 013B     		subs	r3, r3, #1
 941              	.LVL54:
 541:Drivers/STM32H7xx_HAL_Driver/Src/stm32h7xx_hal_dcmi.c ****       {
 942              		.loc 1 541 10 view .LVU353
 943 0048 06D0     		beq	.L59
 553:Drivers/STM32H7xx_HAL_Driver/Src/stm32h7xx_hal_dcmi.c ****   }
 944              		.loc 1 553 52 is_stmt 1 view .LVU354
 553:Drivers/STM32H7xx_HAL_Driver/Src/stm32h7xx_hal_dcmi.c ****   }
 945              		.loc 1 553 18 is_stmt 0 view .LVU355
 946 004a 1168     		ldr	r1, [r2]
 553:Drivers/STM32H7xx_HAL_Driver/Src/stm32h7xx_hal_dcmi.c ****   }
 947              		.loc 1 553 28 view .LVU356
 948 004c 0968     		ldr	r1, [r1]
ARM GAS  /tmp/ccYwYWEs.s 			page 44


 553:Drivers/STM32H7xx_HAL_Driver/Src/stm32h7xx_hal_dcmi.c ****   }
 949              		.loc 1 553 52 view .LVU357
 950 004e 11F0010F 		tst	r1, #1
 951 0052 F8D1     		bne	.L55
 524:Drivers/STM32H7xx_HAL_Driver/Src/stm32h7xx_hal_dcmi.c **** 
 952              		.loc 1 524 21 view .LVU358
 953 0054 0020     		movs	r0, #0
 954 0056 EAE7     		b	.L53
 955              	.L59:
 544:Drivers/STM32H7xx_HAL_Driver/Src/stm32h7xx_hal_dcmi.c **** 
 956              		.loc 1 544 9 is_stmt 1 view .LVU359
 544:Drivers/STM32H7xx_HAL_Driver/Src/stm32h7xx_hal_dcmi.c **** 
 957              		.loc 1 544 14 is_stmt 0 view .LVU360
 958 0058 D36C     		ldr	r3, [r2, #76]
 959              	.LVL55:
 544:Drivers/STM32H7xx_HAL_Driver/Src/stm32h7xx_hal_dcmi.c **** 
 960              		.loc 1 544 26 view .LVU361
 961 005a 43F02003 		orr	r3, r3, #32
 962 005e D364     		str	r3, [r2, #76]
 547:Drivers/STM32H7xx_HAL_Driver/Src/stm32h7xx_hal_dcmi.c **** 
 963              		.loc 1 547 9 is_stmt 1 view .LVU362
 547:Drivers/STM32H7xx_HAL_Driver/Src/stm32h7xx_hal_dcmi.c **** 
 964              		.loc 1 547 22 is_stmt 0 view .LVU363
 965 0060 0123     		movs	r3, #1
 966 0062 82F83530 		strb	r3, [r2, #53]
 549:Drivers/STM32H7xx_HAL_Driver/Src/stm32h7xx_hal_dcmi.c ****         break;
 967              		.loc 1 549 9 is_stmt 1 view .LVU364
 968              	.LVL56:
 550:Drivers/STM32H7xx_HAL_Driver/Src/stm32h7xx_hal_dcmi.c ****       }
 969              		.loc 1 550 9 view .LVU365
 549:Drivers/STM32H7xx_HAL_Driver/Src/stm32h7xx_hal_dcmi.c ****         break;
 970              		.loc 1 549 16 is_stmt 0 view .LVU366
 971 0066 0320     		movs	r0, #3
 550:Drivers/STM32H7xx_HAL_Driver/Src/stm32h7xx_hal_dcmi.c ****       }
 972              		.loc 1 550 9 view .LVU367
 973 0068 E1E7     		b	.L53
 974              	.LVL57:
 975              	.L56:
 527:Drivers/STM32H7xx_HAL_Driver/Src/stm32h7xx_hal_dcmi.c **** 
 976              		.loc 1 527 3 discriminator 1 view .LVU368
 977 006a 0220     		movs	r0, #2
 978              	.LVL58:
 560:Drivers/STM32H7xx_HAL_Driver/Src/stm32h7xx_hal_dcmi.c **** 
 979              		.loc 1 560 1 view .LVU369
 980 006c 7047     		bx	lr
 981              	.L61:
 982 006e 00BF     		.align	2
 983              	.L60:
 984 0070 00000000 		.word	SystemCoreClock
 985 0074 D34D6210 		.word	274877907
 986              		.cfi_endproc
 987              	.LFE343:
 989              		.section	.text.HAL_DCMI_Resume,"ax",%progbits
 990              		.align	1
 991              		.global	HAL_DCMI_Resume
 992              		.syntax unified
 993              		.thumb
ARM GAS  /tmp/ccYwYWEs.s 			page 45


 994              		.thumb_func
 996              	HAL_DCMI_Resume:
 997              	.LVL59:
 998              	.LFB344:
 569:Drivers/STM32H7xx_HAL_Driver/Src/stm32h7xx_hal_dcmi.c ****   /* Process locked */
 999              		.loc 1 569 1 is_stmt 1 view -0
 1000              		.cfi_startproc
 1001              		@ args = 0, pretend = 0, frame = 0
 1002              		@ frame_needed = 0, uses_anonymous_args = 0
 1003              		@ link register save eliminated.
 571:Drivers/STM32H7xx_HAL_Driver/Src/stm32h7xx_hal_dcmi.c **** 
 1004              		.loc 1 571 3 view .LVU371
 571:Drivers/STM32H7xx_HAL_Driver/Src/stm32h7xx_hal_dcmi.c **** 
 1005              		.loc 1 571 3 view .LVU372
 1006 0000 90F83430 		ldrb	r3, [r0, #52]	@ zero_extendqisi2
 1007 0004 012B     		cmp	r3, #1
 1008 0006 14D0     		beq	.L65
 571:Drivers/STM32H7xx_HAL_Driver/Src/stm32h7xx_hal_dcmi.c **** 
 1009              		.loc 1 571 3 discriminator 2 view .LVU373
 1010 0008 0123     		movs	r3, #1
 1011 000a 80F83430 		strb	r3, [r0, #52]
 571:Drivers/STM32H7xx_HAL_Driver/Src/stm32h7xx_hal_dcmi.c **** 
 1012              		.loc 1 571 3 view .LVU374
 573:Drivers/STM32H7xx_HAL_Driver/Src/stm32h7xx_hal_dcmi.c ****   {
 1013              		.loc 1 573 3 view .LVU375
 573:Drivers/STM32H7xx_HAL_Driver/Src/stm32h7xx_hal_dcmi.c ****   {
 1014              		.loc 1 573 12 is_stmt 0 view .LVU376
 1015 000e 90F83530 		ldrb	r3, [r0, #53]	@ zero_extendqisi2
 573:Drivers/STM32H7xx_HAL_Driver/Src/stm32h7xx_hal_dcmi.c ****   {
 1016              		.loc 1 573 6 view .LVU377
 1017 0012 052B     		cmp	r3, #5
 1018 0014 04D0     		beq	.L66
 1019              	.L64:
 582:Drivers/STM32H7xx_HAL_Driver/Src/stm32h7xx_hal_dcmi.c **** 
 1020              		.loc 1 582 3 is_stmt 1 view .LVU378
 582:Drivers/STM32H7xx_HAL_Driver/Src/stm32h7xx_hal_dcmi.c **** 
 1021              		.loc 1 582 3 view .LVU379
 1022 0016 0023     		movs	r3, #0
 1023 0018 80F83430 		strb	r3, [r0, #52]
 582:Drivers/STM32H7xx_HAL_Driver/Src/stm32h7xx_hal_dcmi.c **** 
 1024              		.loc 1 582 3 view .LVU380
 585:Drivers/STM32H7xx_HAL_Driver/Src/stm32h7xx_hal_dcmi.c **** }
 1025              		.loc 1 585 3 view .LVU381
 585:Drivers/STM32H7xx_HAL_Driver/Src/stm32h7xx_hal_dcmi.c **** }
 1026              		.loc 1 585 10 is_stmt 0 view .LVU382
 1027 001c 1846     		mov	r0, r3
 1028              	.LVL60:
 585:Drivers/STM32H7xx_HAL_Driver/Src/stm32h7xx_hal_dcmi.c **** }
 1029              		.loc 1 585 10 view .LVU383
 1030 001e 7047     		bx	lr
 1031              	.LVL61:
 1032              	.L66:
 576:Drivers/STM32H7xx_HAL_Driver/Src/stm32h7xx_hal_dcmi.c **** 
 1033              		.loc 1 576 5 is_stmt 1 view .LVU384
 576:Drivers/STM32H7xx_HAL_Driver/Src/stm32h7xx_hal_dcmi.c **** 
 1034              		.loc 1 576 18 is_stmt 0 view .LVU385
 1035 0020 0223     		movs	r3, #2
ARM GAS  /tmp/ccYwYWEs.s 			page 46


 1036 0022 80F83530 		strb	r3, [r0, #53]
 579:Drivers/STM32H7xx_HAL_Driver/Src/stm32h7xx_hal_dcmi.c ****   }
 1037              		.loc 1 579 5 is_stmt 1 view .LVU386
 579:Drivers/STM32H7xx_HAL_Driver/Src/stm32h7xx_hal_dcmi.c ****   }
 1038              		.loc 1 579 10 is_stmt 0 view .LVU387
 1039 0026 0268     		ldr	r2, [r0]
 579:Drivers/STM32H7xx_HAL_Driver/Src/stm32h7xx_hal_dcmi.c ****   }
 1040              		.loc 1 579 20 view .LVU388
 1041 0028 1368     		ldr	r3, [r2]
 579:Drivers/STM32H7xx_HAL_Driver/Src/stm32h7xx_hal_dcmi.c ****   }
 1042              		.loc 1 579 25 view .LVU389
 1043 002a 43F00103 		orr	r3, r3, #1
 1044 002e 1360     		str	r3, [r2]
 1045 0030 F1E7     		b	.L64
 1046              	.L65:
 571:Drivers/STM32H7xx_HAL_Driver/Src/stm32h7xx_hal_dcmi.c **** 
 1047              		.loc 1 571 3 discriminator 1 view .LVU390
 1048 0032 0220     		movs	r0, #2
 1049              	.LVL62:
 586:Drivers/STM32H7xx_HAL_Driver/Src/stm32h7xx_hal_dcmi.c **** 
 1050              		.loc 1 586 1 view .LVU391
 1051 0034 7047     		bx	lr
 1052              		.cfi_endproc
 1053              	.LFE344:
 1055              		.section	.text.HAL_DCMI_ErrorCallback,"ax",%progbits
 1056              		.align	1
 1057              		.weak	HAL_DCMI_ErrorCallback
 1058              		.syntax unified
 1059              		.thumb
 1060              		.thumb_func
 1062              	HAL_DCMI_ErrorCallback:
 1063              	.LVL63:
 1064              	.LFB346:
 695:Drivers/STM32H7xx_HAL_Driver/Src/stm32h7xx_hal_dcmi.c ****   /* Prevent unused argument(s) compilation warning */
 1065              		.loc 1 695 1 is_stmt 1 view -0
 1066              		.cfi_startproc
 1067              		@ args = 0, pretend = 0, frame = 0
 1068              		@ frame_needed = 0, uses_anonymous_args = 0
 1069              		@ link register save eliminated.
 697:Drivers/STM32H7xx_HAL_Driver/Src/stm32h7xx_hal_dcmi.c **** 
 1070              		.loc 1 697 3 view .LVU393
 702:Drivers/STM32H7xx_HAL_Driver/Src/stm32h7xx_hal_dcmi.c **** 
 1071              		.loc 1 702 1 is_stmt 0 view .LVU394
 1072 0000 7047     		bx	lr
 1073              		.cfi_endproc
 1074              	.LFE346:
 1076              		.section	.text.DCMI_DMAError,"ax",%progbits
 1077              		.align	1
 1078              		.syntax unified
 1079              		.thumb
 1080              		.thumb_func
 1082              	DCMI_DMAError:
 1083              	.LVL64:
 1084              	.LFB357:
1189:Drivers/STM32H7xx_HAL_Driver/Src/stm32h7xx_hal_dcmi.c **** 
1190:Drivers/STM32H7xx_HAL_Driver/Src/stm32h7xx_hal_dcmi.c **** /**
1191:Drivers/STM32H7xx_HAL_Driver/Src/stm32h7xx_hal_dcmi.c ****   * @brief  DMA error callback
ARM GAS  /tmp/ccYwYWEs.s 			page 47


1192:Drivers/STM32H7xx_HAL_Driver/Src/stm32h7xx_hal_dcmi.c ****   * @param  hdma pointer to a DMA_HandleTypeDef structure that contains
1193:Drivers/STM32H7xx_HAL_Driver/Src/stm32h7xx_hal_dcmi.c ****   *                the configuration information for the specified DMA module.
1194:Drivers/STM32H7xx_HAL_Driver/Src/stm32h7xx_hal_dcmi.c ****   * @retval None
1195:Drivers/STM32H7xx_HAL_Driver/Src/stm32h7xx_hal_dcmi.c ****   */
1196:Drivers/STM32H7xx_HAL_Driver/Src/stm32h7xx_hal_dcmi.c **** static void DCMI_DMAError(DMA_HandleTypeDef *hdma)
1197:Drivers/STM32H7xx_HAL_Driver/Src/stm32h7xx_hal_dcmi.c **** {
 1085              		.loc 1 1197 1 is_stmt 1 view -0
 1086              		.cfi_startproc
 1087              		@ args = 0, pretend = 0, frame = 0
 1088              		@ frame_needed = 0, uses_anonymous_args = 0
 1089              		.loc 1 1197 1 is_stmt 0 view .LVU396
 1090 0000 08B5     		push	{r3, lr}
 1091              	.LCFI9:
 1092              		.cfi_def_cfa_offset 8
 1093              		.cfi_offset 3, -8
 1094              		.cfi_offset 14, -4
1198:Drivers/STM32H7xx_HAL_Driver/Src/stm32h7xx_hal_dcmi.c ****   DCMI_HandleTypeDef *hdcmi = (DCMI_HandleTypeDef *)((DMA_HandleTypeDef *)hdma)->Parent;
 1095              		.loc 1 1198 3 is_stmt 1 view .LVU397
 1096              		.loc 1 1198 23 is_stmt 0 view .LVU398
 1097 0002 806B     		ldr	r0, [r0, #56]
 1098              	.LVL65:
1199:Drivers/STM32H7xx_HAL_Driver/Src/stm32h7xx_hal_dcmi.c **** 
1200:Drivers/STM32H7xx_HAL_Driver/Src/stm32h7xx_hal_dcmi.c ****   if (hdcmi->DMA_Handle->ErrorCode != HAL_DMA_ERROR_FE)
 1099              		.loc 1 1200 3 is_stmt 1 view .LVU399
 1100              		.loc 1 1200 12 is_stmt 0 view .LVU400
 1101 0004 836C     		ldr	r3, [r0, #72]
 1102              		.loc 1 1200 24 view .LVU401
 1103 0006 5B6D     		ldr	r3, [r3, #84]
 1104              		.loc 1 1200 6 view .LVU402
 1105 0008 022B     		cmp	r3, #2
 1106 000a 06D0     		beq	.L69
1201:Drivers/STM32H7xx_HAL_Driver/Src/stm32h7xx_hal_dcmi.c ****   {
1202:Drivers/STM32H7xx_HAL_Driver/Src/stm32h7xx_hal_dcmi.c ****     /* Initialize the DCMI state*/
1203:Drivers/STM32H7xx_HAL_Driver/Src/stm32h7xx_hal_dcmi.c ****     hdcmi->State = HAL_DCMI_STATE_READY;
 1107              		.loc 1 1203 5 is_stmt 1 view .LVU403
 1108              		.loc 1 1203 18 is_stmt 0 view .LVU404
 1109 000c 0123     		movs	r3, #1
 1110 000e 80F83530 		strb	r3, [r0, #53]
1204:Drivers/STM32H7xx_HAL_Driver/Src/stm32h7xx_hal_dcmi.c **** 
1205:Drivers/STM32H7xx_HAL_Driver/Src/stm32h7xx_hal_dcmi.c ****     /* Set DCMI Error Code */
1206:Drivers/STM32H7xx_HAL_Driver/Src/stm32h7xx_hal_dcmi.c ****     hdcmi->ErrorCode |= HAL_DCMI_ERROR_DMA;
 1111              		.loc 1 1206 5 is_stmt 1 view .LVU405
 1112              		.loc 1 1206 10 is_stmt 0 view .LVU406
 1113 0012 C36C     		ldr	r3, [r0, #76]
 1114              		.loc 1 1206 22 view .LVU407
 1115 0014 43F04003 		orr	r3, r3, #64
 1116 0018 C364     		str	r3, [r0, #76]
 1117              	.L69:
1207:Drivers/STM32H7xx_HAL_Driver/Src/stm32h7xx_hal_dcmi.c ****   }
1208:Drivers/STM32H7xx_HAL_Driver/Src/stm32h7xx_hal_dcmi.c **** 
1209:Drivers/STM32H7xx_HAL_Driver/Src/stm32h7xx_hal_dcmi.c ****   /* DCMI error Callback */
1210:Drivers/STM32H7xx_HAL_Driver/Src/stm32h7xx_hal_dcmi.c **** #if (USE_HAL_DCMI_REGISTER_CALLBACKS == 1)
1211:Drivers/STM32H7xx_HAL_Driver/Src/stm32h7xx_hal_dcmi.c ****   /*Call registered DCMI error callback*/
1212:Drivers/STM32H7xx_HAL_Driver/Src/stm32h7xx_hal_dcmi.c ****   hdcmi->ErrorCallback(hdcmi);
1213:Drivers/STM32H7xx_HAL_Driver/Src/stm32h7xx_hal_dcmi.c **** #else
1214:Drivers/STM32H7xx_HAL_Driver/Src/stm32h7xx_hal_dcmi.c ****   HAL_DCMI_ErrorCallback(hdcmi);
 1118              		.loc 1 1214 3 is_stmt 1 view .LVU408
ARM GAS  /tmp/ccYwYWEs.s 			page 48


 1119 001a FFF7FEFF 		bl	HAL_DCMI_ErrorCallback
 1120              	.LVL66:
1215:Drivers/STM32H7xx_HAL_Driver/Src/stm32h7xx_hal_dcmi.c **** #endif /* USE_HAL_DCMI_REGISTER_CALLBACKS */
1216:Drivers/STM32H7xx_HAL_Driver/Src/stm32h7xx_hal_dcmi.c **** }
 1121              		.loc 1 1216 1 is_stmt 0 view .LVU409
 1122 001e 08BD     		pop	{r3, pc}
 1123              		.cfi_endproc
 1124              	.LFE357:
 1126              		.section	.text.HAL_DCMI_LineEventCallback,"ax",%progbits
 1127              		.align	1
 1128              		.weak	HAL_DCMI_LineEventCallback
 1129              		.syntax unified
 1130              		.thumb
 1131              		.thumb_func
 1133              	HAL_DCMI_LineEventCallback:
 1134              	.LVL67:
 1135              	.LFB347:
 711:Drivers/STM32H7xx_HAL_Driver/Src/stm32h7xx_hal_dcmi.c ****   /* Prevent unused argument(s) compilation warning */
 1136              		.loc 1 711 1 is_stmt 1 view -0
 1137              		.cfi_startproc
 1138              		@ args = 0, pretend = 0, frame = 0
 1139              		@ frame_needed = 0, uses_anonymous_args = 0
 1140              		@ link register save eliminated.
 713:Drivers/STM32H7xx_HAL_Driver/Src/stm32h7xx_hal_dcmi.c ****   /* NOTE : This function Should not be modified, when the callback is needed,
 1141              		.loc 1 713 3 view .LVU411
 717:Drivers/STM32H7xx_HAL_Driver/Src/stm32h7xx_hal_dcmi.c **** 
 1142              		.loc 1 717 1 is_stmt 0 view .LVU412
 1143 0000 7047     		bx	lr
 1144              		.cfi_endproc
 1145              	.LFE347:
 1147              		.section	.text.HAL_DCMI_VsyncEventCallback,"ax",%progbits
 1148              		.align	1
 1149              		.weak	HAL_DCMI_VsyncEventCallback
 1150              		.syntax unified
 1151              		.thumb
 1152              		.thumb_func
 1154              	HAL_DCMI_VsyncEventCallback:
 1155              	.LVL68:
 1156              	.LFB348:
 726:Drivers/STM32H7xx_HAL_Driver/Src/stm32h7xx_hal_dcmi.c ****   /* Prevent unused argument(s) compilation warning */
 1157              		.loc 1 726 1 is_stmt 1 view -0
 1158              		.cfi_startproc
 1159              		@ args = 0, pretend = 0, frame = 0
 1160              		@ frame_needed = 0, uses_anonymous_args = 0
 1161              		@ link register save eliminated.
 728:Drivers/STM32H7xx_HAL_Driver/Src/stm32h7xx_hal_dcmi.c **** 
 1162              		.loc 1 728 3 view .LVU414
 733:Drivers/STM32H7xx_HAL_Driver/Src/stm32h7xx_hal_dcmi.c **** 
 1163              		.loc 1 733 1 is_stmt 0 view .LVU415
 1164 0000 7047     		bx	lr
 1165              		.cfi_endproc
 1166              	.LFE348:
 1168              		.section	.text.HAL_DCMI_FrameEventCallback,"ax",%progbits
 1169              		.align	1
 1170              		.weak	HAL_DCMI_FrameEventCallback
 1171              		.syntax unified
 1172              		.thumb
ARM GAS  /tmp/ccYwYWEs.s 			page 49


 1173              		.thumb_func
 1175              	HAL_DCMI_FrameEventCallback:
 1176              	.LVL69:
 1177              	.LFB349:
 742:Drivers/STM32H7xx_HAL_Driver/Src/stm32h7xx_hal_dcmi.c ****   /* Prevent unused argument(s) compilation warning */
 1178              		.loc 1 742 1 is_stmt 1 view -0
 1179              		.cfi_startproc
 1180              		@ args = 0, pretend = 0, frame = 0
 1181              		@ frame_needed = 0, uses_anonymous_args = 0
 1182              		@ link register save eliminated.
 744:Drivers/STM32H7xx_HAL_Driver/Src/stm32h7xx_hal_dcmi.c **** 
 1183              		.loc 1 744 3 view .LVU417
 749:Drivers/STM32H7xx_HAL_Driver/Src/stm32h7xx_hal_dcmi.c **** 
 1184              		.loc 1 749 1 is_stmt 0 view .LVU418
 1185 0000 7047     		bx	lr
 1186              		.cfi_endproc
 1187              	.LFE349:
 1189              		.section	.text.HAL_DCMI_IRQHandler,"ax",%progbits
 1190              		.align	1
 1191              		.global	HAL_DCMI_IRQHandler
 1192              		.syntax unified
 1193              		.thumb
 1194              		.thumb_func
 1196              	HAL_DCMI_IRQHandler:
 1197              	.LVL70:
 1198              	.LFB345:
 595:Drivers/STM32H7xx_HAL_Driver/Src/stm32h7xx_hal_dcmi.c ****   uint32_t isr_value = READ_REG(hdcmi->Instance->MISR);
 1199              		.loc 1 595 1 is_stmt 1 view -0
 1200              		.cfi_startproc
 1201              		@ args = 0, pretend = 0, frame = 0
 1202              		@ frame_needed = 0, uses_anonymous_args = 0
 595:Drivers/STM32H7xx_HAL_Driver/Src/stm32h7xx_hal_dcmi.c ****   uint32_t isr_value = READ_REG(hdcmi->Instance->MISR);
 1203              		.loc 1 595 1 is_stmt 0 view .LVU420
 1204 0000 38B5     		push	{r3, r4, r5, lr}
 1205              	.LCFI10:
 1206              		.cfi_def_cfa_offset 16
 1207              		.cfi_offset 3, -16
 1208              		.cfi_offset 4, -12
 1209              		.cfi_offset 5, -8
 1210              		.cfi_offset 14, -4
 1211 0002 0446     		mov	r4, r0
 596:Drivers/STM32H7xx_HAL_Driver/Src/stm32h7xx_hal_dcmi.c **** 
 1212              		.loc 1 596 3 is_stmt 1 view .LVU421
 596:Drivers/STM32H7xx_HAL_Driver/Src/stm32h7xx_hal_dcmi.c **** 
 1213              		.loc 1 596 24 is_stmt 0 view .LVU422
 1214 0004 0368     		ldr	r3, [r0]
 596:Drivers/STM32H7xx_HAL_Driver/Src/stm32h7xx_hal_dcmi.c **** 
 1215              		.loc 1 596 12 view .LVU423
 1216 0006 1D69     		ldr	r5, [r3, #16]
 1217              	.LVL71:
 599:Drivers/STM32H7xx_HAL_Driver/Src/stm32h7xx_hal_dcmi.c ****   {
 1218              		.loc 1 599 3 is_stmt 1 view .LVU424
 599:Drivers/STM32H7xx_HAL_Driver/Src/stm32h7xx_hal_dcmi.c ****   {
 1219              		.loc 1 599 6 is_stmt 0 view .LVU425
 1220 0008 15F0040F 		tst	r5, #4
 1221 000c 20D1     		bne	.L82
 1222              	.LVL72:
ARM GAS  /tmp/ccYwYWEs.s 			page 50


 1223              	.L75:
 617:Drivers/STM32H7xx_HAL_Driver/Src/stm32h7xx_hal_dcmi.c ****   {
 1224              		.loc 1 617 3 is_stmt 1 view .LVU426
 617:Drivers/STM32H7xx_HAL_Driver/Src/stm32h7xx_hal_dcmi.c ****   {
 1225              		.loc 1 617 6 is_stmt 0 view .LVU427
 1226 000e 15F0020F 		tst	r5, #2
 1227 0012 2CD1     		bne	.L83
 1228              	.L76:
 635:Drivers/STM32H7xx_HAL_Driver/Src/stm32h7xx_hal_dcmi.c ****   {
 1229              		.loc 1 635 3 is_stmt 1 view .LVU428
 635:Drivers/STM32H7xx_HAL_Driver/Src/stm32h7xx_hal_dcmi.c ****   {
 1230              		.loc 1 635 6 is_stmt 0 view .LVU429
 1231 0014 15F0100F 		tst	r5, #16
 1232 0018 3AD1     		bne	.L84
 1233              	.L77:
 649:Drivers/STM32H7xx_HAL_Driver/Src/stm32h7xx_hal_dcmi.c ****   {
 1234              		.loc 1 649 3 is_stmt 1 view .LVU430
 649:Drivers/STM32H7xx_HAL_Driver/Src/stm32h7xx_hal_dcmi.c ****   {
 1235              		.loc 1 649 6 is_stmt 0 view .LVU431
 1236 001a 15F0080F 		tst	r5, #8
 1237 001e 3ED1     		bne	.L85
 1238              	.L78:
 663:Drivers/STM32H7xx_HAL_Driver/Src/stm32h7xx_hal_dcmi.c ****   {
 1239              		.loc 1 663 3 is_stmt 1 view .LVU432
 663:Drivers/STM32H7xx_HAL_Driver/Src/stm32h7xx_hal_dcmi.c ****   {
 1240              		.loc 1 663 6 is_stmt 0 view .LVU433
 1241 0020 15F0010F 		tst	r5, #1
 1242 0024 13D0     		beq	.L74
 666:Drivers/STM32H7xx_HAL_Driver/Src/stm32h7xx_hal_dcmi.c ****     {
 1243              		.loc 1 666 5 is_stmt 1 view .LVU434
 666:Drivers/STM32H7xx_HAL_Driver/Src/stm32h7xx_hal_dcmi.c ****     {
 1244              		.loc 1 666 15 is_stmt 0 view .LVU435
 1245 0026 2368     		ldr	r3, [r4]
 666:Drivers/STM32H7xx_HAL_Driver/Src/stm32h7xx_hal_dcmi.c ****     {
 1246              		.loc 1 666 25 view .LVU436
 1247 0028 1A68     		ldr	r2, [r3]
 666:Drivers/STM32H7xx_HAL_Driver/Src/stm32h7xx_hal_dcmi.c ****     {
 1248              		.loc 1 666 8 view .LVU437
 1249 002a 12F0020F 		tst	r2, #2
 1250 002e 03D0     		beq	.L80
 669:Drivers/STM32H7xx_HAL_Driver/Src/stm32h7xx_hal_dcmi.c ****     }
 1251              		.loc 1 669 7 is_stmt 1 view .LVU438
 1252 0030 DA68     		ldr	r2, [r3, #12]
 1253 0032 22F01E02 		bic	r2, r2, #30
 1254 0036 DA60     		str	r2, [r3, #12]
 1255              	.L80:
 673:Drivers/STM32H7xx_HAL_Driver/Src/stm32h7xx_hal_dcmi.c **** 
 1256              		.loc 1 673 5 view .LVU439
 1257 0038 2268     		ldr	r2, [r4]
 1258 003a D368     		ldr	r3, [r2, #12]
 1259 003c 23F00103 		bic	r3, r3, #1
 1260 0040 D360     		str	r3, [r2, #12]
 676:Drivers/STM32H7xx_HAL_Driver/Src/stm32h7xx_hal_dcmi.c **** 
 1261              		.loc 1 676 5 view .LVU440
 1262 0042 2368     		ldr	r3, [r4]
 1263 0044 0122     		movs	r2, #1
 1264 0046 5A61     		str	r2, [r3, #20]
ARM GAS  /tmp/ccYwYWEs.s 			page 51


 683:Drivers/STM32H7xx_HAL_Driver/Src/stm32h7xx_hal_dcmi.c **** #endif /* USE_HAL_DCMI_REGISTER_CALLBACKS */
 1265              		.loc 1 683 5 view .LVU441
 1266 0048 2046     		mov	r0, r4
 1267 004a FFF7FEFF 		bl	HAL_DCMI_FrameEventCallback
 1268              	.LVL73:
 1269              	.L74:
 686:Drivers/STM32H7xx_HAL_Driver/Src/stm32h7xx_hal_dcmi.c **** 
 1270              		.loc 1 686 1 is_stmt 0 view .LVU442
 1271 004e 38BD     		pop	{r3, r4, r5, pc}
 1272              	.LVL74:
 1273              	.L82:
 602:Drivers/STM32H7xx_HAL_Driver/Src/stm32h7xx_hal_dcmi.c **** 
 1274              		.loc 1 602 5 is_stmt 1 view .LVU443
 1275 0050 0422     		movs	r2, #4
 1276 0052 5A61     		str	r2, [r3, #20]
 605:Drivers/STM32H7xx_HAL_Driver/Src/stm32h7xx_hal_dcmi.c **** 
 1277              		.loc 1 605 5 view .LVU444
 605:Drivers/STM32H7xx_HAL_Driver/Src/stm32h7xx_hal_dcmi.c **** 
 1278              		.loc 1 605 10 is_stmt 0 view .LVU445
 1279 0054 C36C     		ldr	r3, [r0, #76]
 605:Drivers/STM32H7xx_HAL_Driver/Src/stm32h7xx_hal_dcmi.c **** 
 1280              		.loc 1 605 22 view .LVU446
 1281 0056 43F00203 		orr	r3, r3, #2
 1282 005a C364     		str	r3, [r0, #76]
 608:Drivers/STM32H7xx_HAL_Driver/Src/stm32h7xx_hal_dcmi.c **** 
 1283              		.loc 1 608 5 is_stmt 1 view .LVU447
 608:Drivers/STM32H7xx_HAL_Driver/Src/stm32h7xx_hal_dcmi.c **** 
 1284              		.loc 1 608 18 is_stmt 0 view .LVU448
 1285 005c 80F83520 		strb	r2, [r0, #53]
 611:Drivers/STM32H7xx_HAL_Driver/Src/stm32h7xx_hal_dcmi.c **** 
 1286              		.loc 1 611 5 is_stmt 1 view .LVU449
 611:Drivers/STM32H7xx_HAL_Driver/Src/stm32h7xx_hal_dcmi.c **** 
 1287              		.loc 1 611 10 is_stmt 0 view .LVU450
 1288 0060 836C     		ldr	r3, [r0, #72]
 611:Drivers/STM32H7xx_HAL_Driver/Src/stm32h7xx_hal_dcmi.c **** 
 1289              		.loc 1 611 42 view .LVU451
 1290 0062 124A     		ldr	r2, .L86
 1291 0064 1A65     		str	r2, [r3, #80]
 614:Drivers/STM32H7xx_HAL_Driver/Src/stm32h7xx_hal_dcmi.c ****   }
 1292              		.loc 1 614 5 is_stmt 1 view .LVU452
 614:Drivers/STM32H7xx_HAL_Driver/Src/stm32h7xx_hal_dcmi.c ****   }
 1293              		.loc 1 614 11 is_stmt 0 view .LVU453
 1294 0066 806C     		ldr	r0, [r0, #72]
 1295              	.LVL75:
 614:Drivers/STM32H7xx_HAL_Driver/Src/stm32h7xx_hal_dcmi.c ****   }
 1296              		.loc 1 614 11 view .LVU454
 1297 0068 FFF7FEFF 		bl	HAL_DMA_Abort_IT
 1298              	.LVL76:
 1299 006c CFE7     		b	.L75
 1300              	.L83:
 620:Drivers/STM32H7xx_HAL_Driver/Src/stm32h7xx_hal_dcmi.c **** 
 1301              		.loc 1 620 5 is_stmt 1 view .LVU455
 1302 006e 2368     		ldr	r3, [r4]
 1303 0070 0222     		movs	r2, #2
 1304 0072 5A61     		str	r2, [r3, #20]
 623:Drivers/STM32H7xx_HAL_Driver/Src/stm32h7xx_hal_dcmi.c **** 
 1305              		.loc 1 623 5 view .LVU456
ARM GAS  /tmp/ccYwYWEs.s 			page 52


 623:Drivers/STM32H7xx_HAL_Driver/Src/stm32h7xx_hal_dcmi.c **** 
 1306              		.loc 1 623 10 is_stmt 0 view .LVU457
 1307 0074 E36C     		ldr	r3, [r4, #76]
 623:Drivers/STM32H7xx_HAL_Driver/Src/stm32h7xx_hal_dcmi.c **** 
 1308              		.loc 1 623 22 view .LVU458
 1309 0076 43F00103 		orr	r3, r3, #1
 1310 007a E364     		str	r3, [r4, #76]
 626:Drivers/STM32H7xx_HAL_Driver/Src/stm32h7xx_hal_dcmi.c **** 
 1311              		.loc 1 626 5 is_stmt 1 view .LVU459
 626:Drivers/STM32H7xx_HAL_Driver/Src/stm32h7xx_hal_dcmi.c **** 
 1312              		.loc 1 626 18 is_stmt 0 view .LVU460
 1313 007c 0423     		movs	r3, #4
 1314 007e 84F83530 		strb	r3, [r4, #53]
 629:Drivers/STM32H7xx_HAL_Driver/Src/stm32h7xx_hal_dcmi.c **** 
 1315              		.loc 1 629 5 is_stmt 1 view .LVU461
 629:Drivers/STM32H7xx_HAL_Driver/Src/stm32h7xx_hal_dcmi.c **** 
 1316              		.loc 1 629 10 is_stmt 0 view .LVU462
 1317 0082 A36C     		ldr	r3, [r4, #72]
 629:Drivers/STM32H7xx_HAL_Driver/Src/stm32h7xx_hal_dcmi.c **** 
 1318              		.loc 1 629 42 view .LVU463
 1319 0084 094A     		ldr	r2, .L86
 1320 0086 1A65     		str	r2, [r3, #80]
 632:Drivers/STM32H7xx_HAL_Driver/Src/stm32h7xx_hal_dcmi.c ****   }
 1321              		.loc 1 632 5 is_stmt 1 view .LVU464
 632:Drivers/STM32H7xx_HAL_Driver/Src/stm32h7xx_hal_dcmi.c ****   }
 1322              		.loc 1 632 11 is_stmt 0 view .LVU465
 1323 0088 A06C     		ldr	r0, [r4, #72]
 1324 008a FFF7FEFF 		bl	HAL_DMA_Abort_IT
 1325              	.LVL77:
 1326 008e C1E7     		b	.L76
 1327              	.L84:
 638:Drivers/STM32H7xx_HAL_Driver/Src/stm32h7xx_hal_dcmi.c **** 
 1328              		.loc 1 638 5 is_stmt 1 view .LVU466
 1329 0090 2368     		ldr	r3, [r4]
 1330 0092 1022     		movs	r2, #16
 1331 0094 5A61     		str	r2, [r3, #20]
 645:Drivers/STM32H7xx_HAL_Driver/Src/stm32h7xx_hal_dcmi.c **** #endif /* USE_HAL_DCMI_REGISTER_CALLBACKS */
 1332              		.loc 1 645 5 view .LVU467
 1333 0096 2046     		mov	r0, r4
 1334 0098 FFF7FEFF 		bl	HAL_DCMI_LineEventCallback
 1335              	.LVL78:
 1336 009c BDE7     		b	.L77
 1337              	.L85:
 652:Drivers/STM32H7xx_HAL_Driver/Src/stm32h7xx_hal_dcmi.c **** 
 1338              		.loc 1 652 5 view .LVU468
 1339 009e 2368     		ldr	r3, [r4]
 1340 00a0 0822     		movs	r2, #8
 1341 00a2 5A61     		str	r2, [r3, #20]
 659:Drivers/STM32H7xx_HAL_Driver/Src/stm32h7xx_hal_dcmi.c **** #endif /* USE_HAL_DCMI_REGISTER_CALLBACKS */
 1342              		.loc 1 659 5 view .LVU469
 1343 00a4 2046     		mov	r0, r4
 1344 00a6 FFF7FEFF 		bl	HAL_DCMI_VsyncEventCallback
 1345              	.LVL79:
 1346 00aa B9E7     		b	.L78
 1347              	.L87:
 1348              		.align	2
 1349              	.L86:
ARM GAS  /tmp/ccYwYWEs.s 			page 53


 1350 00ac 00000000 		.word	DCMI_DMAError
 1351              		.cfi_endproc
 1352              	.LFE345:
 1354              		.section	.text.HAL_DCMI_ConfigCrop,"ax",%progbits
 1355              		.align	1
 1356              		.global	HAL_DCMI_ConfigCrop
 1357              		.syntax unified
 1358              		.thumb
 1359              		.thumb_func
 1361              	HAL_DCMI_ConfigCrop:
 1362              	.LVL80:
 1363              	.LFB350:
 782:Drivers/STM32H7xx_HAL_Driver/Src/stm32h7xx_hal_dcmi.c ****   /* Process Locked */
 1364              		.loc 1 782 1 view -0
 1365              		.cfi_startproc
 1366              		@ args = 4, pretend = 0, frame = 0
 1367              		@ frame_needed = 0, uses_anonymous_args = 0
 782:Drivers/STM32H7xx_HAL_Driver/Src/stm32h7xx_hal_dcmi.c ****   /* Process Locked */
 1368              		.loc 1 782 1 is_stmt 0 view .LVU471
 1369 0000 8446     		mov	ip, r0
 784:Drivers/STM32H7xx_HAL_Driver/Src/stm32h7xx_hal_dcmi.c **** 
 1370              		.loc 1 784 3 is_stmt 1 view .LVU472
 784:Drivers/STM32H7xx_HAL_Driver/Src/stm32h7xx_hal_dcmi.c **** 
 1371              		.loc 1 784 3 view .LVU473
 1372 0002 90F83400 		ldrb	r0, [r0, #52]	@ zero_extendqisi2
 1373              	.LVL81:
 784:Drivers/STM32H7xx_HAL_Driver/Src/stm32h7xx_hal_dcmi.c **** 
 1374              		.loc 1 784 3 is_stmt 0 view .LVU474
 1375 0006 0128     		cmp	r0, #1
 1376 0008 18D0     		beq	.L90
 782:Drivers/STM32H7xx_HAL_Driver/Src/stm32h7xx_hal_dcmi.c ****   /* Process Locked */
 1377              		.loc 1 782 1 view .LVU475
 1378 000a 10B5     		push	{r4, lr}
 1379              	.LCFI11:
 1380              		.cfi_def_cfa_offset 8
 1381              		.cfi_offset 4, -8
 1382              		.cfi_offset 14, -4
 784:Drivers/STM32H7xx_HAL_Driver/Src/stm32h7xx_hal_dcmi.c **** 
 1383              		.loc 1 784 3 is_stmt 1 discriminator 2 view .LVU476
 1384 000c 0120     		movs	r0, #1
 1385 000e 8CF83400 		strb	r0, [ip, #52]
 784:Drivers/STM32H7xx_HAL_Driver/Src/stm32h7xx_hal_dcmi.c **** 
 1386              		.loc 1 784 3 view .LVU477
 787:Drivers/STM32H7xx_HAL_Driver/Src/stm32h7xx_hal_dcmi.c **** 
 1387              		.loc 1 787 3 view .LVU478
 787:Drivers/STM32H7xx_HAL_Driver/Src/stm32h7xx_hal_dcmi.c **** 
 1388              		.loc 1 787 16 is_stmt 0 view .LVU479
 1389 0012 4FF0020E 		mov	lr, #2
 1390 0016 8CF835E0 		strb	lr, [ip, #53]
 790:Drivers/STM32H7xx_HAL_Driver/Src/stm32h7xx_hal_dcmi.c ****   assert_param(IS_DCMI_WINDOW_HEIGHT(Y0));
 1391              		.loc 1 790 3 is_stmt 1 view .LVU480
 791:Drivers/STM32H7xx_HAL_Driver/Src/stm32h7xx_hal_dcmi.c ****   assert_param(IS_DCMI_WINDOW_COORDINATE(XSize));
 1392              		.loc 1 791 3 view .LVU481
 792:Drivers/STM32H7xx_HAL_Driver/Src/stm32h7xx_hal_dcmi.c ****   assert_param(IS_DCMI_WINDOW_COORDINATE(YSize));
 1393              		.loc 1 792 3 view .LVU482
 793:Drivers/STM32H7xx_HAL_Driver/Src/stm32h7xx_hal_dcmi.c **** 
 1394              		.loc 1 793 3 view .LVU483
ARM GAS  /tmp/ccYwYWEs.s 			page 54


 796:Drivers/STM32H7xx_HAL_Driver/Src/stm32h7xx_hal_dcmi.c ****   hdcmi->Instance->CWSTRTR = (X0 | (Y0 << DCMI_CWSTRT_VST_Pos));
 1395              		.loc 1 796 3 view .LVU484
 796:Drivers/STM32H7xx_HAL_Driver/Src/stm32h7xx_hal_dcmi.c ****   hdcmi->Instance->CWSTRTR = (X0 | (Y0 << DCMI_CWSTRT_VST_Pos));
 1396              		.loc 1 796 37 is_stmt 0 view .LVU485
 1397 001a 029C     		ldr	r4, [sp, #8]
 1398 001c 43EA0443 		orr	r3, r3, r4, lsl #16
 1399              	.LVL82:
 796:Drivers/STM32H7xx_HAL_Driver/Src/stm32h7xx_hal_dcmi.c ****   hdcmi->Instance->CWSTRTR = (X0 | (Y0 << DCMI_CWSTRT_VST_Pos));
 1400              		.loc 1 796 28 view .LVU486
 1401 0020 DCF80040 		ldr	r4, [ip]
 1402 0024 6362     		str	r3, [r4, #36]
 797:Drivers/STM32H7xx_HAL_Driver/Src/stm32h7xx_hal_dcmi.c **** 
 1403              		.loc 1 797 3 is_stmt 1 view .LVU487
 797:Drivers/STM32H7xx_HAL_Driver/Src/stm32h7xx_hal_dcmi.c **** 
 1404              		.loc 1 797 8 is_stmt 0 view .LVU488
 1405 0026 DCF80030 		ldr	r3, [ip]
 797:Drivers/STM32H7xx_HAL_Driver/Src/stm32h7xx_hal_dcmi.c **** 
 1406              		.loc 1 797 34 view .LVU489
 1407 002a 41EA0241 		orr	r1, r1, r2, lsl #16
 1408              	.LVL83:
 797:Drivers/STM32H7xx_HAL_Driver/Src/stm32h7xx_hal_dcmi.c **** 
 1409              		.loc 1 797 28 view .LVU490
 1410 002e 1962     		str	r1, [r3, #32]
 800:Drivers/STM32H7xx_HAL_Driver/Src/stm32h7xx_hal_dcmi.c **** 
 1411              		.loc 1 800 3 is_stmt 1 view .LVU491
 800:Drivers/STM32H7xx_HAL_Driver/Src/stm32h7xx_hal_dcmi.c **** 
 1412              		.loc 1 800 17 is_stmt 0 view .LVU492
 1413 0030 8CF83500 		strb	r0, [ip, #53]
 803:Drivers/STM32H7xx_HAL_Driver/Src/stm32h7xx_hal_dcmi.c **** 
 1414              		.loc 1 803 3 is_stmt 1 view .LVU493
 803:Drivers/STM32H7xx_HAL_Driver/Src/stm32h7xx_hal_dcmi.c **** 
 1415              		.loc 1 803 3 view .LVU494
 1416 0034 0020     		movs	r0, #0
 1417 0036 8CF83400 		strb	r0, [ip, #52]
 803:Drivers/STM32H7xx_HAL_Driver/Src/stm32h7xx_hal_dcmi.c **** 
 1418              		.loc 1 803 3 view .LVU495
 805:Drivers/STM32H7xx_HAL_Driver/Src/stm32h7xx_hal_dcmi.c **** }
 1419              		.loc 1 805 3 view .LVU496
 806:Drivers/STM32H7xx_HAL_Driver/Src/stm32h7xx_hal_dcmi.c **** 
 1420              		.loc 1 806 1 is_stmt 0 view .LVU497
 1421 003a 10BD     		pop	{r4, pc}
 1422              	.LVL84:
 1423              	.L90:
 1424              	.LCFI12:
 1425              		.cfi_def_cfa_offset 0
 1426              		.cfi_restore 4
 1427              		.cfi_restore 14
 784:Drivers/STM32H7xx_HAL_Driver/Src/stm32h7xx_hal_dcmi.c **** 
 1428              		.loc 1 784 3 discriminator 1 view .LVU498
 1429 003c 0220     		movs	r0, #2
 806:Drivers/STM32H7xx_HAL_Driver/Src/stm32h7xx_hal_dcmi.c **** 
 1430              		.loc 1 806 1 view .LVU499
 1431 003e 7047     		bx	lr
 1432              		.cfi_endproc
 1433              	.LFE350:
 1435              		.section	.text.HAL_DCMI_DisableCrop,"ax",%progbits
 1436              		.align	1
ARM GAS  /tmp/ccYwYWEs.s 			page 55


 1437              		.global	HAL_DCMI_DisableCrop
 1438              		.syntax unified
 1439              		.thumb
 1440              		.thumb_func
 1442              	HAL_DCMI_DisableCrop:
 1443              	.LVL85:
 1444              	.LFB351:
 815:Drivers/STM32H7xx_HAL_Driver/Src/stm32h7xx_hal_dcmi.c ****   /* Process Locked */
 1445              		.loc 1 815 1 is_stmt 1 view -0
 1446              		.cfi_startproc
 1447              		@ args = 0, pretend = 0, frame = 0
 1448              		@ frame_needed = 0, uses_anonymous_args = 0
 1449              		@ link register save eliminated.
 817:Drivers/STM32H7xx_HAL_Driver/Src/stm32h7xx_hal_dcmi.c **** 
 1450              		.loc 1 817 3 view .LVU501
 817:Drivers/STM32H7xx_HAL_Driver/Src/stm32h7xx_hal_dcmi.c **** 
 1451              		.loc 1 817 3 view .LVU502
 1452 0000 90F83430 		ldrb	r3, [r0, #52]	@ zero_extendqisi2
 1453 0004 012B     		cmp	r3, #1
 1454 0006 11D0     		beq	.L97
 817:Drivers/STM32H7xx_HAL_Driver/Src/stm32h7xx_hal_dcmi.c **** 
 1455              		.loc 1 817 3 discriminator 2 view .LVU503
 1456 0008 0122     		movs	r2, #1
 1457 000a 80F83420 		strb	r2, [r0, #52]
 817:Drivers/STM32H7xx_HAL_Driver/Src/stm32h7xx_hal_dcmi.c **** 
 1458              		.loc 1 817 3 view .LVU504
 820:Drivers/STM32H7xx_HAL_Driver/Src/stm32h7xx_hal_dcmi.c **** 
 1459              		.loc 1 820 3 view .LVU505
 820:Drivers/STM32H7xx_HAL_Driver/Src/stm32h7xx_hal_dcmi.c **** 
 1460              		.loc 1 820 16 is_stmt 0 view .LVU506
 1461 000e 0223     		movs	r3, #2
 1462 0010 80F83530 		strb	r3, [r0, #53]
 823:Drivers/STM32H7xx_HAL_Driver/Src/stm32h7xx_hal_dcmi.c **** 
 1463              		.loc 1 823 3 is_stmt 1 view .LVU507
 823:Drivers/STM32H7xx_HAL_Driver/Src/stm32h7xx_hal_dcmi.c **** 
 1464              		.loc 1 823 8 is_stmt 0 view .LVU508
 1465 0014 0168     		ldr	r1, [r0]
 823:Drivers/STM32H7xx_HAL_Driver/Src/stm32h7xx_hal_dcmi.c **** 
 1466              		.loc 1 823 18 view .LVU509
 1467 0016 0B68     		ldr	r3, [r1]
 823:Drivers/STM32H7xx_HAL_Driver/Src/stm32h7xx_hal_dcmi.c **** 
 1468              		.loc 1 823 23 view .LVU510
 1469 0018 23F00403 		bic	r3, r3, #4
 1470 001c 0B60     		str	r3, [r1]
 826:Drivers/STM32H7xx_HAL_Driver/Src/stm32h7xx_hal_dcmi.c **** 
 1471              		.loc 1 826 3 is_stmt 1 view .LVU511
 826:Drivers/STM32H7xx_HAL_Driver/Src/stm32h7xx_hal_dcmi.c **** 
 1472              		.loc 1 826 16 is_stmt 0 view .LVU512
 1473 001e 80F83520 		strb	r2, [r0, #53]
 829:Drivers/STM32H7xx_HAL_Driver/Src/stm32h7xx_hal_dcmi.c **** 
 1474              		.loc 1 829 3 is_stmt 1 view .LVU513
 829:Drivers/STM32H7xx_HAL_Driver/Src/stm32h7xx_hal_dcmi.c **** 
 1475              		.loc 1 829 3 view .LVU514
 1476 0022 0023     		movs	r3, #0
 1477 0024 80F83430 		strb	r3, [r0, #52]
 829:Drivers/STM32H7xx_HAL_Driver/Src/stm32h7xx_hal_dcmi.c **** 
 1478              		.loc 1 829 3 view .LVU515
ARM GAS  /tmp/ccYwYWEs.s 			page 56


 831:Drivers/STM32H7xx_HAL_Driver/Src/stm32h7xx_hal_dcmi.c **** }
 1479              		.loc 1 831 3 view .LVU516
 831:Drivers/STM32H7xx_HAL_Driver/Src/stm32h7xx_hal_dcmi.c **** }
 1480              		.loc 1 831 10 is_stmt 0 view .LVU517
 1481 0028 1846     		mov	r0, r3
 1482              	.LVL86:
 831:Drivers/STM32H7xx_HAL_Driver/Src/stm32h7xx_hal_dcmi.c **** }
 1483              		.loc 1 831 10 view .LVU518
 1484 002a 7047     		bx	lr
 1485              	.LVL87:
 1486              	.L97:
 817:Drivers/STM32H7xx_HAL_Driver/Src/stm32h7xx_hal_dcmi.c **** 
 1487              		.loc 1 817 3 discriminator 1 view .LVU519
 1488 002c 0220     		movs	r0, #2
 1489              	.LVL88:
 832:Drivers/STM32H7xx_HAL_Driver/Src/stm32h7xx_hal_dcmi.c **** 
 1490              		.loc 1 832 1 view .LVU520
 1491 002e 7047     		bx	lr
 1492              		.cfi_endproc
 1493              	.LFE351:
 1495              		.section	.text.HAL_DCMI_EnableCrop,"ax",%progbits
 1496              		.align	1
 1497              		.global	HAL_DCMI_EnableCrop
 1498              		.syntax unified
 1499              		.thumb
 1500              		.thumb_func
 1502              	HAL_DCMI_EnableCrop:
 1503              	.LVL89:
 1504              	.LFB352:
 841:Drivers/STM32H7xx_HAL_Driver/Src/stm32h7xx_hal_dcmi.c ****   /* Process Locked */
 1505              		.loc 1 841 1 is_stmt 1 view -0
 1506              		.cfi_startproc
 1507              		@ args = 0, pretend = 0, frame = 0
 1508              		@ frame_needed = 0, uses_anonymous_args = 0
 1509              		@ link register save eliminated.
 843:Drivers/STM32H7xx_HAL_Driver/Src/stm32h7xx_hal_dcmi.c **** 
 1510              		.loc 1 843 3 view .LVU522
 843:Drivers/STM32H7xx_HAL_Driver/Src/stm32h7xx_hal_dcmi.c **** 
 1511              		.loc 1 843 3 view .LVU523
 1512 0000 90F83430 		ldrb	r3, [r0, #52]	@ zero_extendqisi2
 1513 0004 012B     		cmp	r3, #1
 1514 0006 11D0     		beq	.L100
 843:Drivers/STM32H7xx_HAL_Driver/Src/stm32h7xx_hal_dcmi.c **** 
 1515              		.loc 1 843 3 discriminator 2 view .LVU524
 1516 0008 0122     		movs	r2, #1
 1517 000a 80F83420 		strb	r2, [r0, #52]
 843:Drivers/STM32H7xx_HAL_Driver/Src/stm32h7xx_hal_dcmi.c **** 
 1518              		.loc 1 843 3 view .LVU525
 846:Drivers/STM32H7xx_HAL_Driver/Src/stm32h7xx_hal_dcmi.c **** 
 1519              		.loc 1 846 3 view .LVU526
 846:Drivers/STM32H7xx_HAL_Driver/Src/stm32h7xx_hal_dcmi.c **** 
 1520              		.loc 1 846 16 is_stmt 0 view .LVU527
 1521 000e 0223     		movs	r3, #2
 1522 0010 80F83530 		strb	r3, [r0, #53]
 849:Drivers/STM32H7xx_HAL_Driver/Src/stm32h7xx_hal_dcmi.c **** 
 1523              		.loc 1 849 3 is_stmt 1 view .LVU528
 849:Drivers/STM32H7xx_HAL_Driver/Src/stm32h7xx_hal_dcmi.c **** 
ARM GAS  /tmp/ccYwYWEs.s 			page 57


 1524              		.loc 1 849 8 is_stmt 0 view .LVU529
 1525 0014 0168     		ldr	r1, [r0]
 849:Drivers/STM32H7xx_HAL_Driver/Src/stm32h7xx_hal_dcmi.c **** 
 1526              		.loc 1 849 18 view .LVU530
 1527 0016 0B68     		ldr	r3, [r1]
 849:Drivers/STM32H7xx_HAL_Driver/Src/stm32h7xx_hal_dcmi.c **** 
 1528              		.loc 1 849 23 view .LVU531
 1529 0018 43F00403 		orr	r3, r3, #4
 1530 001c 0B60     		str	r3, [r1]
 852:Drivers/STM32H7xx_HAL_Driver/Src/stm32h7xx_hal_dcmi.c **** 
 1531              		.loc 1 852 3 is_stmt 1 view .LVU532
 852:Drivers/STM32H7xx_HAL_Driver/Src/stm32h7xx_hal_dcmi.c **** 
 1532              		.loc 1 852 16 is_stmt 0 view .LVU533
 1533 001e 80F83520 		strb	r2, [r0, #53]
 855:Drivers/STM32H7xx_HAL_Driver/Src/stm32h7xx_hal_dcmi.c **** 
 1534              		.loc 1 855 3 is_stmt 1 view .LVU534
 855:Drivers/STM32H7xx_HAL_Driver/Src/stm32h7xx_hal_dcmi.c **** 
 1535              		.loc 1 855 3 view .LVU535
 1536 0022 0023     		movs	r3, #0
 1537 0024 80F83430 		strb	r3, [r0, #52]
 855:Drivers/STM32H7xx_HAL_Driver/Src/stm32h7xx_hal_dcmi.c **** 
 1538              		.loc 1 855 3 view .LVU536
 857:Drivers/STM32H7xx_HAL_Driver/Src/stm32h7xx_hal_dcmi.c **** }
 1539              		.loc 1 857 3 view .LVU537
 857:Drivers/STM32H7xx_HAL_Driver/Src/stm32h7xx_hal_dcmi.c **** }
 1540              		.loc 1 857 10 is_stmt 0 view .LVU538
 1541 0028 1846     		mov	r0, r3
 1542              	.LVL90:
 857:Drivers/STM32H7xx_HAL_Driver/Src/stm32h7xx_hal_dcmi.c **** }
 1543              		.loc 1 857 10 view .LVU539
 1544 002a 7047     		bx	lr
 1545              	.LVL91:
 1546              	.L100:
 843:Drivers/STM32H7xx_HAL_Driver/Src/stm32h7xx_hal_dcmi.c **** 
 1547              		.loc 1 843 3 discriminator 1 view .LVU540
 1548 002c 0220     		movs	r0, #2
 1549              	.LVL92:
 858:Drivers/STM32H7xx_HAL_Driver/Src/stm32h7xx_hal_dcmi.c **** 
 1550              		.loc 1 858 1 view .LVU541
 1551 002e 7047     		bx	lr
 1552              		.cfi_endproc
 1553              	.LFE352:
 1555              		.section	.text.HAL_DCMI_ConfigSyncUnmask,"ax",%progbits
 1556              		.align	1
 1557              		.global	HAL_DCMI_ConfigSyncUnmask
 1558              		.syntax unified
 1559              		.thumb
 1560              		.thumb_func
 1562              	HAL_DCMI_ConfigSyncUnmask:
 1563              	.LVL93:
 1564              	.LFB353:
 869:Drivers/STM32H7xx_HAL_Driver/Src/stm32h7xx_hal_dcmi.c ****   /* Process Locked */
 1565              		.loc 1 869 1 is_stmt 1 view -0
 1566              		.cfi_startproc
 1567              		@ args = 0, pretend = 0, frame = 0
 1568              		@ frame_needed = 0, uses_anonymous_args = 0
 1569              		@ link register save eliminated.
ARM GAS  /tmp/ccYwYWEs.s 			page 58


 869:Drivers/STM32H7xx_HAL_Driver/Src/stm32h7xx_hal_dcmi.c ****   /* Process Locked */
 1570              		.loc 1 869 1 is_stmt 0 view .LVU543
 1571 0000 0346     		mov	r3, r0
 871:Drivers/STM32H7xx_HAL_Driver/Src/stm32h7xx_hal_dcmi.c **** 
 1572              		.loc 1 871 3 is_stmt 1 view .LVU544
 871:Drivers/STM32H7xx_HAL_Driver/Src/stm32h7xx_hal_dcmi.c **** 
 1573              		.loc 1 871 3 view .LVU545
 1574 0002 90F83420 		ldrb	r2, [r0, #52]	@ zero_extendqisi2
 1575 0006 012A     		cmp	r2, #1
 1576 0008 1AD0     		beq	.L103
 871:Drivers/STM32H7xx_HAL_Driver/Src/stm32h7xx_hal_dcmi.c **** 
 1577              		.loc 1 871 3 discriminator 2 view .LVU546
 1578 000a 0120     		movs	r0, #1
 1579              	.LVL94:
 871:Drivers/STM32H7xx_HAL_Driver/Src/stm32h7xx_hal_dcmi.c **** 
 1580              		.loc 1 871 3 is_stmt 0 discriminator 2 view .LVU547
 1581 000c 83F83400 		strb	r0, [r3, #52]
 871:Drivers/STM32H7xx_HAL_Driver/Src/stm32h7xx_hal_dcmi.c **** 
 1582              		.loc 1 871 3 is_stmt 1 view .LVU548
 874:Drivers/STM32H7xx_HAL_Driver/Src/stm32h7xx_hal_dcmi.c **** 
 1583              		.loc 1 874 3 view .LVU549
 874:Drivers/STM32H7xx_HAL_Driver/Src/stm32h7xx_hal_dcmi.c **** 
 1584              		.loc 1 874 16 is_stmt 0 view .LVU550
 1585 0010 0222     		movs	r2, #2
 1586 0012 83F83520 		strb	r2, [r3, #53]
 877:Drivers/STM32H7xx_HAL_Driver/Src/stm32h7xx_hal_dcmi.c ****                            ((uint32_t)SyncUnmask->LineStartUnmask << DCMI_ESUR_LSU_Pos) | \
 1587              		.loc 1 877 3 is_stmt 1 view .LVU551
 877:Drivers/STM32H7xx_HAL_Driver/Src/stm32h7xx_hal_dcmi.c ****                            ((uint32_t)SyncUnmask->LineStartUnmask << DCMI_ESUR_LSU_Pos) | \
 1588              		.loc 1 877 49 is_stmt 0 view .LVU552
 1589 0016 0A78     		ldrb	r2, [r1]	@ zero_extendqisi2
 878:Drivers/STM32H7xx_HAL_Driver/Src/stm32h7xx_hal_dcmi.c ****                            ((uint32_t)SyncUnmask->LineEndUnmask << DCMI_ESUR_LEU_Pos) | \
 1590              		.loc 1 878 49 view .LVU553
 1591 0018 91F801C0 		ldrb	ip, [r1, #1]	@ zero_extendqisi2
 877:Drivers/STM32H7xx_HAL_Driver/Src/stm32h7xx_hal_dcmi.c ****                            ((uint32_t)SyncUnmask->LineStartUnmask << DCMI_ESUR_LSU_Pos) | \
 1592              		.loc 1 877 69 view .LVU554
 1593 001c 42EA0C22 		orr	r2, r2, ip, lsl #8
 879:Drivers/STM32H7xx_HAL_Driver/Src/stm32h7xx_hal_dcmi.c ****                            ((uint32_t)SyncUnmask->FrameEndUnmask << DCMI_ESUR_FEU_Pos));
 1594              		.loc 1 879 49 view .LVU555
 1595 0020 91F802C0 		ldrb	ip, [r1, #2]	@ zero_extendqisi2
 878:Drivers/STM32H7xx_HAL_Driver/Src/stm32h7xx_hal_dcmi.c ****                            ((uint32_t)SyncUnmask->LineEndUnmask << DCMI_ESUR_LEU_Pos) | \
 1596              		.loc 1 878 89 view .LVU556
 1597 0024 42EA0C42 		orr	r2, r2, ip, lsl #16
 880:Drivers/STM32H7xx_HAL_Driver/Src/stm32h7xx_hal_dcmi.c **** 
 1598              		.loc 1 880 49 view .LVU557
 1599 0028 91F803C0 		ldrb	ip, [r1, #3]	@ zero_extendqisi2
 877:Drivers/STM32H7xx_HAL_Driver/Src/stm32h7xx_hal_dcmi.c ****                            ((uint32_t)SyncUnmask->LineStartUnmask << DCMI_ESUR_LSU_Pos) | \
 1600              		.loc 1 877 8 view .LVU558
 1601 002c 1968     		ldr	r1, [r3]
 1602              	.LVL95:
 879:Drivers/STM32H7xx_HAL_Driver/Src/stm32h7xx_hal_dcmi.c ****                            ((uint32_t)SyncUnmask->FrameEndUnmask << DCMI_ESUR_FEU_Pos));
 1603              		.loc 1 879 87 view .LVU559
 1604 002e 42EA0C62 		orr	r2, r2, ip, lsl #24
 877:Drivers/STM32H7xx_HAL_Driver/Src/stm32h7xx_hal_dcmi.c ****                            ((uint32_t)SyncUnmask->LineStartUnmask << DCMI_ESUR_LSU_Pos) | \
 1605              		.loc 1 877 25 view .LVU560
 1606 0032 CA61     		str	r2, [r1, #28]
 883:Drivers/STM32H7xx_HAL_Driver/Src/stm32h7xx_hal_dcmi.c **** 
 1607              		.loc 1 883 3 is_stmt 1 view .LVU561
ARM GAS  /tmp/ccYwYWEs.s 			page 59


 883:Drivers/STM32H7xx_HAL_Driver/Src/stm32h7xx_hal_dcmi.c **** 
 1608              		.loc 1 883 16 is_stmt 0 view .LVU562
 1609 0034 83F83500 		strb	r0, [r3, #53]
 886:Drivers/STM32H7xx_HAL_Driver/Src/stm32h7xx_hal_dcmi.c **** 
 1610              		.loc 1 886 3 is_stmt 1 view .LVU563
 886:Drivers/STM32H7xx_HAL_Driver/Src/stm32h7xx_hal_dcmi.c **** 
 1611              		.loc 1 886 3 view .LVU564
 1612 0038 0020     		movs	r0, #0
 1613 003a 83F83400 		strb	r0, [r3, #52]
 886:Drivers/STM32H7xx_HAL_Driver/Src/stm32h7xx_hal_dcmi.c **** 
 1614              		.loc 1 886 3 view .LVU565
 888:Drivers/STM32H7xx_HAL_Driver/Src/stm32h7xx_hal_dcmi.c **** }
 1615              		.loc 1 888 3 view .LVU566
 888:Drivers/STM32H7xx_HAL_Driver/Src/stm32h7xx_hal_dcmi.c **** }
 1616              		.loc 1 888 10 is_stmt 0 view .LVU567
 1617 003e 7047     		bx	lr
 1618              	.LVL96:
 1619              	.L103:
 871:Drivers/STM32H7xx_HAL_Driver/Src/stm32h7xx_hal_dcmi.c **** 
 1620              		.loc 1 871 3 discriminator 1 view .LVU568
 1621 0040 0220     		movs	r0, #2
 1622              	.LVL97:
 889:Drivers/STM32H7xx_HAL_Driver/Src/stm32h7xx_hal_dcmi.c **** 
 1623              		.loc 1 889 1 view .LVU569
 1624 0042 7047     		bx	lr
 1625              		.cfi_endproc
 1626              	.LFE353:
 1628              		.section	.text.HAL_DCMI_GetState,"ax",%progbits
 1629              		.align	1
 1630              		.global	HAL_DCMI_GetState
 1631              		.syntax unified
 1632              		.thumb
 1633              		.thumb_func
 1635              	HAL_DCMI_GetState:
 1636              	.LVL98:
 1637              	.LFB354:
 918:Drivers/STM32H7xx_HAL_Driver/Src/stm32h7xx_hal_dcmi.c ****   return hdcmi->State;
 1638              		.loc 1 918 1 is_stmt 1 view -0
 1639              		.cfi_startproc
 1640              		@ args = 0, pretend = 0, frame = 0
 1641              		@ frame_needed = 0, uses_anonymous_args = 0
 1642              		@ link register save eliminated.
 919:Drivers/STM32H7xx_HAL_Driver/Src/stm32h7xx_hal_dcmi.c **** }
 1643              		.loc 1 919 3 view .LVU571
 919:Drivers/STM32H7xx_HAL_Driver/Src/stm32h7xx_hal_dcmi.c **** }
 1644              		.loc 1 919 15 is_stmt 0 view .LVU572
 1645 0000 90F83500 		ldrb	r0, [r0, #53]	@ zero_extendqisi2
 1646              	.LVL99:
 920:Drivers/STM32H7xx_HAL_Driver/Src/stm32h7xx_hal_dcmi.c **** 
 1647              		.loc 1 920 1 view .LVU573
 1648 0004 7047     		bx	lr
 1649              		.cfi_endproc
 1650              	.LFE354:
 1652              		.section	.text.HAL_DCMI_GetError,"ax",%progbits
 1653              		.align	1
 1654              		.global	HAL_DCMI_GetError
 1655              		.syntax unified
ARM GAS  /tmp/ccYwYWEs.s 			page 60


 1656              		.thumb
 1657              		.thumb_func
 1659              	HAL_DCMI_GetError:
 1660              	.LVL100:
 1661              	.LFB355:
 929:Drivers/STM32H7xx_HAL_Driver/Src/stm32h7xx_hal_dcmi.c ****   return hdcmi->ErrorCode;
 1662              		.loc 1 929 1 is_stmt 1 view -0
 1663              		.cfi_startproc
 1664              		@ args = 0, pretend = 0, frame = 0
 1665              		@ frame_needed = 0, uses_anonymous_args = 0
 1666              		@ link register save eliminated.
 930:Drivers/STM32H7xx_HAL_Driver/Src/stm32h7xx_hal_dcmi.c **** }
 1667              		.loc 1 930 3 view .LVU575
 930:Drivers/STM32H7xx_HAL_Driver/Src/stm32h7xx_hal_dcmi.c **** }
 1668              		.loc 1 930 15 is_stmt 0 view .LVU576
 1669 0000 C06C     		ldr	r0, [r0, #76]
 1670              	.LVL101:
 931:Drivers/STM32H7xx_HAL_Driver/Src/stm32h7xx_hal_dcmi.c **** 
 1671              		.loc 1 931 1 view .LVU577
 1672 0002 7047     		bx	lr
 1673              		.cfi_endproc
 1674              	.LFE355:
 1676              		.text
 1677              	.Letext0:
 1678              		.file 2 "/usr/arm-none-eabi/include/machine/_default_types.h"
 1679              		.file 3 "/usr/arm-none-eabi/include/sys/_stdint.h"
 1680              		.file 4 "Drivers/CMSIS/Device/ST/STM32H7xx/Include/stm32h743xx.h"
 1681              		.file 5 "Drivers/STM32H7xx_HAL_Driver/Inc/stm32h7xx_hal_def.h"
 1682              		.file 6 "Drivers/STM32H7xx_HAL_Driver/Inc/stm32h7xx_hal_dma.h"
 1683              		.file 7 "Drivers/STM32H7xx_HAL_Driver/Inc/stm32h7xx_hal_dma_ex.h"
 1684              		.file 8 "Drivers/STM32H7xx_HAL_Driver/Inc/stm32h7xx_hal_dcmi.h"
 1685              		.file 9 "Drivers/CMSIS/Device/ST/STM32H7xx/Include/system_stm32h7xx.h"
ARM GAS  /tmp/ccYwYWEs.s 			page 61


DEFINED SYMBOLS
                            *ABS*:00000000 stm32h7xx_hal_dcmi.c
     /tmp/ccYwYWEs.s:20     .text.DCMI_DMAXferCplt:00000000 $t
     /tmp/ccYwYWEs.s:25     .text.DCMI_DMAXferCplt:00000000 DCMI_DMAXferCplt
     /tmp/ccYwYWEs.s:199    .text.HAL_DCMI_MspInit:00000000 $t
     /tmp/ccYwYWEs.s:205    .text.HAL_DCMI_MspInit:00000000 HAL_DCMI_MspInit
     /tmp/ccYwYWEs.s:220    .text.HAL_DCMI_Init:00000000 $t
     /tmp/ccYwYWEs.s:226    .text.HAL_DCMI_Init:00000000 HAL_DCMI_Init
     /tmp/ccYwYWEs.s:402    .text.HAL_DCMI_Init:0000009c $d
     /tmp/ccYwYWEs.s:407    .text.HAL_DCMI_MspDeInit:00000000 $t
     /tmp/ccYwYWEs.s:413    .text.HAL_DCMI_MspDeInit:00000000 HAL_DCMI_MspDeInit
     /tmp/ccYwYWEs.s:428    .text.HAL_DCMI_DeInit:00000000 $t
     /tmp/ccYwYWEs.s:434    .text.HAL_DCMI_DeInit:00000000 HAL_DCMI_DeInit
     /tmp/ccYwYWEs.s:470    .text.HAL_DCMI_Start_DMA:00000000 $t
     /tmp/ccYwYWEs.s:476    .text.HAL_DCMI_Start_DMA:00000000 HAL_DCMI_Start_DMA
     /tmp/ccYwYWEs.s:721    .text.HAL_DCMI_Start_DMA:000000e4 $d
     /tmp/ccYwYWEs.s:1082   .text.DCMI_DMAError:00000000 DCMI_DMAError
     /tmp/ccYwYWEs.s:727    .text.HAL_DCMI_Stop:00000000 $t
     /tmp/ccYwYWEs.s:733    .text.HAL_DCMI_Stop:00000000 HAL_DCMI_Stop
     /tmp/ccYwYWEs.s:858    .text.HAL_DCMI_Stop:0000007c $d
     /tmp/ccYwYWEs.s:864    .text.HAL_DCMI_Suspend:00000000 $t
     /tmp/ccYwYWEs.s:870    .text.HAL_DCMI_Suspend:00000000 HAL_DCMI_Suspend
     /tmp/ccYwYWEs.s:984    .text.HAL_DCMI_Suspend:00000070 $d
     /tmp/ccYwYWEs.s:990    .text.HAL_DCMI_Resume:00000000 $t
     /tmp/ccYwYWEs.s:996    .text.HAL_DCMI_Resume:00000000 HAL_DCMI_Resume
     /tmp/ccYwYWEs.s:1056   .text.HAL_DCMI_ErrorCallback:00000000 $t
     /tmp/ccYwYWEs.s:1062   .text.HAL_DCMI_ErrorCallback:00000000 HAL_DCMI_ErrorCallback
     /tmp/ccYwYWEs.s:1077   .text.DCMI_DMAError:00000000 $t
     /tmp/ccYwYWEs.s:1127   .text.HAL_DCMI_LineEventCallback:00000000 $t
     /tmp/ccYwYWEs.s:1133   .text.HAL_DCMI_LineEventCallback:00000000 HAL_DCMI_LineEventCallback
     /tmp/ccYwYWEs.s:1148   .text.HAL_DCMI_VsyncEventCallback:00000000 $t
     /tmp/ccYwYWEs.s:1154   .text.HAL_DCMI_VsyncEventCallback:00000000 HAL_DCMI_VsyncEventCallback
     /tmp/ccYwYWEs.s:1169   .text.HAL_DCMI_FrameEventCallback:00000000 $t
     /tmp/ccYwYWEs.s:1175   .text.HAL_DCMI_FrameEventCallback:00000000 HAL_DCMI_FrameEventCallback
     /tmp/ccYwYWEs.s:1190   .text.HAL_DCMI_IRQHandler:00000000 $t
     /tmp/ccYwYWEs.s:1196   .text.HAL_DCMI_IRQHandler:00000000 HAL_DCMI_IRQHandler
     /tmp/ccYwYWEs.s:1350   .text.HAL_DCMI_IRQHandler:000000ac $d
     /tmp/ccYwYWEs.s:1355   .text.HAL_DCMI_ConfigCrop:00000000 $t
     /tmp/ccYwYWEs.s:1361   .text.HAL_DCMI_ConfigCrop:00000000 HAL_DCMI_ConfigCrop
     /tmp/ccYwYWEs.s:1436   .text.HAL_DCMI_DisableCrop:00000000 $t
     /tmp/ccYwYWEs.s:1442   .text.HAL_DCMI_DisableCrop:00000000 HAL_DCMI_DisableCrop
     /tmp/ccYwYWEs.s:1496   .text.HAL_DCMI_EnableCrop:00000000 $t
     /tmp/ccYwYWEs.s:1502   .text.HAL_DCMI_EnableCrop:00000000 HAL_DCMI_EnableCrop
     /tmp/ccYwYWEs.s:1556   .text.HAL_DCMI_ConfigSyncUnmask:00000000 $t
     /tmp/ccYwYWEs.s:1562   .text.HAL_DCMI_ConfigSyncUnmask:00000000 HAL_DCMI_ConfigSyncUnmask
     /tmp/ccYwYWEs.s:1629   .text.HAL_DCMI_GetState:00000000 $t
     /tmp/ccYwYWEs.s:1635   .text.HAL_DCMI_GetState:00000000 HAL_DCMI_GetState
     /tmp/ccYwYWEs.s:1653   .text.HAL_DCMI_GetError:00000000 $t
     /tmp/ccYwYWEs.s:1659   .text.HAL_DCMI_GetError:00000000 HAL_DCMI_GetError

UNDEFINED SYMBOLS
HAL_DMAEx_ChangeMemory
HAL_DMA_Start_IT
HAL_DMAEx_MultiBufferStart_IT
HAL_DMA_Abort
SystemCoreClock
HAL_DMA_Abort_IT
ARM GAS  /tmp/ccYwYWEs.s 			page 62


